
sw/applications/athos_ip_test/KECCAK/main.elf:     file format elf32-littleriscv


Disassembly of section .vectors:

00000000 <__vector_start>:

.section .vectors, "ax"
.option norvc
vector_table:
	//  0 : exception Handler and user software interrupt
	j handler_exception
   0:	3a40206f          	j	23a4 <handler_exception>
	//  1 : supervisor software interrupt
	j __no_irq_handler
   4:	09c0206f          	j	20a0 <__no_irq_handler>
	//  2 : unmapped
	j __no_irq_handler
   8:	0980206f          	j	20a0 <__no_irq_handler>
	//  3 : machine software interrupt handler
	j handler_irq_software
   c:	5280206f          	j	2534 <handler_irq_software>
	//  4 : user timer interrupt
	j __no_irq_handler
  10:	0900206f          	j	20a0 <__no_irq_handler>
	//  5 : supervisor timer interrupt
	j __no_irq_handler
  14:	08c0206f          	j	20a0 <__no_irq_handler>
	//  6 : unmapped
	j __no_irq_handler
  18:	0880206f          	j	20a0 <__no_irq_handler>
	//  7 : machine timer interrupt handler
	j handler_irq_timer
  1c:	5480206f          	j	2564 <handler_irq_timer>
	//  8 : user external interrupt
	j __no_irq_handler
  20:	0800206f          	j	20a0 <__no_irq_handler>
	//  9 : supervisor external interrupt
	j __no_irq_handler
  24:	07c0206f          	j	20a0 <__no_irq_handler>
	// 10 : unmapped
	j __no_irq_handler
  28:	0780206f          	j	20a0 <__no_irq_handler>
	// 11 : machine external interrupt handler
	j handler_irq_external
  2c:	5680206f          	j	2594 <handler_irq_external>
	// 12 : unmapped
	j __no_irq_handler
  30:	0700206f          	j	20a0 <__no_irq_handler>
	// 13 : unmapped
	j __no_irq_handler
  34:	06c0206f          	j	20a0 <__no_irq_handler>
	// 14 : unmapped
	j __no_irq_handler
  38:	0680206f          	j	20a0 <__no_irq_handler>
	// 15 : unmapped
	j __no_irq_handler
  3c:	0640206f          	j	20a0 <__no_irq_handler>
	// 16 : fast interrupt - timer_1
	j handler_irq_fast_timer_1
  40:	6000206f          	j	2640 <handler_irq_fast_timer_1>
	// 17 : fast interrupt - timer_2
	j handler_irq_fast_timer_2
  44:	6500206f          	j	2694 <handler_irq_fast_timer_2>
	// 18 : fast interrupt - timer_3
	j handler_irq_fast_timer_3
  48:	6a00206f          	j	26e8 <handler_irq_fast_timer_3>
	// 19 : fast interrupt - dma
	j handler_irq_fast_dma
  4c:	5d00206f          	j	261c <handler_irq_fast_dma>
	// 20 : fast interrupt - spi
	j handler_irq_fast_spi
  50:	6ec0206f          	j	273c <handler_irq_fast_spi>
	// 21 : fast interrupt - spi_flash
	j handler_irq_fast_spi_flash
  54:	73c0206f          	j	2790 <handler_irq_fast_spi_flash>
	// 22 : fast interrupt - gpio_0
	j handler_irq_fast_gpio_0
  58:	78c0206f          	j	27e4 <handler_irq_fast_gpio_0>
	// 23 : fast interrupt - gpio_1
	j handler_irq_fast_gpio_1
  5c:	7dc0206f          	j	2838 <handler_irq_fast_gpio_1>
	// 24 : fast interrupt - gpio_2
	j handler_irq_fast_gpio_2
  60:	02d0206f          	j	288c <handler_irq_fast_gpio_2>
	// 25 : fast interrupt - gpio_3
	j handler_irq_fast_gpio_3
  64:	0810206f          	j	28e4 <handler_irq_fast_gpio_3>
	// 26 : fast interrupt - gpio_4
	j handler_irq_fast_gpio_4
  68:	0d50206f          	j	293c <handler_irq_fast_gpio_4>
	// 27 : fast interrupt - gpio_5
	j handler_irq_fast_gpio_5
  6c:	1290206f          	j	2994 <handler_irq_fast_gpio_5>
	// 28 : fast interrupt - gpio_6
	j handler_irq_fast_gpio_6
  70:	1810206f          	j	29f0 <handler_irq_fast_gpio_6>
	// 29 : fast interrupt - gpio_7
	j handler_irq_fast_gpio_7
  74:	1d50206f          	j	2a48 <handler_irq_fast_gpio_7>
	// 30 : fast interrupt - unmapped
	j __no_irq_handler
  78:	0280206f          	j	20a0 <__no_irq_handler>
	// vendor interrupts: on Ibex interrupt id 31 is for non-maskable interrupts
	j __no_irq_handler
  7c:	0240206f          	j	20a0 <__no_irq_handler>
	// 64-32 : not connected on Ibex
	j verification_irq_handler
  80:	0a80206f          	j	2128 <verification_irq_handler>
	j __no_irq_handler
  84:	01c0206f          	j	20a0 <__no_irq_handler>
	j __no_irq_handler
  88:	0180206f          	j	20a0 <__no_irq_handler>
	j __no_irq_handler
  8c:	0140206f          	j	20a0 <__no_irq_handler>
	j __no_irq_handler
  90:	0100206f          	j	20a0 <__no_irq_handler>
	j __no_irq_handler
  94:	00c0206f          	j	20a0 <__no_irq_handler>
	j __no_irq_handler
  98:	0080206f          	j	20a0 <__no_irq_handler>
	j __no_irq_handler
  9c:	0040206f          	j	20a0 <__no_irq_handler>
	j __no_irq_handler
  a0:	0000206f          	j	20a0 <__no_irq_handler>
	j __no_irq_handler
  a4:	7fd0106f          	j	20a0 <__no_irq_handler>
	j __no_irq_handler
  a8:	7f90106f          	j	20a0 <__no_irq_handler>
	j __no_irq_handler
  ac:	7f50106f          	j	20a0 <__no_irq_handler>
	j __no_irq_handler
  b0:	7f10106f          	j	20a0 <__no_irq_handler>
	j __no_irq_handler
  b4:	7ed0106f          	j	20a0 <__no_irq_handler>
	j __no_irq_handler
  b8:	7e90106f          	j	20a0 <__no_irq_handler>
	j __no_irq_handler
  bc:	7e50106f          	j	20a0 <__no_irq_handler>
	j __no_irq_handler
  c0:	7e10106f          	j	20a0 <__no_irq_handler>
	j __no_irq_handler
  c4:	7dd0106f          	j	20a0 <__no_irq_handler>
	j __no_irq_handler
  c8:	7d90106f          	j	20a0 <__no_irq_handler>
	j __no_irq_handler
  cc:	7d50106f          	j	20a0 <__no_irq_handler>
	j __no_irq_handler
  d0:	7d10106f          	j	20a0 <__no_irq_handler>
	j __no_irq_handler
  d4:	7cd0106f          	j	20a0 <__no_irq_handler>
	j __no_irq_handler
  d8:	7c90106f          	j	20a0 <__no_irq_handler>
	j __no_irq_handler
  dc:	7c50106f          	j	20a0 <__no_irq_handler>
	j __no_irq_handler
  e0:	7c10106f          	j	20a0 <__no_irq_handler>
	j __no_irq_handler
  e4:	7bd0106f          	j	20a0 <__no_irq_handler>
	j __no_irq_handler
  e8:	7b90106f          	j	20a0 <__no_irq_handler>
	j __no_irq_handler
  ec:	7b50106f          	j	20a0 <__no_irq_handler>
	j __no_irq_handler
  f0:	7b10106f          	j	20a0 <__no_irq_handler>
	j __no_irq_handler
  f4:	7ad0106f          	j	20a0 <__no_irq_handler>
	j __no_irq_handler
  f8:	7a90106f          	j	20a0 <__no_irq_handler>
	j __no_irq_handler
  fc:	7a50106f          	j	20a0 <__no_irq_handler>
	j __no_irq_handler
 100:	7a10106f          	j	20a0 <__no_irq_handler>

Disassembly of section .init:

00000180 <_start>:

_start:
/* initialize global pointer */
.option push
.option norelax
1: auipc gp, %pcrel_hi(__global_pointer$)
 180:	00081197          	auipc	gp,0x81
   addi  gp, gp, %pcrel_lo(1b)
 184:	c2c18193          	addi	gp,gp,-980 # 80dac <__global_pointer$>
.option pop

/* initialize stack pointer */
   la sp, _sp
 188:	000e1117          	auipc	sp,0xe1
 18c:	8e810113          	addi	sp,sp,-1816 # e0a70 <_sp>

/* set the frequency */
   li a0, SOC_CTRL_START_ADDRESS
 190:	20000537          	lui	a0,0x20000
   li a2, REFERENCE_CLOCK_Hz
 194:	05f5e637          	lui	a2,0x5f5e
 198:	10060613          	addi	a2,a2,256 # 5f5e100 <_sp+0x5e7d690>
   sw a2, SOC_CTRL_SYSTEM_FREQUENCY_HZ_REG_OFFSET(a0)
 19c:	cd50                	sw	a2,28(a0)
    sub    a2, a2, a0
    li     a1, 0
    call   memset
#else
/* clear the bss segment */
   la a0, __bss_start
 19e:	00080517          	auipc	a0,0x80
 1a2:	4ca50513          	addi	a0,a0,1226 # 80668 <plic_intr_flag>
   la a2, __bss_end
 1a6:	00081617          	auipc	a2,0x81
 1aa:	8c660613          	addi	a2,a2,-1850 # 80a6c <__BSS_END__>
   sub a2, a2, a0
 1ae:	8e09                	sub	a2,a2,a0
   li a1, 0
 1b0:	4581                	li	a1,0
   call memset
 1b2:	197020ef          	jal	ra,2b48 <memset>
    blt a1, a2, loop_init_data
    end_init_data:
#endif

/* set vector table address and vectored mode */
    la a0, __vector_start
 1b6:	00000517          	auipc	a0,0x0
 1ba:	e4a50513          	addi	a0,a0,-438 # 0 <__vector_start>
    ori a0, a0, 0x1
 1be:	00156513          	ori	a0,a0,1
    csrw mtvec, a0
 1c2:	30551073          	csrw	mtvec,a0

/* new-style constructors and destructors */
    la a0, __libc_fini_array
 1c6:	00003517          	auipc	a0,0x3
 1ca:	8e250513          	addi	a0,a0,-1822 # 2aa8 <__libc_fini_array>
    call atexit
 1ce:	0d1020ef          	jal	ra,2a9e <atexit>
    call __libc_init_array
 1d2:	111020ef          	jal	ra,2ae2 <__libc_init_array>

/* call main */
    lw a0, 0(sp)                    /* a0 = argc */
 1d6:	4502                	lw	a0,0(sp)
    addi a1, sp, __SIZEOF_POINTER__ /* a1 = argv */
 1d8:	004c                	addi	a1,sp,4
    li a2, 0                        /* a2 = envp = NULL */
 1da:	4601                	li	a2,0
    call main
 1dc:	03a000ef          	jal	ra,216 <main>
    tail exit
 1e0:	00c0006f          	j	1ec <exit>

000001e4 <_init>:
.global _init
.type   _init, @function
.global _fini
.type   _fini, @function
_init:
    call init
 1e4:	0ac020ef          	jal	ra,2290 <init>

000001e8 <_fini>:
_fini:
 /* These don't have to do anything since we use init_array/fini_array. Prevent
    missing symbol error */
    ret
 1e8:	8082                	ret

Disassembly of section .text:

000001ec <exit>:
     1ec:	1141                	addi	sp,sp,-16
     1ee:	678d                	lui	a5,0x3
     1f0:	c422                	sw	s0,8(sp)
     1f2:	c606                	sw	ra,12(sp)
     1f4:	f9a78793          	addi	a5,a5,-102 # 2f9a <__call_exitprocs>
     1f8:	842a                	mv	s0,a0
     1fa:	c781                	beqz	a5,202 <exit+0x16>
     1fc:	4581                	li	a1,0
     1fe:	59d020ef          	jal	ra,2f9a <__call_exitprocs>
     202:	000807b7          	lui	a5,0x80
     206:	6587a503          	lw	a0,1624(a5) # 80658 <_global_impure_ptr>
     20a:	551c                	lw	a5,40(a0)
     20c:	c391                	beqz	a5,210 <exit+0x24>
     20e:	9782                	jalr	a5
     210:	8522                	mv	a0,s0
     212:	086020ef          	jal	ra,2298 <_exit>

00000216 <main>:
    state[22] = Asi;
    state[23] = Aso;
    state[24] = Asu;
}

int main(){
     216:	c8010113          	addi	sp,sp,-896

	static uint32_t D_expected[SIZE];
	int i = 0;
	uint64_t s[25], s_exp[25];

	memset(Din, 0, sizeof(Din));
     21a:	000807b7          	lui	a5,0x80
int main(){
     21e:	37412623          	sw	s4,876(sp)
	memset(Din, 0, sizeof(Din));
     222:	74478a13          	addi	s4,a5,1860 # 80744 <Din.2>
     226:	0b800613          	li	a2,184
     22a:	4581                	li	a1,0
     22c:	010a0513          	addi	a0,s4,16
int main(){
     230:	36112e23          	sw	ra,892(sp)
     234:	36912c23          	sw	s1,888(sp)
     238:	37212a23          	sw	s2,884(sp)
     23c:	37312823          	sw	s3,880(sp)
     240:	37512423          	sw	s5,872(sp)
     244:	37612223          	sw	s6,868(sp)
     248:	37712023          	sw	s7,864(sp)
     24c:	35812e23          	sw	s8,860(sp)
     250:	35912c23          	sw	s9,856(sp)
     254:	35a12a23          	sw	s10,852(sp)
     258:	35b12823          	sw	s11,848(sp)
	memset(Din, 0, sizeof(Din));
     25c:	15412c23          	sw	s4,344(sp)
     260:	0e9020ef          	jal	ra,2b48 <memset>
	memset(Dout, 0, sizeof(Dout));
     264:	000817b7          	lui	a5,0x81
     268:	0c800613          	li	a2,200
     26c:	4581                	li	a1,0
     26e:	80c78513          	addi	a0,a5,-2036 # 8080c <Dout.1>
     272:	0d7020ef          	jal	ra,2b48 <memset>
    s[23] = 0x0000000000000000;
    s[24] = 0x0000000000000000;

	

	D_expected[1] = 0xE1ADB0E2;
     276:	000807b7          	lui	a5,0x80
     27a:	67c78713          	addi	a4,a5,1660 # 8067c <D_expected.0>
	Din[0] = 0x7369C667;
     27e:	7369c7b7          	lui	a5,0x7369c
     282:	66778913          	addi	s2,a5,1639 # 7369c667 <_sp+0x735bbbf7>
	Din[1] = 0xEC4AFF51;
     286:	ec4b07b7          	lui	a5,0xec4b0
     28a:	f5178993          	addi	s3,a5,-175 # ec4aff51 <_sp+0xec3cf4e1>
	Din[2] = 0xABBACD29;
     28e:	abbad7b7          	lui	a5,0xabbad
     292:	d2978493          	addi	s1,a5,-727 # abbacd29 <_sp+0xabacc2b9>
	Din[3] = 0x00000010;
     296:	47c1                	li	a5,16
     298:	00fa2623          	sw	a5,12(s4)
	Din[31] = 0x80000000;
     29c:	800007b7          	lui	a5,0x80000
     2a0:	06fa2e23          	sw	a5,124(s4)
	D_expected[1] = 0xE1ADB0E2;
     2a4:	e1adb7b7          	lui	a5,0xe1adb
     2a8:	0e278793          	addi	a5,a5,226 # e1adb0e2 <_sp+0xe19fa672>
     2ac:	c35c                	sw	a5,4(a4)
	D_expected[0] = 0xE7CB8356;
     2ae:	e7cb87b7          	lui	a5,0xe7cb8
     2b2:	35678793          	addi	a5,a5,854 # e7cb8356 <_sp+0xe7bd78e6>
     2b6:	c31c                	sw	a5,0(a4)
	D_expected[3] = 0xBB3F5FB8;
     2b8:	bb3f67b7          	lui	a5,0xbb3f6
     2bc:	fb878793          	addi	a5,a5,-72 # bb3f5fb8 <_sp+0xbb315548>
     2c0:	c75c                	sw	a5,12(a4)
	D_expected[2] = 0x573A5BD7;
     2c2:	573a67b7          	lui	a5,0x573a6
     2c6:	bd778793          	addi	a5,a5,-1065 # 573a5bd7 <_sp+0x572c5167>
     2ca:	c71c                	sw	a5,8(a4)
	D_expected[5] = 0xF7CA02A1;
     2cc:	f7ca07b7          	lui	a5,0xf7ca0
     2d0:	2a178793          	addi	a5,a5,673 # f7ca02a1 <_sp+0xf7bbf831>
     2d4:	cb5c                	sw	a5,20(a4)
	D_expected[4] = 0xE9784CC5;
     2d6:	e97857b7          	lui	a5,0xe9785
     2da:	cc578793          	addi	a5,a5,-827 # e9784cc5 <_sp+0xe96a4255>
     2de:	cb1c                	sw	a5,16(a4)
	D_expected[7] = 0x6E54F256;
     2e0:	6e54f7b7          	lui	a5,0x6e54f
     2e4:	25678793          	addi	a5,a5,598 # 6e54f256 <_sp+0x6e46e7e6>
     2e8:	cf5c                	sw	a5,28(a4)
	D_expected[6] = 0x60A4C685;
     2ea:	60a4c7b7          	lui	a5,0x60a4c
     2ee:	68578793          	addi	a5,a5,1669 # 60a4c685 <_sp+0x6096bc15>
     2f2:	cf1c                	sw	a5,24(a4)
	D_expected[9] = 0x77051F83;
     2f4:	770527b7          	lui	a5,0x77052
     2f8:	f8378793          	addi	a5,a5,-125 # 77051f83 <_sp+0x76f71513>
     2fc:	d35c                	sw	a5,36(a4)
	D_expected[8] = 0x243FCBAA;
     2fe:	243fd7b7          	lui	a5,0x243fd
     302:	baa78793          	addi	a5,a5,-1110 # 243fcbaa <_sp+0x2431c13a>
     306:	d31c                	sw	a5,32(a4)
	D_expected[11] = 0x6459DB0B;
     308:	6459e7b7          	lui	a5,0x6459e
     30c:	b0b78793          	addi	a5,a5,-1269 # 6459db0b <_sp+0x644bd09b>
     310:	d75c                	sw	a5,44(a4)
	D_expected[10] = 0x4C063DD5;
     312:	4c0647b7          	lui	a5,0x4c064
     316:	dd578793          	addi	a5,a5,-555 # 4c063dd5 <_sp+0x4bf83365>
     31a:	d71c                	sw	a5,40(a4)
	D_expected[13] = 0xE046DE71;
     31c:	e046e7b7          	lui	a5,0xe046e
     320:	e7178793          	addi	a5,a5,-399 # e046de71 <_sp+0xe038d401>
     324:	db5c                	sw	a5,52(a4)
	D_expected[12] = 0xCB4B81C6;
     326:	cb4b87b7          	lui	a5,0xcb4b8
     32a:	1c678793          	addi	a5,a5,454 # cb4b81c6 <_sp+0xcb3d7756>
     32e:	db1c                	sw	a5,48(a4)
	D_expected[15] = 0x94051793;
     330:	940517b7          	lui	a5,0x94051
     334:	79378793          	addi	a5,a5,1939 # 94051793 <_sp+0x93f70d23>
     338:	df5c                	sw	a5,60(a4)
	D_expected[14] = 0xDB31F24C;
     33a:	db31f7b7          	lui	a5,0xdb31f
     33e:	24c78793          	addi	a5,a5,588 # db31f24c <_sp+0xdb23e7dc>
     342:	df1c                	sw	a5,56(a4)
	D_expected[17] = 0xA13FC86C;
     344:	a13fd7b7          	lui	a5,0xa13fd
     348:	86c78793          	addi	a5,a5,-1940 # a13fc86c <_sp+0xa131bdfc>
     34c:	c37c                	sw	a5,68(a4)
	D_expected[16] = 0xF16E32DD;
     34e:	f16e37b7          	lui	a5,0xf16e3
     352:	2dd78793          	addi	a5,a5,733 # f16e32dd <_sp+0xf160286d>
     356:	c33c                	sw	a5,64(a4)
	D_expected[19] = 0xB962FC91;
     358:	b96307b7          	lui	a5,0xb9630
     35c:	c9178793          	addi	a5,a5,-879 # b962fc91 <_sp+0xb954f221>
     360:	c77c                	sw	a5,76(a4)
	D_expected[18] = 0xB7737708;
     362:	b77377b7          	lui	a5,0xb7737
     366:	70878793          	addi	a5,a5,1800 # b7737708 <_sp+0xb7656c98>
     36a:	c73c                	sw	a5,72(a4)
	D_expected[21] = 0xD3CA2E7A;
     36c:	d3ca37b7          	lui	a5,0xd3ca3
     370:	e7a78793          	addi	a5,a5,-390 # d3ca2e7a <_sp+0xd3bc240a>
     374:	cb7c                	sw	a5,84(a4)
	D_expected[20] = 0xFA27C801;
     376:	fa27d7b7          	lui	a5,0xfa27d
     37a:	80178793          	addi	a5,a5,-2047 # fa27c801 <_sp+0xfa19bd91>
     37e:	cb3c                	sw	a5,80(a4)
	D_expected[23] = 0x53C85108;
     380:	53c857b7          	lui	a5,0x53c85
     384:	10878793          	addi	a5,a5,264 # 53c85108 <_sp+0x53ba4698>
     388:	cf7c                	sw	a5,92(a4)
	D_expected[22] = 0xF72A3CCA;
     38a:	f72a47b7          	lui	a5,0xf72a4
     38e:	cca78793          	addi	a5,a5,-822 # f72a3cca <_sp+0xf71c325a>
     392:	cf3c                	sw	a5,88(a4)
	D_expected[25] = 0x73E732CD;
     394:	73e737b7          	lui	a5,0x73e73
     398:	2cd78793          	addi	a5,a5,717 # 73e732cd <_sp+0x73d9285d>
     39c:	d37c                	sw	a5,100(a4)
	D_expected[24] = 0xADF0E783;
     39e:	adf0e7b7          	lui	a5,0xadf0e
     3a2:	78378793          	addi	a5,a5,1923 # adf0e783 <_sp+0xade2dd13>
     3a6:	d33c                	sw	a5,96(a4)
	D_expected[27] = 0x8470BD54;
     3a8:	8470c7b7          	lui	a5,0x8470c
     3ac:	d5478793          	addi	a5,a5,-684 # 8470bd54 <_sp+0x8462b2e4>
     3b0:	d77c                	sw	a5,108(a4)
	D_expected[26] = 0xC4BDD1BF; 
     3b2:	c4bdd7b7          	lui	a5,0xc4bdd
	D_expected[1] = 0xE1ADB0E2;
     3b6:	14e12e23          	sw	a4,348(sp)
	Din[0] = 0x7369C667;
     3ba:	012a2023          	sw	s2,0(s4)
	Din[1] = 0xEC4AFF51;
     3be:	013a2223          	sw	s3,4(s4)
	D_expected[26] = 0xC4BDD1BF; 
     3c2:	1bf78793          	addi	a5,a5,447 # c4bdd1bf <_sp+0xc4afc74f>
	Din[2] = 0xABBACD29;
     3c6:	009a2423          	sw	s1,8(s4)
	D_expected[26] = 0xC4BDD1BF; 
     3ca:	d73c                	sw	a5,104(a4)
	D_expected[29] = 0xD10B916F;
     3cc:	d10b97b7          	lui	a5,0xd10b9
	D_expected[1] = 0xE1ADB0E2;
     3d0:	883a                	mv	a6,a4
	D_expected[29] = 0xD10B916F;
     3d2:	16f78793          	addi	a5,a5,367 # d10b916f <_sp+0xd0fd86ff>
     3d6:	06f82a23          	sw	a5,116(a6)
	D_expected[28] = 0x7C8C1F77; 
     3da:	7c8c27b7          	lui	a5,0x7c8c2
     3de:	f7778793          	addi	a5,a5,-137 # 7c8c1f77 <_sp+0x7c7e1507>
     3e2:	06f82823          	sw	a5,112(a6)
	D_expected[31] = 0x51129474;
     3e6:	511297b7          	lui	a5,0x51129
     3ea:	47478793          	addi	a5,a5,1140 # 51129474 <_sp+0x51048a04>
     3ee:	06f82e23          	sw	a5,124(a6)
	D_expected[30] = 0x440A2670; 
     3f2:	440a27b7          	lui	a5,0x440a2
     3f6:	67078793          	addi	a5,a5,1648 # 440a2670 <_sp+0x43fc1c00>
     3fa:	06f82c23          	sw	a5,120(a6)
	D_expected[33] = 0x3D77CB49;
     3fe:	3d77d7b7          	lui	a5,0x3d77d
     402:	b4978793          	addi	a5,a5,-1207 # 3d77cb49 <_sp+0x3d69c0d9>
     406:	08f82223          	sw	a5,132(a6)
	D_expected[32] = 0xE9960C44; 
     40a:	e99617b7          	lui	a5,0xe9961
     40e:	c4478793          	addi	a5,a5,-956 # e9960c44 <_sp+0xe98801d4>
     412:	08f82023          	sw	a5,128(a6)
	D_expected[35] = 0xEC5001EB;
     416:	ec5007b7          	lui	a5,0xec500
     41a:	1eb78793          	addi	a5,a5,491 # ec5001eb <_sp+0xec41f77b>
     41e:	08f82623          	sw	a5,140(a6)
	D_expected[34] = 0xE4251E39; 
     422:	e42527b7          	lui	a5,0xe4252
     426:	e3978793          	addi	a5,a5,-455 # e4251e39 <_sp+0xe41713c9>
     42a:	08f82423          	sw	a5,136(a6)
	D_expected[37] = 0x77A0EEC5;
     42e:	77a0f7b7          	lui	a5,0x77a0f
     432:	ec578793          	addi	a5,a5,-315 # 77a0eec5 <_sp+0x7792e455>
     436:	08f82a23          	sw	a5,148(a6)
	D_expected[36] = 0xEA4FD653;
     43a:	ea4fd7b7          	lui	a5,0xea4fd
     43e:	65378793          	addi	a5,a5,1619 # ea4fd653 <_sp+0xea41cbe3>
     442:	08f82823          	sw	a5,144(a6)
	D_expected[39] = 0xEBC86BD4;
     446:	ebc877b7          	lui	a5,0xebc87
     44a:	bd478793          	addi	a5,a5,-1068 # ebc86bd4 <_sp+0xebba6164>
     44e:	08f82e23          	sw	a5,156(a6)
	D_expected[38] = 0x7B6773E7; 
     452:	7b6777b7          	lui	a5,0x7b677
     456:	3e778793          	addi	a5,a5,999 # 7b6773e7 <_sp+0x7b596977>
     45a:	08f82c23          	sw	a5,152(a6)
	D_expected[41] = 0xE77DF6B0;
     45e:	e77df7b7          	lui	a5,0xe77df
     462:	6b078793          	addi	a5,a5,1712 # e77df6b0 <_sp+0xe76fec40>
     466:	0af82223          	sw	a5,164(a6)
	D_expected[40] = 0x128FDC4B; 
     46a:	128fe7b7          	lui	a5,0x128fe
     46e:	c4b78793          	addi	a5,a5,-949 # 128fdc4b <_sp+0x1281d1db>
     472:	0af82023          	sw	a5,160(a6)
	D_expected[43] = 0x0DB0D48A;
     476:	0db0d7b7          	lui	a5,0xdb0d
     47a:	48a78793          	addi	a5,a5,1162 # db0d48a <_sp+0xda2ca1a>
     47e:	0af82623          	sw	a5,172(a6)
	D_expected[42] = 0x02F1B12E; 
     482:	02f1b7b7          	lui	a5,0x2f1b
     486:	12e78793          	addi	a5,a5,302 # 2f1b12e <_sp+0x2e3a6be>
     48a:	0af82423          	sw	a5,168(a6)
	D_expected[45] = 0x241B344D;
     48e:	241b37b7          	lui	a5,0x241b3
     492:	44d78793          	addi	a5,a5,1101 # 241b344d <_sp+0x240d29dd>
     496:	0af82a23          	sw	a5,180(a6)
	D_expected[44] = 0x0DC38AE5;
     49a:	0dc397b7          	lui	a5,0xdc39
     49e:	ae578793          	addi	a5,a5,-1307 # dc38ae5 <_sp+0xdb58075>
     4a2:	0af82823          	sw	a5,176(a6)
	D_expected[47] = 0xC3EE4E27;
     4a6:	c3ee57b7          	lui	a5,0xc3ee5
     4aa:	e2778793          	addi	a5,a5,-473 # c3ee4e27 <_sp+0xc3e043b7>
     4ae:	0af82e23          	sw	a5,188(a6)
	D_expected[46] = 0x532483D8;
     4b2:	532487b7          	lui	a5,0x53248
     4b6:	3d878793          	addi	a5,a5,984 # 532483d8 <_sp+0x53167968>
     4ba:	0af82c23          	sw	a5,184(a6)
	D_expected[49] = 0x0271BFE2;
     4be:	0271c7b7          	lui	a5,0x271c
     4c2:	1789                	addi	a5,a5,-30
     4c4:	0cf82223          	sw	a5,196(a6)
	D_expected[48] = 0x84B1B424;
     4c8:	84b1b7b7          	lui	a5,0x84b1b

    s_exp[0] = 0xE1ADB0E2E7CB8356;
    s_exp[1] = 0xBB3F5FB8573A5BD7;
     4cc:	00080537          	lui	a0,0x80
    s_exp[2] = 0xF7CA02A1E9784CC5;
     4d0:	000805b7          	lui	a1,0x80
	D_expected[48] = 0x84B1B424;
     4d4:	42478793          	addi	a5,a5,1060 # 84b1b424 <_sp+0x84a3a9b4>
    s_exp[1] = 0xBB3F5FB8573A5BD7;
     4d8:	61c52883          	lw	a7,1564(a0) # 8061c <__SDATA_BEGIN__+0xc>
	D_expected[48] = 0x84B1B424;
     4dc:	0cf82023          	sw	a5,192(a6)
    s_exp[1] = 0xBB3F5FB8573A5BD7;
     4e0:	61852803          	lw	a6,1560(a0)
    s_exp[2] = 0xF7CA02A1E9784CC5;
     4e4:	6205a503          	lw	a0,1568(a1) # 80620 <__SDATA_BEGIN__+0x10>
     4e8:	6245a583          	lw	a1,1572(a1)
    s_exp[3] = 0x6E54F25660A4C685;
     4ec:	00080637          	lui	a2,0x80
    s_exp[4] = 0x77051F83243FCBAA;
     4f0:	000806b7          	lui	a3,0x80
    s_exp[1] = 0xBB3F5FB8573A5BD7;
     4f4:	1d012423          	sw	a6,456(sp)
     4f8:	1d112623          	sw	a7,460(sp)
    s_exp[2] = 0xF7CA02A1E9784CC5;
     4fc:	1ca12823          	sw	a0,464(sp)
     500:	1cb12a23          	sw	a1,468(sp)
    s_exp[3] = 0x6E54F25660A4C685;
     504:	62862503          	lw	a0,1576(a2) # 80628 <__SDATA_BEGIN__+0x18>
     508:	62c62583          	lw	a1,1580(a2)
    s_exp[4] = 0x77051F83243FCBAA;
     50c:	6306a603          	lw	a2,1584(a3) # 80630 <__SDATA_BEGIN__+0x20>
     510:	6346a683          	lw	a3,1588(a3)
    s_exp[5] = 0x6459DB0B4C063DD5;
     514:	00080737          	lui	a4,0x80
     518:	63c72783          	lw	a5,1596(a4) # 8063c <__SDATA_BEGIN__+0x2c>
    s_exp[4] = 0x77051F83243FCBAA;
     51c:	1ed12223          	sw	a3,484(sp)
    s_exp[5] = 0x6459DB0B4C063DD5;
     520:	63872703          	lw	a4,1592(a4)
    s_exp[6] = 0xE046DE71CB4B81C6;
     524:	000806b7          	lui	a3,0x80
    s_exp[4] = 0x77051F83243FCBAA;
     528:	1ec12023          	sw	a2,480(sp)
    s_exp[6] = 0xE046DE71CB4B81C6;
     52c:	6406a603          	lw	a2,1600(a3) # 80640 <__SDATA_BEGIN__+0x30>
     530:	6446a683          	lw	a3,1604(a3)
    s_exp[5] = 0x6459DB0B4C063DD5;
     534:	1ee12423          	sw	a4,488(sp)
     538:	1ef12623          	sw	a5,492(sp)
    s_exp[7] = 0x94051793DB31F24C;
     53c:	00080737          	lui	a4,0x80
    s_exp[8] = 0xA13FC86CF16E32DD;
     540:	000807b7          	lui	a5,0x80
    s_exp[6] = 0xE046DE71CB4B81C6;
     544:	1ec12823          	sw	a2,496(sp)
     548:	1ed12a23          	sw	a3,500(sp)
    s_exp[7] = 0x94051793DB31F24C;
     54c:	64872603          	lw	a2,1608(a4) # 80648 <__SDATA_BEGIN__+0x38>
     550:	64c72683          	lw	a3,1612(a4)
    s_exp[8] = 0xA13FC86CF16E32DD;
     554:	6507a703          	lw	a4,1616(a5) # 80650 <__SDATA_BEGIN__+0x40>
     558:	6547a783          	lw	a5,1620(a5)
    s_exp[3] = 0x6E54F25660A4C685;
     55c:	1ca12c23          	sw	a0,472(sp)
    s_exp[22] = 0x241B344D0DC38AE5;
    s_exp[23] = 0xC3EE4E27532483D8;
    s_exp[24] = 0x0271BFE284B1B424;


    printf("Hello Keccak\n");
     560:	00080537          	lui	a0,0x80
     564:	0d450513          	addi	a0,a0,212 # 800d4 <no_exception_handler_msg+0x3f>
    s_exp[8] = 0xA13FC86CF16E32DD;
     568:	20f12223          	sw	a5,516(sp)
    s_exp[3] = 0x6E54F25660A4C685;
     56c:	1cb12e23          	sw	a1,476(sp)
    s_exp[7] = 0x94051793DB31F24C;
     570:	1ec12c23          	sw	a2,504(sp)
     574:	1ed12e23          	sw	a3,508(sp)
    s_exp[8] = 0xA13FC86CF16E32DD;
     578:	20e12023          	sw	a4,512(sp)
    printf("Hello Keccak\n");
     57c:	6ba020ef          	jal	ra,2c36 <puts>
    CSR_CLEAR_BITS(CSR_REG_MCOUNTINHIBIT, 0x1);
     580:	4785                	li	a5,1
     582:	3207b073          	csrc	mcountinhibit,a5
    CSR_WRITE(CSR_REG_MCYCLE, 0);
     586:	4781                	li	a5,0
     588:	b0079073          	csrw	mcycle,a5
    KeccakF1600_StatePermute_sw(s);
     58c:	000807b7          	lui	a5,0x80
     590:	2f878793          	addi	a5,a5,760 # 802f8 <KeccakF_RoundConstants_sw>
     594:	01078713          	addi	a4,a5,16
     598:	0c078793          	addi	a5,a5,192
     59c:	14f12a23          	sw	a5,340(sp)
    CSR_WRITE(CSR_REG_MCYCLE, 0);
     5a0:	67a1                	lui	a5,0x8
     5a2:	08278793          	addi	a5,a5,130 # 8082 <athos_ip_driver.c.5f30fc1c+0xf>
     5a6:	12f12a23          	sw	a5,308(sp)
     5aa:	4785                	li	a5,1
     5ac:	10f12023          	sw	a5,256(sp)
     5b0:	dfba                	sw	a4,252(sp)
    Abe = state[1];
     5b2:	47c1                	li	a5,16
    CSR_WRITE(CSR_REG_MCYCLE, 0);
     5b4:	12012c23          	sw	zero,312(sp)
     5b8:	10012223          	sw	zero,260(sp)
    Asu = state[24];
     5bc:	ca82                	sw	zero,84(sp)
    Amu = state[19];
     5be:	d602                	sw	zero,44(sp)
     5c0:	c082                	sw	zero,64(sp)
    Aku = state[14];
     5c2:	d782                	sw	zero,236(sp)
     5c4:	d982                	sw	zero,240(sp)
    Agu = state[9];
     5c6:	ca02                	sw	zero,20(sp)
     5c8:	cc02                	sw	zero,24(sp)
    Abu = state[4];
     5ca:	c382                	sw	zero,196(sp)
     5cc:	c582                	sw	zero,200(sp)
    Aso = state[23];
     5ce:	d282                	sw	zero,100(sp)
     5d0:	d482                	sw	zero,104(sp)
    Amo = state[18];
     5d2:	d002                	sw	zero,32(sp)
    Ako = state[13];
     5d4:	d802                	sw	zero,48(sp)
     5d6:	da02                	sw	zero,52(sp)
    Ago = state[8];
     5d8:	cf82                	sw	zero,220(sp)
     5da:	d182                	sw	zero,224(sp)
    Abo = state[3];
     5dc:	c602                	sw	zero,12(sp)
     5de:	c802                	sw	zero,16(sp)
    Asi = state[22];
     5e0:	c482                	sw	zero,72(sp)
     5e2:	c682                	sw	zero,76(sp)
    Ami = state[17];
     5e4:	dc02                	sw	zero,56(sp)
     5e6:	de02                	sw	zero,60(sp)
    Agi = state[7];
     5e8:	cb82                	sw	zero,212(sp)
     5ea:	cd82                	sw	zero,216(sp)
    Abi = state[2];
     5ec:	df02                	sw	zero,188(sp)
     5ee:	c182                	sw	zero,192(sp)
    Ase = state[21];
     5f0:	d882                	sw	zero,112(sp)
    Asu = state[24];
     5f2:	4c01                	li	s8,0
    Aki = state[12];
     5f4:	4d01                	li	s10,0
     5f6:	4c81                	li	s9,0
    Age = state[6];
     5f8:	4d81                	li	s11,0
     5fa:	4b81                	li	s7,0
    Abe = state[1];
     5fc:	dd3e                	sw	a5,184(sp)
    Ama = state[15];
     5fe:	800007b7          	lui	a5,0x80000
    Aba = state[0];
     602:	d74a                	sw	s2,172(sp)
     604:	d94e                	sw	s3,176(sp)
    Amo = state[18];
     606:	4b01                	li	s6,0
    Ase = state[21];
     608:	da82                	sw	zero,116(sp)
    Ame = state[16];
     60a:	ce02                	sw	zero,28(sp)
    Ake = state[11];
     60c:	d382                	sw	zero,228(sp)
     60e:	d582                	sw	zero,232(sp)
    Abe = state[1];
     610:	db26                	sw	s1,180(sp)
    Asa = state[20];
     612:	c282                	sw	zero,68(sp)
     614:	c882                	sw	zero,80(sp)
    Ama = state[15];
     616:	db82                	sw	zero,244(sp)
     618:	ddbe                	sw	a5,248(sp)
    Aka = state[10];
     61a:	d202                	sw	zero,36(sp)
     61c:	d402                	sw	zero,40(sp)
    Aga = state[5];
     61e:	c782                	sw	zero,204(sp)
     620:	c982                	sw	zero,208(sp)
    Aba = state[0];
     622:	89ee                	mv	s3,s11
     624:	895e                	mv	s2,s7
     626:	8aea                	mv	s5,s10
     628:	8a66                	mv	s4,s9
     62a:	cce2                	sw	s8,88(sp)
     62c:	a005                	j	64c <main+0x436>
        Eba ^= KeccakF_RoundConstants_sw[round];
     62e:	431c                	lw	a5,0(a4)
     630:	10f12023          	sw	a5,256(sp)
     634:	435c                	lw	a5,4(a4)
     636:	10f12223          	sw	a5,260(sp)
        Aba ^= KeccakF_RoundConstants_sw[round + 1];
     63a:	471c                	lw	a5,8(a4)
     63c:	12f12a23          	sw	a5,308(sp)
     640:	475c                	lw	a5,12(a4)
     642:	12f12c23          	sw	a5,312(sp)
     646:	01070793          	addi	a5,a4,16
     64a:	dfbe                	sw	a5,252(sp)
        BCi = Abi ^ Agi ^ Aki ^ Ami ^ Asi;
     64c:	577a                	lw	a4,188(sp)
     64e:	46de                	lw	a3,212(sp)
        BCu = Abu ^ Agu ^ Aku ^ Amu ^ Asu;
     650:	451e                	lw	a0,196(sp)
     652:	4eae                	lw	t4,200(sp)
     654:	4f62                	lw	t5,24(sp)
        BCa = Aba ^ Aga ^ Aka ^ Ama ^ Asa;
     656:	5fba                	lw	t6,172(sp)
     658:	42be                	lw	t0,204(sp)
        BCu = Abu ^ Agu ^ Aku ^ Amu ^ Asu;
     65a:	4852                	lw	a6,20(sp)
        BCi = Abi ^ Agi ^ Aki ^ Ami ^ Asi;
     65c:	460e                	lw	a2,192(sp)
     65e:	45ee                	lw	a1,216(sp)
        BCe = Abe ^ Age ^ Ake ^ Ame ^ Ase;
     660:	5cda                	lw	s9,180(sp)
        BCa = Aba ^ Aga ^ Aka ^ Ama ^ Asa;
     662:	50ca                	lw	ra,176(sp)
     664:	4c4e                	lw	s8,208(sp)
        BCe = Abe ^ Age ^ Ake ^ Ame ^ Ase;
     666:	5d6a                	lw	s10,184(sp)
        BCi = Abi ^ Agi ^ Aki ^ Ami ^ Asi;
     668:	00d74333          	xor	t1,a4,a3
        BCu = Abu ^ Agu ^ Aku ^ Amu ^ Asu;
     66c:	01054833          	xor	a6,a0,a6
        BCo = Abo ^ Ago ^ Ako ^ Amo ^ Aso;
     670:	4732                	lw	a4,12(sp)
        BCu = Abu ^ Agu ^ Aku ^ Amu ^ Asu;
     672:	01eec533          	xor	a0,t4,t5
        BCo = Abo ^ Ago ^ Ako ^ Amo ^ Aso;
     676:	46fe                	lw	a3,220(sp)
     678:	4f42                	lw	t5,16(sp)
        BCa = Aba ^ Aga ^ Aka ^ Ama ^ Asa;
     67a:	005fceb3          	xor	t4,t6,t0
        BCo = Abo ^ Ago ^ Ako ^ Amo ^ Aso;
     67e:	5f8e                	lw	t6,224(sp)
        BCu = Abu ^ Agu ^ Aku ^ Amu ^ Asu;
     680:	52be                	lw	t0,236(sp)
        BCi = Abi ^ Agi ^ Aki ^ Ami ^ Asi;
     682:	00b648b3          	xor	a7,a2,a1
        BCe = Abe ^ Age ^ Ake ^ Ame ^ Ase;
     686:	013cc5b3          	xor	a1,s9,s3
        BCa = Aba ^ Aga ^ Aka ^ Ama ^ Asa;
     68a:	5ca2                	lw	s9,40(sp)
     68c:	0180ce33          	xor	t3,ra,s8
        BCe = Abe ^ Age ^ Ake ^ Ame ^ Ase;
     690:	012d4633          	xor	a2,s10,s2
        BCu = Abu ^ Agu ^ Aku ^ Amu ^ Asu;
     694:	50ce                	lw	ra,240(sp)
        BCe = Abe ^ Age ^ Ake ^ Ame ^ Ase;
     696:	5d1e                	lw	s10,228(sp)
        BCo = Abo ^ Ago ^ Ako ^ Amo ^ Aso;
     698:	8eb9                	xor	a3,a3,a4
        BCu = Abu ^ Agu ^ Aku ^ Amu ^ Asu;
     69a:	00584833          	xor	a6,a6,t0
        BCo = Abo ^ Ago ^ Ako ^ Amo ^ Aso;
     69e:	01ff4733          	xor	a4,t5,t6
     6a2:	52c2                	lw	t0,48(sp)
        BCi = Abi ^ Agi ^ Aki ^ Ami ^ Asi;
     6a4:	5f62                	lw	t5,56(sp)
     6a6:	5ff2                	lw	t6,60(sp)
        BCa = Aba ^ Aga ^ Aka ^ Ama ^ Asa;
     6a8:	5c12                	lw	s8,36(sp)
        BCo = Abo ^ Ago ^ Ako ^ Amo ^ Aso;
     6aa:	53d2                	lw	t2,52(sp)
        BCi = Abi ^ Agi ^ Aki ^ Ami ^ Asi;
     6ac:	01534333          	xor	t1,t1,s5
     6b0:	0148c8b3          	xor	a7,a7,s4
        BCa = Aba ^ Aga ^ Aka ^ Ama ^ Asa;
     6b4:	019e4e33          	xor	t3,t3,s9
        BCu = Abu ^ Agu ^ Aku ^ Amu ^ Asu;
     6b8:	4c86                	lw	s9,64(sp)
        BCe = Abe ^ Age ^ Ake ^ Ame ^ Ase;
     6ba:	5dae                	lw	s11,232(sp)
        BCu = Abu ^ Agu ^ Aku ^ Amu ^ Asu;
     6bc:	00154533          	xor	a0,a0,ra
        BCe = Abe ^ Age ^ Ake ^ Ame ^ Ase;
     6c0:	01a5c5b3          	xor	a1,a1,s10
        BCu = Abu ^ Agu ^ Aku ^ Amu ^ Asu;
     6c4:	50b2                	lw	ra,44(sp)
        BCi = Abi ^ Agi ^ Aki ^ Ami ^ Asi;
     6c6:	4d26                	lw	s10,72(sp)
     6c8:	01e34333          	xor	t1,t1,t5
     6cc:	01f8c8b3          	xor	a7,a7,t6
     6d0:	4f36                	lw	t5,76(sp)
        BCo = Abo ^ Ago ^ Ako ^ Amo ^ Aso;
     6d2:	0056c6b3          	xor	a3,a3,t0
        BCu = Abu ^ Agu ^ Aku ^ Amu ^ Asu;
     6d6:	4fd6                	lw	t6,84(sp)
        BCa = Aba ^ Aga ^ Aka ^ Ama ^ Asa;
     6d8:	52de                	lw	t0,244(sp)
     6da:	018eceb3          	xor	t4,t4,s8
        BCo = Abo ^ Ago ^ Ako ^ Amo ^ Aso;
     6de:	00774733          	xor	a4,a4,t2
        BCu = Abu ^ Agu ^ Aku ^ Amu ^ Asu;
     6e2:	01954533          	xor	a0,a0,s9
        BCa = Aba ^ Aga ^ Aka ^ Ama ^ Asa;
     6e6:	53ee                	lw	t2,248(sp)
        BCo = Abo ^ Ago ^ Ako ^ Amo ^ Aso;
     6e8:	5c82                	lw	s9,32(sp)
        BCi = Abi ^ Agi ^ Aki ^ Ami ^ Asi;
     6ea:	01a34333          	xor	t1,t1,s10
        BCe = Abe ^ Age ^ Ake ^ Ame ^ Ase;
     6ee:	01b64633          	xor	a2,a2,s11
        BCa = Aba ^ Aga ^ Aka ^ Ama ^ Asa;
     6f2:	4d16                	lw	s10,68(sp)
     6f4:	4dc6                	lw	s11,80(sp)
        BCu = Abu ^ Agu ^ Aku ^ Amu ^ Asu;
     6f6:	00184833          	xor	a6,a6,ra
        BCa = Aba ^ Aga ^ Aka ^ Ama ^ Asa;
     6fa:	005eceb3          	xor	t4,t4,t0
        BCe = Abe ^ Age ^ Ake ^ Ame ^ Ase;
     6fe:	40f2                	lw	ra,28(sp)
        BCo = Abo ^ Ago ^ Ako ^ Amo ^ Aso;
     700:	5296                	lw	t0,100(sp)
        BCi = Abi ^ Agi ^ Aki ^ Ami ^ Asi;
     702:	01e8c8b3          	xor	a7,a7,t5
        BCu = Abu ^ Agu ^ Aku ^ Amu ^ Asu;
     706:	01f84833          	xor	a6,a6,t6
     70a:	47e6                	lw	a5,88(sp)
        BCe = Abe ^ Age ^ Ake ^ Ame ^ Ase;
     70c:	5f46                	lw	t5,112(sp)
     70e:	5fd6                	lw	t6,116(sp)
        BCa = Aba ^ Aga ^ Aka ^ Ama ^ Asa;
     710:	007e4e33          	xor	t3,t3,t2
        BCo = Abo ^ Ago ^ Ako ^ Amo ^ Aso;
     714:	0196c6b3          	xor	a3,a3,s9
        BCa = Aba ^ Aga ^ Aka ^ Ama ^ Asa;
     718:	01aeceb3          	xor	t4,t4,s10
        BCo = Abo ^ Ago ^ Ako ^ Amo ^ Aso;
     71c:	0056c6b3          	xor	a3,a3,t0
        BCa = Aba ^ Aga ^ Aka ^ Ama ^ Asa;
     720:	01be4e33          	xor	t3,t3,s11
        BCo = Abo ^ Ago ^ Ako ^ Amo ^ Aso;
     724:	53a6                	lw	t2,104(sp)
        De = BCa ^ ROL(BCi, 1);
     726:	00131293          	slli	t0,t1,0x1
        BCe = Abe ^ Age ^ Ake ^ Ame ^ Ase;
     72a:	0165c5b3          	xor	a1,a1,s6
     72e:	00164633          	xor	a2,a2,ra
        De = BCa ^ ROL(BCi, 1);
     732:	01f8dd93          	srli	s11,a7,0x1f
        BCu = Abu ^ Agu ^ Aku ^ Amu ^ Asu;
     736:	8d3d                	xor	a0,a0,a5
        BCe = Abe ^ Age ^ Ake ^ Ame ^ Ase;
     738:	01e5c5b3          	xor	a1,a1,t5
     73c:	01f64633          	xor	a2,a2,t6
        Du = BCo ^ ROL(BCa, 1);
     740:	01fed793          	srli	a5,t4,0x1f
        De = BCa ^ ROL(BCi, 1);
     744:	005dedb3          	or	s11,s11,t0
     748:	01ddcdb3          	xor	s11,s11,t4
        Du = BCo ^ ROL(BCa, 1);
     74c:	cebe                	sw	a5,92(sp)
        BCo = Abo ^ Ago ^ Ako ^ Amo ^ Aso;
     74e:	01774733          	xor	a4,a4,s7
        Du = BCo ^ ROL(BCa, 1);
     752:	001e9793          	slli	a5,t4,0x1
        Da = BCu ^ ROL(BCe, 1);
     756:	01f5d093          	srli	ra,a1,0x1f
     75a:	00161e93          	slli	t4,a2,0x1
        BCo = Abo ^ Ago ^ Ako ^ Amo ^ Aso;
     75e:	00774733          	xor	a4,a4,t2
        Da = BCu ^ ROL(BCe, 1);
     762:	01d0e0b3          	or	ra,ra,t4
        De = BCa ^ ROL(BCi, 1);
     766:	00189393          	slli	t2,a7,0x1
        Da = BCu ^ ROL(BCe, 1);
     76a:	01f65e93          	srli	t4,a2,0x1f
        De = BCa ^ ROL(BCi, 1);
     76e:	01f35d13          	srli	s10,t1,0x1f
        Da = BCu ^ ROL(BCe, 1);
     772:	00159493          	slli	s1,a1,0x1
        Do = BCi ^ ROL(BCu, 1);
     776:	00151f93          	slli	t6,a0,0x1
        De = BCa ^ ROL(BCi, 1);
     77a:	007d6d33          	or	s10,s10,t2
        Du = BCo ^ ROL(BCa, 1);
     77e:	d0be                	sw	a5,96(sp)
        Da = BCu ^ ROL(BCe, 1);
     780:	009ee4b3          	or	s1,t4,s1
        Di = BCe ^ ROL(BCo, 1);
     784:	00169793          	slli	a5,a3,0x1
     788:	01f6de93          	srli	t4,a3,0x1f
        Do = BCi ^ ROL(BCu, 1);
     78c:	01f85c13          	srli	s8,a6,0x1f
        Di = BCe ^ ROL(BCo, 1);
     790:	00171293          	slli	t0,a4,0x1
     794:	01f75393          	srli	t2,a4,0x1f
        Do = BCi ^ ROL(BCu, 1);
     798:	01fc6c33          	or	s8,s8,t6
        Di = BCe ^ ROL(BCo, 1);
     79c:	005ee2b3          	or	t0,t4,t0
     7a0:	00f3e3b3          	or	t2,t2,a5
        Du = BCo ^ ROL(BCa, 1);
     7a4:	47f6                	lw	a5,92(sp)
        Do = BCi ^ ROL(BCu, 1);
     7a6:	011c48b3          	xor	a7,s8,a7
        Di = BCe ^ ROL(BCo, 1);
     7aa:	00c2c633          	xor	a2,t0,a2
        Do = BCi ^ ROL(BCu, 1);
     7ae:	00181f13          	slli	t5,a6,0x1
     7b2:	01f55c93          	srli	s9,a0,0x1f
        Da = BCu ^ ROL(BCe, 1);
     7b6:	0104c833          	xor	a6,s1,a6
        Do = BCi ^ ROL(BCu, 1);
     7ba:	01ececb3          	or	s9,s9,t5
        Amo ^= Do;
     7be:	0178c4b3          	xor	s1,a7,s7
        Aki ^= Di;
     7c2:	01464a33          	xor	s4,a2,s4
     7c6:	8bb2                	mv	s7,a2
        Du = BCo ^ ROL(BCa, 1);
     7c8:	001e1f13          	slli	t5,t3,0x1
        Abo ^= Do;
     7cc:	4632                	lw	a2,12(sp)
        Du = BCo ^ ROL(BCa, 1);
     7ce:	01e7ef33          	or	t5,a5,t5
     7d2:	5786                	lw	a5,96(sp)
        Do = BCi ^ ROL(BCu, 1);
     7d4:	006cc333          	xor	t1,s9,t1
        Ame ^= De;
     7d8:	4ef2                	lw	t4,28(sp)
        Du = BCo ^ ROL(BCa, 1);
     7da:	01fe5f93          	srli	t6,t3,0x1f
        De = BCa ^ ROL(BCi, 1);
     7de:	01cd4e33          	xor	t3,s10,t3
        Du = BCo ^ ROL(BCa, 1);
     7e2:	00ef4d33          	xor	s10,t5,a4
        Amo ^= Do;
     7e6:	5702                	lw	a4,32(sp)
        Abo ^= Do;
     7e8:	00c34f33          	xor	t5,t1,a2
        Aka ^= Da;
     7ec:	5c12                	lw	s8,36(sp)
        Abo ^= Do;
     7ee:	4642                	lw	a2,16(sp)
        Du = BCo ^ ROL(BCa, 1);
     7f0:	00ffefb3          	or	t6,t6,a5
     7f4:	00dfccb3          	xor	s9,t6,a3
        Da = BCu ^ ROL(BCe, 1);
     7f8:	00a0c533          	xor	a0,ra,a0
        Age ^= De;
     7fc:	86f2                	mv	a3,t3
        Amo ^= Do;
     7fe:	00e340b3          	xor	ra,t1,a4
        Age ^= De;
     802:	012e4933          	xor	s2,t3,s2
        Ame ^= De;
     806:	01de4733          	xor	a4,t3,t4
        Asu ^= Du;
     80a:	4e56                	lw	t3,84(sp)
        Di = BCe ^ ROL(BCo, 1);
     80c:	00b3c5b3          	xor	a1,t2,a1
        Abo ^= Do;
     810:	00c8cfb3          	xor	t6,a7,a2
        Ame ^= De;
     814:	016dc3b3          	xor	t2,s11,s6
        Abo ^= Do;
     818:	d046                	sw	a7,32(sp)
        Agu ^= Du;
     81a:	4b62                	lw	s6,24(sp)
        Aka ^= Da;
     81c:	018848b3          	xor	a7,a6,s8
     820:	5c22                	lw	s8,40(sp)
        Asu ^= Du;
     822:	01ccc2b3          	xor	t0,s9,t3
        Abo ^= Do;
     826:	ce1a                	sw	t1,28(sp)
        Agu ^= Du;
     828:	4e52                	lw	t3,20(sp)
        Aka ^= Da;
     82a:	c642                	sw	a6,12(sp)
     82c:	c82a                	sw	a0,16(sp)
        Asi ^= Di;
     82e:	ca2e                	sw	a1,20(sp)
        Agu ^= Du;
     830:	016d4eb3          	xor	t4,s10,s6
        Aka ^= Da;
     834:	01854333          	xor	t1,a0,s8
        Asu ^= Du;
     838:	47e6                	lw	a5,88(sp)
        Asi ^= Di;
     83a:	4c26                	lw	s8,72(sp)
     83c:	cc5e                	sw	s7,24(sp)
     83e:	4636                	lw	a2,76(sp)
        Abe ^= De;
     840:	5b5a                	lw	s6,180(sp)
        Asi ^= Di;
     842:	0185c833          	xor	a6,a1,s8
     846:	00cbc533          	xor	a0,s7,a2
        Abe ^= De;
     84a:	016dc633          	xor	a2,s11,s6
     84e:	5b6a                	lw	s6,184(sp)
        Aki ^= Di;
     850:	0155cab3          	xor	s5,a1,s5
        Age ^= De;
     854:	013dc9b3          	xor	s3,s11,s3
        Abe ^= De;
     858:	0166c5b3          	xor	a1,a3,s6
        Amu ^= Du;
     85c:	5b32                	lw	s6,44(sp)
        Abe ^= De;
     85e:	deb6                	sw	a3,124(sp)
        Asu ^= Du;
     860:	00fd47b3          	xor	a5,s10,a5
        Amu ^= Du;
     864:	016ccb33          	xor	s6,s9,s6
     868:	ceda                	sw	s6,92(sp)
     86a:	4b06                	lw	s6,64(sp)
        Agu ^= Du;
     86c:	01ccce33          	xor	t3,s9,t3
        BCo = ROL(Amo, 21);
     870:	01549c13          	slli	s8,s1,0x15
        Amu ^= Du;
     874:	016d46b3          	xor	a3,s10,s6
        BCe = ROL(Age, 44);
     878:	00c91b13          	slli	s6,s2,0xc
        BCo = ROL(Ame, 45);
     87c:	00d71b93          	slli	s7,a4,0xd
        Abe ^= De;
     880:	dcee                	sw	s11,120(sp)
        Amu ^= Du;
     882:	c166                	sw	s9,128(sp)
        BCe = ROL(Age, 44);
     884:	8dda                	mv	s11,s6
        BCo = ROL(Amo, 21);
     886:	00b0dc93          	srli	s9,ra,0xb
        BCo = ROL(Ame, 45);
     88a:	0133db13          	srli	s6,t2,0x13
        Amu ^= Du;
     88e:	c36a                	sw	s10,132(sp)
        BCo = ROL(Amo, 21);
     890:	00d6                	slli	ra,ra,0x15
        BCe = ROL(Age, 44);
     892:	0149dd13          	srli	s10,s3,0x14
     896:	01495913          	srli	s2,s2,0x14
     89a:	09b2                	slli	s3,s3,0xc
        BCo = ROL(Amo, 21);
     89c:	80ad                	srli	s1,s1,0xb
        BCe = ROL(Age, 44);
     89e:	0129e933          	or	s2,s3,s2
        BCo = ROL(Amo, 21);
     8a2:	0014e4b3          	or	s1,s1,ra
     8a6:	018ce9b3          	or	s3,s9,s8
        BCo = ROL(Ame, 45);
     8aa:	016be0b3          	or	ra,s7,s6
        Agi ^= Di;
     8ae:	4c62                	lw	s8,24(sp)
     8b0:	4bee                	lw	s7,216(sp)
        BCo = ROL(Ame, 45);
     8b2:	834d                	srli	a4,a4,0x13
     8b4:	03b6                	slli	t2,t2,0xd
     8b6:	00e3e3b3          	or	t2,t2,a4
        BCo = ROL(Amo, 21);
     8ba:	d64e                	sw	s3,44(sp)
        Ako ^= Do;
     8bc:	4772                	lw	a4,28(sp)
        Agi ^= Di;
     8be:	017c49b3          	xor	s3,s8,s7
        Ako ^= Do;
     8c2:	5bc2                	lw	s7,48(sp)
        BCe = ROL(Age, 44);
     8c4:	c74a                	sw	s2,140(sp)
        BCo = ROL(Amo, 21);
     8c6:	d426                	sw	s1,40(sp)
        Ako ^= Do;
     8c8:	01774933          	xor	s2,a4,s7
     8cc:	5482                	lw	s1,32(sp)
     8ce:	5bd2                	lw	s7,52(sp)
        BCo = ROL(Ame, 45);
     8d0:	c486                	sw	ra,72(sp)
        Asa ^= Da;
     8d2:	40b2                	lw	ra,12(sp)
        Ako ^= Do;
     8d4:	0174c733          	xor	a4,s1,s7
        Asa ^= Da;
     8d8:	4b96                	lw	s7,68(sp)
        Ako ^= Do;
     8da:	d6ca                	sw	s2,108(sp)
        Asa ^= Da;
     8dc:	4942                	lw	s2,16(sp)
     8de:	0170cbb3          	xor	s7,ra,s7
     8e2:	cf5e                	sw	s7,156(sp)
     8e4:	4bc6                	lw	s7,80(sp)
        Agi ^= Di;
     8e6:	4b52                	lw	s6,20(sp)
        BCe = ROL(Age, 44);
     8e8:	01aded33          	or	s10,s11,s10
        Agi ^= Di;
     8ec:	4dde                	lw	s11,212(sp)
        Asa ^= Da;
     8ee:	01794bb3          	xor	s7,s2,s7
        BCe = ROL(Age, 44);
     8f2:	c56a                	sw	s10,136(sp)
        BCo = ROL(Ame, 45);
     8f4:	c69e                	sw	t2,76(sp)
        Ako ^= Do;
     8f6:	cb3a                	sw	a4,148(sp)
        Agi ^= Di;
     8f8:	01bb43b3          	xor	t2,s6,s11
        Asa ^= Da;
     8fc:	d35e                	sw	s7,164(sp)
        Ami ^= Di;
     8fe:	5be2                	lw	s7,56(sp)
     900:	5df2                	lw	s11,60(sp)
        BCi = ROL(Aki, 43);
     902:	00ba1913          	slli	s2,s4,0xb
        Ami ^= Di;
     906:	017b4bb3          	xor	s7,s6,s7
     90a:	01bc4db3          	xor	s11,s8,s11
        BCu = ROL(Asu, 14);
     90e:	00e79b13          	slli	s6,a5,0xe
     912:	83c9                	srli	a5,a5,0x12
     914:	de3e                	sw	a5,60(sp)
        Ami ^= Di;
     916:	d56e                	sw	s11,168(sp)
        BCe = ROL(Agu, 20);
     918:	014e9793          	slli	a5,t4,0x14
        BCo = ROL(Amu, 8);
     91c:	4df6                	lw	s11,92(sp)
        BCe = ROL(Agu, 20);
     91e:	c0be                	sw	a5,64(sp)
        BCi = ROL(Aki, 43);
     920:	015adc93          	srli	s9,s5,0x15
        BCu = ROL(Asu, 14);
     924:	0122d713          	srli	a4,t0,0x12
        BCu = ROL(Asi, 61);
     928:	01d51793          	slli	a5,a0,0x1d
        BCi = ROL(Aki, 43);
     92c:	d24a                	sw	s2,36(sp)
     92e:	d866                	sw	s9,48(sp)
        BCu = ROL(Asu, 14);
     930:	da3a                	sw	a4,52(sp)
        BCu = ROL(Asi, 61);
     932:	cabe                	sw	a5,84(sp)
     934:	00385713          	srli	a4,a6,0x3
        BCo = ROL(Amu, 8);
     938:	00869793          	slli	a5,a3,0x8
        BCu = ROL(Asi, 61);
     93c:	ccba                	sw	a4,88(sp)
        BCo = ROL(Amu, 8);
     93e:	018dd093          	srli	ra,s11,0x18
     942:	cebe                	sw	a5,92(sp)
     944:	008d9713          	slli	a4,s11,0x8
        BCi = ROL(Aki, 43);
     948:	57c2                	lw	a5,48(sp)
     94a:	5d92                	lw	s11,36(sp)
        BCu = ROL(Asu, 14);
     94c:	dc5a                	sw	s6,56(sp)
        BCi = ROL(Aki, 43);
     94e:	0aae                	slli	s5,s5,0xb
     950:	00fdedb3          	or	s11,s11,a5
     954:	015a5a13          	srli	s4,s4,0x15
        BCu = ROL(Asu, 14);
     958:	57d2                	lw	a5,52(sp)
        BCi = ROL(Aki, 43);
     95a:	d26e                	sw	s11,36(sp)
     95c:	014aedb3          	or	s11,s5,s4
        BCu = ROL(Asu, 14);
     960:	5a62                	lw	s4,56(sp)
        BCa = ROL(Abo, 28);
     962:	004f5d13          	srli	s10,t5,0x4
     966:	01cf9c93          	slli	s9,t6,0x1c
        BCi = ROL(Aka, 3);
     96a:	00331913          	slli	s2,t1,0x3
     96e:	c8ca                	sw	s2,80(sp)
        BCu = ROL(Asu, 14);
     970:	0147eab3          	or	s5,a5,s4
        BCa = ROL(Abo, 28);
     974:	019d6a33          	or	s4,s10,s9
        BCu = ROL(Asu, 14);
     978:	57f2                	lw	a5,60(sp)
        BCa = ROL(Abo, 28);
     97a:	de52                	sw	s4,60(sp)
        BCi = ROL(Aka, 3);
     97c:	4a46                	lw	s4,80(sp)
        BCu = ROL(Asu, 14);
     97e:	02ba                	slli	t0,t0,0xe
        BCi = ROL(Aka, 3);
     980:	01d8db13          	srli	s6,a7,0x1d
     984:	01d35313          	srli	t1,t1,0x1d
     988:	088e                	slli	a7,a7,0x3
        BCu = ROL(Asu, 14);
     98a:	0057e7b3          	or	a5,a5,t0
        BCi = ROL(Aka, 3);
     98e:	01136333          	or	t1,t1,a7
     992:	014b6b33          	or	s6,s6,s4
        BCu = ROL(Asu, 14);
     996:	d83e                	sw	a5,48(sp)
        BCu = ROL(Asi, 61);
     998:	4a66                	lw	s4,88(sp)
        BCe = ROL(Agu, 20);
     99a:	4786                	lw	a5,64(sp)
        BCi = ROL(Aka, 3);
     99c:	cd1a                	sw	t1,152(sp)
        BCu = ROL(Asi, 61);
     99e:	4356                	lw	t1,84(sp)
        BCe = ROL(Agu, 20);
     9a0:	00ce5c13          	srli	s8,t3,0xc
        BCa = ROL(Abo, 28);
     9a4:	004fdf93          	srli	t6,t6,0x4
        BCe = ROL(Agu, 20);
     9a8:	0e52                	slli	t3,t3,0x14
        BCa = ROL(Abo, 28);
     9aa:	0f72                	slli	t5,t5,0x1c
        BCe = ROL(Agu, 20);
     9ac:	00cede93          	srli	t4,t4,0xc
        BCa = ROL(Abe, 1);
     9b0:	01f65913          	srli	s2,a2,0x1f
     9b4:	00159493          	slli	s1,a1,0x1
        BCa = ROL(Abo, 28);
     9b8:	01efef33          	or	t5,t6,t5
        BCe = ROL(Agu, 20);
     9bc:	00fc67b3          	or	a5,s8,a5
     9c0:	01ceeeb3          	or	t4,t4,t3
        BCu = ROL(Asi, 61);
     9c4:	0876                	slli	a6,a6,0x1d
     9c6:	01436e33          	or	t3,t1,s4
        BCa = ROL(Abe, 1);
     9ca:	0606                	slli	a2,a2,0x1
        BCu = ROL(Asi, 61);
     9cc:	810d                	srli	a0,a0,0x3
        BCa = ROL(Abe, 1);
     9ce:	81fd                	srli	a1,a1,0x1f
        BCu = ROL(Asi, 61);
     9d0:	00a86533          	or	a0,a6,a0
        BCa = ROL(Abe, 1);
     9d4:	8dd1                	or	a1,a1,a2
        BCu = ROL(Asu, 14);
     9d6:	da56                	sw	s5,52(sp)
        BCa = ROL(Abo, 28);
     9d8:	dc7a                	sw	t5,56(sp)
        BCe = ROL(Agu, 20);
     9da:	c2be                	sw	a5,68(sp)
     9dc:	c0f6                	sw	t4,64(sp)
        BCu = ROL(Asi, 61);
     9de:	c8f2                	sw	t3,80(sp)
     9e0:	caaa                	sw	a0,84(sp)
        Abu ^= Du;
     9e2:	4c8a                	lw	s9,128(sp)
        BCa = ROL(Abe, 1);
     9e4:	ccae                	sw	a1,88(sp)
        Abu ^= Du;
     9e6:	459e                	lw	a1,196(sp)
        BCo = ROL(Amu, 8);
     9e8:	47f6                	lw	a5,92(sp)
        Abu ^= Du;
     9ea:	4d1a                	lw	s10,132(sp)
     9ec:	00bccc33          	xor	s8,s9,a1
     9f0:	45ae                	lw	a1,200(sp)
        Aga ^= Da;
     9f2:	4832                	lw	a6,12(sp)
        BCo = ROL(Amu, 8);
     9f4:	00f0e633          	or	a2,ra,a5
        Abu ^= Du;
     9f8:	00bd47b3          	xor	a5,s10,a1
        Aga ^= Da;
     9fc:	45be                	lw	a1,204(sp)
        BCo = ROL(Amu, 8);
     9fe:	d0b2                	sw	a2,96(sp)
        Aga ^= Da;
     a00:	4642                	lw	a2,16(sp)
     a02:	00b84cb3          	xor	s9,a6,a1
     a06:	45ce                	lw	a1,208(sp)
        Ake ^= De;
     a08:	58e6                	lw	a7,120(sp)
        BCa = ROL(Abe, 1);
     a0a:	00996eb3          	or	t4,s2,s1
        Aga ^= Da;
     a0e:	00b64d33          	xor	s10,a2,a1
        Ake ^= De;
     a12:	559e                	lw	a1,228(sp)
        BCo = ROL(Amu, 8);
     a14:	82e1                	srli	a3,a3,0x18
     a16:	8f55                	or	a4,a4,a3
        BCa = ROL(Abe, 1);
     a18:	d176                	sw	t4,160(sp)
        Ake ^= De;
     a1a:	56f6                	lw	a3,124(sp)
     a1c:	00b8ceb3          	xor	t4,a7,a1
     a20:	55ae                	lw	a1,232(sp)
        Egi = BCi ^ ((~BCo) & BCu);
     a22:	4aa6                	lw	s5,72(sp)
        Aso ^= Do;
     a24:	5516                	lw	a0,100(sp)
        Ake ^= De;
     a26:	00b6cf33          	xor	t5,a3,a1
        Ama ^= Da;
     a2a:	55de                	lw	a1,244(sp)
        Eba = BCa ^ ((~BCe) & BCi);
     a2c:	493a                	lw	s2,140(sp)
        Ebi = BCi ^ ((~BCo) & BCu);
     a2e:	5e32                	lw	t3,44(sp)
        Ama ^= Da;
     a30:	00b84a33          	xor	s4,a6,a1
     a34:	55ee                	lw	a1,248(sp)
        Aso ^= Do;
     a36:	4372                	lw	t1,28(sp)
        BCo = ROL(Amu, 8);
     a38:	ceba                	sw	a4,92(sp)
        Ama ^= Da;
     a3a:	c9d2                	sw	s4,208(sp)
        Eba = BCa ^ ((~BCe) & BCi);
     a3c:	472a                	lw	a4,136(sp)
        Ebi = BCi ^ ((~BCo) & BCu);
     a3e:	5a22                	lw	s4,40(sp)
        Ama ^= Da;
     a40:	8db1                	xor	a1,a1,a2
        Egi = BCi ^ ((~BCo) & BCu);
     a42:	fffac813          	not	a6,s5
        Aso ^= Do;
     a46:	5482                	lw	s1,32(sp)
     a48:	00a34333          	xor	t1,t1,a0
        Ama ^= Da;
     a4c:	c92e                	sw	a1,144(sp)
        Aso ^= Do;
     a4e:	5526                	lw	a0,104(sp)
        Eba = BCa ^ ((~BCe) & BCi);
     a50:	fff74593          	not	a1,a4
     a54:	fff94613          	not	a2,s2
        Ebi = BCi ^ ((~BCo) & BCu);
     a58:	fffa4693          	not	a3,s4
        BCe = ROL(Agi, 6);
     a5c:	01a3d913          	srli	s2,t2,0x1a
     a60:	00639a13          	slli	s4,t2,0x6
        Ebi = BCi ^ ((~BCo) & BCu);
     a64:	fffe4713          	not	a4,t3
        Egi = BCi ^ ((~BCo) & BCu);
     a68:	c7c2                	sw	a6,204(sp)
     a6a:	4e36                	lw	t3,76(sp)
        BCi = ROL(Ako, 25);
     a6c:	53b6                	lw	t2,108(sp)
     a6e:	4ada                	lw	s5,148(sp)
        Egi = BCi ^ ((~BCo) & BCu);
     a70:	fffe4813          	not	a6,t3
        BCi = ROL(Ako, 25);
     a74:	0073d093          	srli	ra,t2,0x7
     a78:	019a9e13          	slli	t3,s5,0x19
     a7c:	d2f2                	sw	t3,100(sp)
        BCu = ROL(Asa, 18);
     a7e:	5e1a                	lw	t3,164(sp)
        BCi = ROL(Ako, 25);
     a80:	01939293          	slli	t0,t2,0x19
        BCu = ROL(Asa, 18);
     a84:	43fa                	lw	t2,156(sp)
     a86:	012e1893          	slli	a7,t3,0x12
     a8a:	d4c6                	sw	a7,104(sp)
     a8c:	00e3df93          	srli	t6,t2,0xe
     a90:	00ee5893          	srli	a7,t3,0xe
     a94:	01239e13          	slli	t3,t2,0x12
        BCo = ROL(Ami, 15);
     a98:	53aa                	lw	t2,168(sp)
        BCu = ROL(Asa, 18);
     a9a:	d6c6                	sw	a7,108(sp)
        BCo = ROL(Ami, 15);
     a9c:	011bd893          	srli	a7,s7,0x11
     aa0:	cb46                	sw	a7,148(sp)
     aa2:	0bbe                	slli	s7,s7,0xf
     aa4:	00f39893          	slli	a7,t2,0xf
     aa8:	0113d393          	srli	t2,t2,0x11
     aac:	d31e                	sw	t2,164(sp)
     aae:	d55e                	sw	s7,168(sp)
        Aba ^= Da;
     ab0:	53ba                	lw	t2,172(sp)
     ab2:	4bb2                	lw	s7,12(sp)
        BCo = ROL(Ami, 15);
     ab4:	cf46                	sw	a7,156(sp)
        BCu = ROL(Asa, 18);
     ab6:	58a6                	lw	a7,104(sp)
        Aso ^= Do;
     ab8:	8d25                	xor	a0,a0,s1
        Aba ^= Da;
     aba:	007bcbb3          	xor	s7,s7,t2
        BCe = ROL(Agi, 6);
     abe:	00699493          	slli	s1,s3,0x6
        Aba ^= Da;
     ac2:	53ca                	lw	t2,176(sp)
        BCe = ROL(Agi, 6);
     ac4:	009964b3          	or	s1,s2,s1
        Aba ^= Da;
     ac8:	d75e                	sw	s7,172(sp)
        BCu = ROL(Asa, 18);
     aca:	011fe933          	or	s2,t6,a7
        Aba ^= Da;
     ace:	4bc2                	lw	s7,16(sp)
        BCu = ROL(Asa, 18);
     ad0:	58b6                	lw	a7,108(sp)
        BCe = ROL(Agi, 6);
     ad2:	01a9d993          	srli	s3,s3,0x1a
     ad6:	0149e9b3          	or	s3,s3,s4
        Aba ^= Da;
     ada:	007bcbb3          	xor	s7,s7,t2
        BCu = ROL(Asa, 18);
     ade:	01c8ee33          	or	t3,a7,t3
        BCi = ROL(Ako, 25);
     ae2:	5396                	lw	t2,100(sp)
        BCo = ROL(Ami, 15);
     ae4:	48da                	lw	a7,148(sp)
        BCe = ROL(Agi, 6);
     ae6:	c64e                	sw	s3,12(sp)
        BCo = ROL(Ami, 15);
     ae8:	49fa                	lw	s3,156(sp)
        BCi = ROL(Ako, 25);
     aea:	0070e3b3          	or	t2,ra,t2
        BCe = ROL(Agi, 6);
     aee:	c826                	sw	s1,16(sp)
        BCo = ROL(Ami, 15);
     af0:	0138e9b3          	or	s3,a7,s3
        Abi ^= Di;
     af4:	54fa                	lw	s1,188(sp)
        BCo = ROL(Ami, 15);
     af6:	589a                	lw	a7,164(sp)
        Abi ^= Di;
     af8:	40d2                	lw	ra,20(sp)
        BCu = ROL(Asa, 18);
     afa:	d2ca                	sw	s2,100(sp)
        BCo = ROL(Ami, 15);
     afc:	592a                	lw	s2,168(sp)
     afe:	d6ce                	sw	s3,108(sp)
        Abi ^= Di;
     b00:	0090c9b3          	xor	s3,ra,s1
        BCo = ROL(Ami, 15);
     b04:	0128e933          	or	s2,a7,s2
     b08:	d4ca                	sw	s2,104(sp)
        Abi ^= Di;
     b0a:	11312c23          	sw	s3,280(sp)
     b0e:	40e2                	lw	ra,24(sp)
     b10:	448e                	lw	s1,192(sp)
        BCi = ROL(Ako, 25);
     b12:	007ada93          	srli	s5,s5,0x7
     b16:	005aeab3          	or	s5,s5,t0
        Abi ^= Di;
     b1a:	0090c0b3          	xor	ra,ra,s1
        Ago ^= Do;
     b1e:	42f2                	lw	t0,28(sp)
     b20:	44fe                	lw	s1,220(sp)
        Ase ^= De;
     b22:	58e6                	lw	a7,120(sp)
     b24:	5ff6                	lw	t6,124(sp)
        Ago ^= Do;
     b26:	0092c933          	xor	s2,t0,s1
     b2a:	5282                	lw	t0,32(sp)
     b2c:	548e                	lw	s1,224(sp)
     b2e:	13212023          	sw	s2,288(sp)
        Abi ^= Di;
     b32:	10112e23          	sw	ra,284(sp)
        Ago ^= Do;
     b36:	0092c9b3          	xor	s3,t0,s1
        Aku ^= Du;
     b3a:	428a                	lw	t0,128(sp)
     b3c:	54be                	lw	s1,236(sp)
        Eba = BCa ^ ((~BCe) & BCi);
     b3e:	01b67633          	and	a2,a2,s11
        Ebe = BCe ^ ((~BCi) & BCo);
     b42:	cb6e                	sw	s11,148(sp)
        Aku ^= Du;
     b44:	0092c933          	xor	s2,t0,s1
     b48:	429a                	lw	t0,132(sp)
     b4a:	54ce                	lw	s1,240(sp)
        Eba ^= KeccakF_RoundConstants_sw[round];
     b4c:	01764633          	xor	a2,a2,s7
        Aku ^= Du;
     b50:	0092ca33          	xor	s4,t0,s1
        Ase ^= De;
     b54:	54c6                	lw	s1,112(sp)
        Ebi = BCi ^ ((~BCo) & BCu);
     b56:	52d2                	lw	t0,52(sp)
        Ase ^= De;
     b58:	0098c0b3          	xor	ra,a7,s1
     b5c:	54d6                	lw	s1,116(sp)
        Ebi = BCi ^ ((~BCo) & BCu);
     b5e:	00577733          	and	a4,a4,t0
        Ase ^= De;
     b62:	009fc4b3          	xor	s1,t6,s1
        Eba = BCa ^ ((~BCe) & BCi);
     b66:	5f92                	lw	t6,36(sp)
        Ase ^= De;
     b68:	12912223          	sw	s1,292(sp)
        Ebe = BCe ^ ((~BCi) & BCo);
     b6c:	fffdc493          	not	s1,s11
     b70:	ffffc893          	not	a7,t6
        Eba = BCa ^ ((~BCe) & BCi);
     b74:	01f5f5b3          	and	a1,a1,t6
        Ebi = BCi ^ ((~BCo) & BCu);
     b78:	5fc2                	lw	t6,48(sp)
        Ebe = BCe ^ ((~BCi) & BCo);
     b7a:	d926                	sw	s1,176(sp)
        Ebo = BCo ^ ((~BCu) & BCa);
     b7c:	fff2c493          	not	s1,t0
     b80:	ffffcd93          	not	s11,t6
        Ebi = BCi ^ ((~BCo) & BCu);
     b84:	01f6f6b3          	and	a3,a3,t6
        Ega = BCa ^ ((~BCe) & BCi);
     b88:	4286                	lw	t0,64(sp)
        Ege = BCe ^ ((~BCi) & BCo);
     b8a:	4fea                	lw	t6,152(sp)
        Ebo = BCo ^ ((~BCu) & BCa);
     b8c:	db6e                	sw	s11,180(sp)
        Ega = BCa ^ ((~BCe) & BCi);
     b8e:	4d96                	lw	s11,68(sp)
        Ebo = BCo ^ ((~BCu) & BCa);
     b90:	dd26                	sw	s1,184(sp)
        Ega = BCa ^ ((~BCe) & BCi);
     b92:	fff2c293          	not	t0,t0
     b96:	fffdc493          	not	s1,s11
        Ege = BCe ^ ((~BCi) & BCo);
     b9a:	ffffcf93          	not	t6,t6
     b9e:	fffb4d93          	not	s11,s6
        Ega = BCa ^ ((~BCe) & BCi);
     ba2:	df16                	sw	t0,188(sp)
     ba4:	c1a6                	sw	s1,192(sp)
        Ege = BCe ^ ((~BCi) & BCo);
     ba6:	c3fe                	sw	t6,196(sp)
        Egi = BCi ^ ((~BCo) & BCu);
     ba8:	44be                	lw	s1,204(sp)
        Ege = BCe ^ ((~BCi) & BCo);
     baa:	c5ee                	sw	s11,200(sp)
        Egi = BCi ^ ((~BCo) & BCu);
     bac:	4dc6                	lw	s11,80(sp)
     bae:	4fd6                	lw	t6,84(sp)
     bb0:	01b4f4b3          	and	s1,s1,s11
        Ego = BCo ^ ((~BCu) & BCa);
     bb4:	ffffc293          	not	t0,t6
     bb8:	d796                	sw	t0,236(sp)
        Egu = BCu ^ ((~BCa) & BCe);
     bba:	52e2                	lw	t0,56(sp)
        Egi = BCi ^ ((~BCo) & BCu);
     bbc:	cf26                	sw	s1,156(sp)
     bbe:	01f87833          	and	a6,a6,t6
        Egu = BCu ^ ((~BCa) & BCe);
     bc2:	fff2c493          	not	s1,t0
     bc6:	52f2                	lw	t0,60(sp)
     bc8:	d9a6                	sw	s1,240(sp)
        Eki = BCi ^ ((~BCo) & BCu);
     bca:	4ff6                	lw	t6,92(sp)
        Egu = BCu ^ ((~BCa) & BCe);
     bcc:	fff2c493          	not	s1,t0
        Eki = BCi ^ ((~BCo) & BCu);
     bd0:	5286                	lw	t0,96(sp)
        Egu = BCu ^ ((~BCa) & BCe);
     bd2:	dba6                	sw	s1,244(sp)
        Eki = BCi ^ ((~BCo) & BCu);
     bd4:	ffffcf93          	not	t6,t6
     bd8:	fff2c493          	not	s1,t0
        Eku = BCu ^ ((~BCa) & BCe);
     bdc:	42e6                	lw	t0,88(sp)
        Eki = BCi ^ ((~BCo) & BCu);
     bde:	ddfe                	sw	t6,248(sp)
     be0:	10912423          	sw	s1,264(sp)
        Eku = BCu ^ ((~BCa) & BCe);
     be4:	fff2cf93          	not	t6,t0
     be8:	528a                	lw	t0,160(sp)
        Egi = BCi ^ ((~BCo) & BCu);
     bea:	d342                	sw	a6,164(sp)
        BCe = ROL(Aga, 36);
     bec:	004d1813          	slli	a6,s10,0x4
        Eku = BCu ^ ((~BCa) & BCe);
     bf0:	fff2c493          	not	s1,t0
        BCi = ROL(Ake, 10);
     bf4:	016ed293          	srli	t0,t4,0x16
     bf8:	0eaa                	slli	t4,t4,0xa
     bfa:	daf6                	sw	t4,116(sp)
        BCu = ROL(Aso, 56);
     bfc:	00835e93          	srli	t4,t1,0x8
     c00:	0362                	slli	t1,t1,0x18
        Eku = BCu ^ ((~BCa) & BCe);
     c02:	10912a23          	sw	s1,276(sp)
        BCu = ROL(Aso, 56);
     c06:	dc9a                	sw	t1,120(sp)
        BCa = ROL(Abu, 27);
     c08:	005c5493          	srli	s1,s8,0x5
        BCo = ROL(Ama, 41);
     c0c:	434a                	lw	t1,144(sp)
        BCa = ROL(Abu, 27);
     c0e:	ca26                	sw	s1,20(sp)
        BCo = ROL(Ama, 41);
     c10:	44ce                	lw	s1,208(sp)
        BCe = ROL(Aga, 36);
     c12:	ce42                	sw	a6,28(sp)
        BCo = ROL(Ama, 41);
     c14:	0326                	slli	t1,t1,0x9
        BCe = ROL(Aga, 36);
     c16:	01ccd813          	srli	a6,s9,0x1c
     c1a:	d042                	sw	a6,32(sp)
        BCo = ROL(Ama, 41);
     c1c:	de9a                	sw	t1,124(sp)
     c1e:	00949813          	slli	a6,s1,0x9
     c22:	0174d313          	srli	t1,s1,0x17
     c26:	44ca                	lw	s1,144(sp)
        Eku = BCu ^ ((~BCa) & BCe);
     c28:	11f12823          	sw	t6,272(sp)
        BCa = ROL(Abu, 27);
     c2c:	01b79f93          	slli	t6,a5,0x1b
     c30:	cc7e                	sw	t6,24(sp)
        BCo = ROL(Ama, 41);
     c32:	c142                	sw	a6,128(sp)
     c34:	0174d813          	srli	a6,s1,0x17
     c38:	c342                	sw	a6,132(sp)
        BCa = ROL(Abu, 27);
     c3a:	44d2                	lw	s1,20(sp)
     c3c:	4862                	lw	a6,24(sp)
     c3e:	8395                	srli	a5,a5,0x5
        BCi = ROL(Ake, 10);
     c40:	00af1f93          	slli	t6,t5,0xa
        BCa = ROL(Abu, 27);
     c44:	0c6e                	slli	s8,s8,0x1b
        BCi = ROL(Ake, 10);
     c46:	016f5f13          	srli	t5,t5,0x16
        BCa = ROL(Abu, 27);
     c4a:	0104e4b3          	or	s1,s1,a6
     c4e:	0187ec33          	or	s8,a5,s8
        BCi = ROL(Ake, 10);
     c52:	d8fa                	sw	t5,112(sp)
        BCa = ROL(Abu, 27);
     c54:	ca26                	sw	s1,20(sp)
        BCe = ROL(Aga, 36);
     c56:	4872                	lw	a6,28(sp)
        BCa = ROL(Abu, 27);
     c58:	84e2                	mv	s1,s8
        BCe = ROL(Aga, 36);
     c5a:	5c02                	lw	s8,32(sp)
     c5c:	01cd5d13          	srli	s10,s10,0x1c
     c60:	0c92                	slli	s9,s9,0x4
     c62:	01886c33          	or	s8,a6,s8
     c66:	01acecb3          	or	s9,s9,s10
        BCi = ROL(Ake, 10);
     c6a:	5846                	lw	a6,112(sp)
     c6c:	5d56                	lw	s10,116(sp)
        Ebi = BCi ^ ((~BCo) & BCu);
     c6e:	5792                	lw	a5,36(sp)
        BCi = ROL(Ake, 10);
     c70:	01f2efb3          	or	t6,t0,t6
     c74:	01a862b3          	or	t0,a6,s10
        BCu = ROL(Aso, 56);
     c78:	5866                	lw	a6,120(sp)
     c7a:	01851f13          	slli	t5,a0,0x18
     c7e:	01df6d33          	or	s10,t5,t4
     c82:	8121                	srli	a0,a0,0x8
        Ebi = BCi ^ ((~BCo) & BCu);
     c84:	00f6cf33          	xor	t5,a3,a5
     c88:	47da                	lw	a5,148(sp)
        BCu = ROL(Aso, 56);
     c8a:	00a86533          	or	a0,a6,a0
        BCo = ROL(Ama, 41);
     c8e:	5876                	lw	a6,124(sp)
        Ebi = BCi ^ ((~BCo) & BCu);
     c90:	8fb9                	xor	a5,a5,a4
        BCo = ROL(Ama, 41);
     c92:	4e9a                	lw	t4,132(sp)
     c94:	00686333          	or	t1,a6,t1
        Ebi = BCi ^ ((~BCo) & BCu);
     c98:	cb3e                	sw	a5,148(sp)
        BCo = ROL(Ama, 41);
     c9a:	480a                	lw	a6,128(sp)
        Egi = BCi ^ ((~BCo) & BCu);
     c9c:	579a                	lw	a5,164(sp)
        BCu = ROL(Aso, 56);
     c9e:	d06a                	sw	s10,32(sp)
        BCo = ROL(Ama, 41);
     ca0:	01d86eb3          	or	t4,a6,t4
        Egi = BCi ^ ((~BCo) & BCu);
     ca4:	0167c833          	xor	a6,a5,s6
        Ebe = BCe ^ ((~BCi) & BCo);
     ca8:	57a2                	lw	a5,40(sp)
        Egi = BCi ^ ((~BCo) & BCu);
     caa:	4d7a                	lw	s10,156(sp)
     cac:	cf42                	sw	a6,156(sp)
        Ebe = BCe ^ ((~BCi) & BCo);
     cae:	00f8f833          	and	a6,a7,a5
     cb2:	58ca                	lw	a7,176(sp)
     cb4:	57b2                	lw	a5,44(sp)
        BCu = ROL(Aso, 56);
     cb6:	d8aa                	sw	a0,112(sp)
        BCo = ROL(Ama, 41);
     cb8:	c79a                	sw	t1,204(sp)
        Eba ^= KeccakF_RoundConstants_sw[round];
     cba:	553a                	lw	a0,172(sp)
        Egi = BCi ^ ((~BCo) & BCu);
     cbc:	436a                	lw	t1,152(sp)
        Eba ^= KeccakF_RoundConstants_sw[round];
     cbe:	d532                	sw	a2,168(sp)
        Ebe = BCe ^ ((~BCi) & BCo);
     cc0:	00f8f633          	and	a2,a7,a5
        Ebo = BCo ^ ((~BCu) & BCa);
     cc4:	58da                	lw	a7,180(sp)
        Egi = BCi ^ ((~BCo) & BCu);
     cc6:	006d4d33          	xor	s10,s10,t1
        Eba ^= KeccakF_RoundConstants_sw[round];
     cca:	8da9                	xor	a1,a1,a0
        BCe = ROL(Aga, 36);
     ccc:	cc62                	sw	s8,24(sp)
     cce:	ce66                	sw	s9,28(sp)
        BCo = ROL(Ama, 41);
     cd0:	c9f6                	sw	t4,208(sp)
        Ebi = BCi ^ ((~BCo) & BCu);
     cd2:	c97a                	sw	t5,144(sp)
        Egi = BCi ^ ((~BCo) & BCu);
     cd4:	cd6a                	sw	s10,152(sp)
        Eba ^= KeccakF_RoundConstants_sw[round];
     cd6:	d32e                	sw	a1,164(sp)
        Ebe = BCe ^ ((~BCi) & BCo);
     cd8:	d742                	sw	a6,172(sp)
        Ebo = BCo ^ ((~BCu) & BCa);
     cda:	00a8f5b3          	and	a1,a7,a0
        Ebe = BCe ^ ((~BCi) & BCo);
     cde:	d932                	sw	a2,176(sp)
        Ebo = BCo ^ ((~BCu) & BCa);
     ce0:	cbae                	sw	a1,212(sp)
     ce2:	58ea                	lw	a7,184(sp)
        Ebu = BCu ^ ((~BCa) & BCe);
     ce4:	fff54713          	not	a4,a0
        Ege = BCe ^ ((~BCi) & BCo);
     ce8:	4626                	lw	a2,72(sp)
        Ebo = BCo ^ ((~BCu) & BCa);
     cea:	0178fc33          	and	s8,a7,s7
        Ega = BCa ^ ((~BCe) & BCi);
     cee:	58fa                	lw	a7,188(sp)
        Ege = BCe ^ ((~BCi) & BCo);
     cf0:	45b6                	lw	a1,76(sp)
        Egu = BCu ^ ((~BCa) & BCe);
     cf2:	4e86                	lw	t4,64(sp)
        Ega = BCa ^ ((~BCe) & BCi);
     cf4:	0068f533          	and	a0,a7,t1
     cf8:	488e                	lw	a7,192(sp)
     cfa:	cfaa                	sw	a0,220(sp)
        Ego = BCo ^ ((~BCu) & BCa);
     cfc:	5f62                	lw	t5,56(sp)
        Ega = BCa ^ ((~BCe) & BCi);
     cfe:	0168fb33          	and	s6,a7,s6
        Ege = BCe ^ ((~BCi) & BCo);
     d02:	489e                	lw	a7,196(sp)
        Ega = BCa ^ ((~BCe) & BCi);
     d04:	d1da                	sw	s6,224(sp)
        Ego = BCo ^ ((~BCu) & BCa);
     d06:	fffdcd93          	not	s11,s11
        Ege = BCe ^ ((~BCi) & BCo);
     d0a:	00c8f6b3          	and	a3,a7,a2
     d0e:	48ae                	lw	a7,200(sp)
        Ego = BCo ^ ((~BCu) & BCa);
     d10:	01edfdb3          	and	s11,s11,t5
        Ebo = BCo ^ ((~BCu) & BCa);
     d14:	cde2                	sw	s8,216(sp)
        Ege = BCe ^ ((~BCi) & BCo);
     d16:	00b8f533          	and	a0,a7,a1
     d1a:	d5aa                	sw	a0,232(sp)
        Ego = BCo ^ ((~BCu) & BCa);
     d1c:	58be                	lw	a7,236(sp)
     d1e:	5572                	lw	a0,60(sp)
        Ebu = BCu ^ ((~BCa) & BCe);
     d20:	fffbc793          	not	a5,s7
        Ege = BCe ^ ((~BCi) & BCo);
     d24:	d3b6                	sw	a3,228(sp)
        Ego = BCo ^ ((~BCu) & BCa);
     d26:	00a8f833          	and	a6,a7,a0
        Egu = BCu ^ ((~BCa) & BCe);
     d2a:	58ce                	lw	a7,240(sp)
        Ego = BCo ^ ((~BCu) & BCa);
     d2c:	d7c2                	sw	a6,236(sp)
        Egu = BCu ^ ((~BCa) & BCe);
     d2e:	4816                	lw	a6,68(sp)
     d30:	01d8f333          	and	t1,a7,t4
     d34:	58de                	lw	a7,244(sp)
     d36:	d99a                	sw	t1,240(sp)
        Eki = BCi ^ ((~BCo) & BCu);
     d38:	5316                	lw	t1,100(sp)
        Egu = BCu ^ ((~BCa) & BCe);
     d3a:	0108fb33          	and	s6,a7,a6
        Eki = BCi ^ ((~BCo) & BCu);
     d3e:	58ee                	lw	a7,248(sp)
        Egu = BCu ^ ((~BCa) & BCe);
     d40:	dbda                	sw	s6,244(sp)
        Eka = BCa ^ ((~BCe) & BCi);
     d42:	4b32                	lw	s6,12(sp)
        Eki = BCi ^ ((~BCo) & BCu);
     d44:	01c8fd33          	and	s10,a7,t3
     d48:	10812883          	lw	a7,264(sp)
        Eka = BCa ^ ((~BCe) & BCi);
     d4c:	46c2                	lw	a3,16(sp)
        Eki = BCi ^ ((~BCo) & BCu);
     d4e:	ddea                	sw	s10,248(sp)
     d50:	0068feb3          	and	t4,a7,t1
        Eko = BCo ^ ((~BCu) & BCa);
     d54:	fffe4893          	not	a7,t3
     d58:	11112623          	sw	a7,268(sp)
        Eku = BCu ^ ((~BCa) & BCe);
     d5c:	11012883          	lw	a7,272(sp)
        Eki = BCi ^ ((~BCo) & BCu);
     d60:	11d12423          	sw	t4,264(sp)
        Eka = BCa ^ ((~BCe) & BCi);
     d64:	fff6c593          	not	a1,a3
        Eku = BCu ^ ((~BCa) & BCe);
     d68:	0168ff33          	and	t5,a7,s6
     d6c:	11e12823          	sw	t5,272(sp)
     d70:	11412883          	lw	a7,276(sp)
        Emi = BCi ^ ((~BCo) & BCu);
     d74:	5bb6                	lw	s7,108(sp)
        BCe = ROL(Ago, 55);
     d76:	01799c93          	slli	s9,s3,0x17
        Eku = BCu ^ ((~BCa) & BCe);
     d7a:	00d8f6b3          	and	a3,a7,a3
        Emi = BCi ^ ((~BCo) & BCu);
     d7e:	fffbcf13          	not	t5,s7
        BCa = ROL(Abi, 62);
     d82:	11c12b83          	lw	s7,284(sp)
        BCu = ROL(Ase, 2);
     d86:	12412883          	lw	a7,292(sp)
        Eku = BCu ^ ((~BCa) & BCe);
     d8a:	10d12a23          	sw	a3,276(sp)
        BCa = ROL(Abi, 62);
     d8e:	01eb9d13          	slli	s10,s7,0x1e
     d92:	11812683          	lw	a3,280(sp)
        BCe = ROL(Ago, 55);
     d96:	0099d993          	srli	s3,s3,0x9
        BCa = ROL(Abi, 62);
     d9a:	d26a                	sw	s10,36(sp)
        BCe = ROL(Ago, 55);
     d9c:	dece                	sw	s3,124(sp)
        Eka = BCa ^ ((~BCe) & BCi);
     d9e:	fffb4613          	not	a2,s6
        BCi = ROL(Aku, 39);
     da2:	00791993          	slli	s3,s2,0x7
     da6:	01995b13          	srli	s6,s2,0x19
        BCu = ROL(Ase, 2);
     daa:	00289913          	slli	s2,a7,0x2
     dae:	01e8d893          	srli	a7,a7,0x1e
     db2:	c346                	sw	a7,132(sp)
        BCa = ROL(Abi, 62);
     db4:	5892                	lw	a7,36(sp)
     db6:	0026dd13          	srli	s10,a3,0x2
     dba:	06fa                	slli	a3,a3,0x1e
     dbc:	dab6                	sw	a3,116(sp)
        Emi = BCi ^ ((~BCo) & BCu);
     dbe:	5c26                	lw	s8,104(sp)
        BCa = ROL(Abi, 62);
     dc0:	002bd693          	srli	a3,s7,0x2
        BCe = ROL(Ago, 55);
     dc4:	12012b83          	lw	s7,288(sp)
        BCa = ROL(Abi, 62);
     dc8:	01a8ed33          	or	s10,a7,s10
     dcc:	58d6                	lw	a7,116(sp)
        Emi = BCi ^ ((~BCo) & BCu);
     dce:	fffc4e93          	not	t4,s8
        BCe = ROL(Ago, 55);
     dd2:	009bdc13          	srli	s8,s7,0x9
     dd6:	0bde                	slli	s7,s7,0x17
     dd8:	dcde                	sw	s7,120(sp)
        BCa = ROL(Abi, 62);
     dda:	00d8e6b3          	or	a3,a7,a3
     dde:	dd36                	sw	a3,184(sp)
        BCe = ROL(Ago, 55);
     de0:	58f6                	lw	a7,124(sp)
     de2:	56e6                	lw	a3,120(sp)
        BCa = ROL(Abi, 62);
     de4:	db6a                	sw	s10,180(sp)
        BCi = ROL(Aku, 39);
     de6:	c14e                	sw	s3,128(sp)
        BCe = ROL(Ago, 55);
     de8:	0116ed33          	or	s10,a3,a7
        BCu = ROL(Ase, 2);
     dec:	489a                	lw	a7,132(sp)
     dee:	01e0d993          	srli	s3,ra,0x1e
        BCi = ROL(Aku, 39);
     df2:	007a1b93          	slli	s7,s4,0x7
        BCu = ROL(Ase, 2);
     df6:	008a                	slli	ra,ra,0x2
        BCi = ROL(Aku, 39);
     df8:	016bebb3          	or	s7,s7,s6
        BCu = ROL(Ase, 2);
     dfc:	0018e0b3          	or	ra,a7,ra
        BCi = ROL(Aku, 39);
     e00:	c3de                	sw	s7,196(sp)
        Eba ^= KeccakF_RoundConstants_sw[round];
     e02:	589a                	lw	a7,164(sp)
        BCi = ROL(Aku, 39);
     e04:	4b8a                	lw	s7,128(sp)
        BCu = ROL(Ase, 2);
     e06:	d206                	sw	ra,36(sp)
        Eba ^= KeccakF_RoundConstants_sw[round];
     e08:	10012083          	lw	ra,256(sp)
        BCi = ROL(Aku, 39);
     e0c:	019a5a13          	srli	s4,s4,0x19
     e10:	014be6b3          	or	a3,s7,s4
        BCu = ROL(Ase, 2);
     e14:	0129eb33          	or	s6,s3,s2
        BCe = ROL(Ago, 55);
     e18:	018cecb3          	or	s9,s9,s8
        Eba ^= KeccakF_RoundConstants_sw[round];
     e1c:	0018c8b3          	xor	a7,a7,ra
        BCe = ROL(Ago, 55);
     e20:	df66                	sw	s9,188(sp)
     e22:	c1ea                	sw	s10,192(sp)
        BCi = ROL(Aku, 39);
     e24:	c5b6                	sw	a3,200(sp)
        BCu = ROL(Ase, 2);
     e26:	dada                	sw	s6,116(sp)
        Eba ^= KeccakF_RoundConstants_sw[round];
     e28:	dcc6                	sw	a7,120(sp)
     e2a:	58aa                	lw	a7,168(sp)
     e2c:	10412083          	lw	ra,260(sp)
        Ebe = BCe ^ ((~BCi) & BCo);
     e30:	46aa                	lw	a3,136(sp)
        Ebo = BCo ^ ((~BCu) & BCa);
     e32:	5a22                	lw	s4,40(sp)
        Eba ^= KeccakF_RoundConstants_sw[round];
     e34:	0018c8b3          	xor	a7,a7,ra
     e38:	dec6                	sw	a7,124(sp)
        Ebe = BCe ^ ((~BCi) & BCo);
     e3a:	58ba                	lw	a7,172(sp)
        Ega = BCa ^ ((~BCe) & BCi);
     e3c:	4cfe                	lw	s9,220(sp)
     e3e:	59f2                	lw	s3,60(sp)
        Ebe = BCe ^ ((~BCi) & BCo);
     e40:	00d8c8b3          	xor	a7,a7,a3
     e44:	c146                	sw	a7,128(sp)
        Ebo = BCo ^ ((~BCu) & BCa);
     e46:	48de                	lw	a7,212(sp)
     e48:	5932                	lw	s2,44(sp)
     e4a:	4c6e                	lw	s8,216(sp)
     e4c:	0148c8b3          	xor	a7,a7,s4
        Ega = BCa ^ ((~BCe) & BCi);
     e50:	5a62                	lw	s4,56(sp)
        Ebo = BCo ^ ((~BCu) & BCa);
     e52:	012c4c33          	xor	s8,s8,s2
        Ego = BCo ^ ((~BCu) & BCa);
     e56:	4926                	lw	s2,72(sp)
        Ega = BCa ^ ((~BCe) & BCi);
     e58:	014cca33          	xor	s4,s9,s4
     e5c:	5c8e                	lw	s9,224(sp)
     e5e:	dc52                	sw	s4,56(sp)
        Ege = BCe ^ ((~BCi) & BCo);
     e60:	4a06                	lw	s4,64(sp)
        Ega = BCa ^ ((~BCe) & BCi);
     e62:	013cc9b3          	xor	s3,s9,s3
        Ege = BCe ^ ((~BCi) & BCo);
     e66:	5c9e                	lw	s9,228(sp)
        Ega = BCa ^ ((~BCe) & BCi);
     e68:	de4e                	sw	s3,60(sp)
        Ege = BCe ^ ((~BCi) & BCo);
     e6a:	4996                	lw	s3,68(sp)
     e6c:	014cca33          	xor	s4,s9,s4
     e70:	5cae                	lw	s9,232(sp)
        Ego = BCo ^ ((~BCu) & BCa);
     e72:	012dc933          	xor	s2,s11,s2
        Ebe = BCe ^ ((~BCi) & BCo);
     e76:	40ba                	lw	ra,140(sp)
        Ege = BCe ^ ((~BCi) & BCo);
     e78:	013cc9b3          	xor	s3,s9,s3
        Ebe = BCe ^ ((~BCi) & BCo);
     e7c:	5bca                	lw	s7,176(sp)
        Ego = BCo ^ ((~BCu) & BCa);
     e7e:	5cbe                	lw	s9,236(sp)
     e80:	c4ca                	sw	s2,72(sp)
     e82:	4936                	lw	s2,76(sp)
        Ebe = BCe ^ ((~BCi) & BCo);
     e84:	001bcbb3          	xor	s7,s7,ra
     e88:	c35e                	sw	s7,132(sp)
        Ego = BCo ^ ((~BCu) & BCa);
     e8a:	012cc933          	xor	s2,s9,s2
        Ebo = BCo ^ ((~BCu) & BCa);
     e8e:	d446                	sw	a7,40(sp)
        Egu = BCu ^ ((~BCa) & BCe);
     e90:	5cce                	lw	s9,240(sp)
        Ebo = BCo ^ ((~BCu) & BCa);
     e92:	d662                	sw	s8,44(sp)
        Ege = BCe ^ ((~BCi) & BCo);
     e94:	c0d2                	sw	s4,64(sp)
     e96:	c2ce                	sw	s3,68(sp)
        Ego = BCo ^ ((~BCu) & BCa);
     e98:	c6ca                	sw	s2,76(sp)
        Egu = BCu ^ ((~BCa) & BCe);
     e9a:	4dc6                	lw	s11,80(sp)
     e9c:	4956                	lw	s2,84(sp)
        Ebu = BCu ^ ((~BCa) & BCe);
     e9e:	8f75                	and	a4,a4,a3
        Egu = BCu ^ ((~BCa) & BCe);
     ea0:	01bccdb3          	xor	s11,s9,s11
        Eku = BCu ^ ((~BCa) & BCe);
     ea4:	11012c83          	lw	s9,272(sp)
        Egu = BCu ^ ((~BCa) & BCe);
     ea8:	c8ee                	sw	s11,80(sp)
     eaa:	5dde                	lw	s11,244(sp)
        Eku = BCu ^ ((~BCa) & BCe);
     eac:	01ccce33          	xor	t3,s9,t3
     eb0:	d372                	sw	t3,164(sp)
     eb2:	11412c83          	lw	s9,276(sp)
     eb6:	5e16                	lw	t3,100(sp)
        Eke = BCe ^ ((~BCi) & BCo);
     eb8:	46f6                	lw	a3,92(sp)
        Egu = BCu ^ ((~BCa) & BCe);
     eba:	012dcdb3          	xor	s11,s11,s2
        Eku = BCu ^ ((~BCa) & BCe);
     ebe:	01ccce33          	xor	t3,s9,t3
        Eke = BCe ^ ((~BCi) & BCo);
     ec2:	fffac513          	not	a0,s5
        Egu = BCu ^ ((~BCa) & BCe);
     ec6:	caee                	sw	s11,84(sp)
        Eki = BCi ^ ((~BCo) & BCu);
     ec8:	5dee                	lw	s11,248(sp)
        Eke = BCe ^ ((~BCi) & BCo);
     eca:	8d75                	and	a0,a0,a3
        Eki = BCi ^ ((~BCo) & BCu);
     ecc:	10812903          	lw	s2,264(sp)
        Eke = BCe ^ ((~BCi) & BCo);
     ed0:	5686                	lw	a3,96(sp)
        Eku = BCu ^ ((~BCa) & BCe);
     ed2:	d572                	sw	t3,168(sp)
        Ema = BCa ^ ((~BCe) & BCi);
     ed4:	4e62                	lw	t3,24(sp)
        Eki = BCi ^ ((~BCo) & BCu);
     ed6:	015dcdb3          	xor	s11,s11,s5
        Eke = BCe ^ ((~BCi) & BCo);
     eda:	fff3c813          	not	a6,t2
        Eki = BCi ^ ((~BCo) & BCu);
     ede:	00794933          	xor	s2,s2,t2
        Eka = BCa ^ ((~BCe) & BCi);
     ee2:	0075f5b3          	and	a1,a1,t2
        Eke = BCe ^ ((~BCi) & BCo);
     ee6:	00d87833          	and	a6,a6,a3
        BCi = Ebi ^ Egi ^ Eki ^ Emi ^ Esi;
     eea:	43ca                	lw	t2,144(sp)
        Eko = BCo ^ ((~BCu) & BCa);
     eec:	46e6                	lw	a3,88(sp)
     eee:	10c12883          	lw	a7,268(sp)
        Eki = BCi ^ ((~BCo) & BCu);
     ef2:	c56e                	sw	s11,136(sp)
        Ema = BCa ^ ((~BCe) & BCi);
     ef4:	fffe4d93          	not	s11,t3
        BCi = Ebi ^ Egi ^ Eki ^ Emi ^ Esi;
     ef8:	4e6a                	lw	t3,152(sp)
        Eko = BCo ^ ((~BCu) & BCa);
     efa:	00d8f8b3          	and	a7,a7,a3
        Eka = BCa ^ ((~BCe) & BCi);
     efe:	01567633          	and	a2,a2,s5
        BCi = Ebi ^ Egi ^ Eki ^ Emi ^ Esi;
     f02:	01c3c6b3          	xor	a3,t2,t3
     f06:	43fa                	lw	t2,156(sp)
     f08:	4e5a                	lw	t3,148(sp)
        Emi = BCi ^ ((~BCo) & BCu);
     f0a:	5ac6                	lw	s5,112(sp)
        Ebu = BCu ^ ((~BCa) & BCe);
     f0c:	0017f7b3          	and	a5,a5,ra
        BCi = Ebi ^ Egi ^ Eki ^ Emi ^ Esi;
     f10:	007e4e33          	xor	t3,t3,t2
        Ebu = BCu ^ ((~BCa) & BCe);
     f14:	53c2                	lw	t2,48(sp)
        Eko = BCo ^ ((~BCu) & BCa);
     f16:	508a                	lw	ra,160(sp)
        Eki = BCi ^ ((~BCo) & BCu);
     f18:	c74a                	sw	s2,140(sp)
        Ebu = BCu ^ ((~BCa) & BCe);
     f1a:	007743b3          	xor	t2,a4,t2
        Emu = BCu ^ ((~BCa) & BCe);
     f1e:	d126                	sw	s1,160(sp)
        Emi = BCi ^ ((~BCo) & BCu);
     f20:	5a02                	lw	s4,32(sp)
        Ema = BCa ^ ((~BCe) & BCi);
     f22:	4cf2                	lw	s9,28(sp)
        Emi = BCi ^ ((~BCo) & BCu);
     f24:	015f7f33          	and	t5,t5,s5
        Esi = BCi ^ ((~BCo) & BCu);
     f28:	49be                	lw	s3,204(sp)
     f2a:	494e                	lw	s2,208(sp)
        Emo = BCo ^ ((~BCu) & BCa);
     f2c:	fffacb13          	not	s6,s5
        Emu = BCu ^ ((~BCa) & BCe);
     f30:	fff4ca93          	not	s5,s1
     f34:	44d2                	lw	s1,20(sp)
        Ebu = BCu ^ ((~BCa) & BCe);
     f36:	d81e                	sw	t2,48(sp)
     f38:	5752                	lw	a4,52(sp)
        Eko = BCo ^ ((~BCu) & BCa);
     f3a:	fff34313          	not	t1,t1
     f3e:	00137333          	and	t1,t1,ra
        Ebu = BCu ^ ((~BCa) & BCe);
     f42:	8f3d                	xor	a4,a4,a5
        Eka = BCa ^ ((~BCe) & BCi);
     f44:	47e6                	lw	a5,88(sp)
     f46:	0015c0b3          	xor	ra,a1,ra
        Emi = BCi ^ ((~BCo) & BCu);
     f4a:	014efeb3          	and	t4,t4,s4
        Eka = BCa ^ ((~BCe) & BCi);
     f4e:	8e3d                	xor	a2,a2,a5
     f50:	ccb2                	sw	a2,88(sp)
        Eke = BCe ^ ((~BCi) & BCo);
     f52:	47c2                	lw	a5,16(sp)
     f54:	4632                	lw	a2,12(sp)
        Ebu = BCu ^ ((~BCa) & BCe);
     f56:	da3a                	sw	a4,52(sp)
        Eka = BCa ^ ((~BCe) & BCi);
     f58:	d286                	sw	ra,100(sp)
        Eko = BCo ^ ((~BCu) & BCa);
     f5a:	4776                	lw	a4,92(sp)
        Eke = BCe ^ ((~BCi) & BCo);
     f5c:	00c545b3          	xor	a1,a0,a2
     f60:	00f840b3          	xor	ra,a6,a5
        Eko = BCo ^ ((~BCu) & BCa);
     f64:	5786                	lw	a5,96(sp)
        Emi = BCi ^ ((~BCo) & BCu);
     f66:	005eceb3          	xor	t4,t4,t0
        Eke = BCe ^ ((~BCi) & BCo);
     f6a:	c62e                	sw	a1,12(sp)
        Emu = BCu ^ ((~BCa) & BCe);
     f6c:	45f2                	lw	a1,28(sp)
        Emi = BCi ^ ((~BCo) & BCu);
     f6e:	d776                	sw	t4,172(sp)
     f70:	01ff4eb3          	xor	t4,t5,t6
        Eko = BCo ^ ((~BCu) & BCa);
     f74:	00e8c633          	xor	a2,a7,a4
     f78:	00f34333          	xor	t1,t1,a5
        Emo = BCo ^ ((~BCu) & BCa);
     f7c:	fffa4b93          	not	s7,s4
        Emi = BCi ^ ((~BCo) & BCu);
     f80:	d976                	sw	t4,176(sp)
        Emu = BCu ^ ((~BCa) & BCe);
     f82:	fff4ca13          	not	s4,s1
        Ese = BCe ^ ((~BCi) & BCo);
     f86:	4eae                	lw	t4,200(sp)
        Eme = BCe ^ ((~BCi) & BCo);
     f88:	57a6                	lw	a5,104(sp)
        Esa = BCa ^ ((~BCe) & BCi);
     f8a:	557a                	lw	a0,188(sp)
     f8c:	480e                	lw	a6,192(sp)
        Emu = BCu ^ ((~BCa) & BCe);
     f8e:	00ba7a33          	and	s4,s4,a1
        Eko = BCo ^ ((~BCu) & BCa);
     f92:	ceb2                	sw	a2,92(sp)
        BCa = Eba ^ Ega ^ Eka ^ Ema ^ Esa;
     f94:	55e2                	lw	a1,56(sp)
        Emu = BCu ^ ((~BCa) & BCe);
     f96:	4662                	lw	a2,24(sp)
        Eko = BCo ^ ((~BCu) & BCa);
     f98:	d09a                	sw	t1,96(sp)
        BCa = Eba ^ Ega ^ Eka ^ Ema ^ Esa;
     f9a:	5366                	lw	t1,120(sp)
        Ema = BCa ^ ((~BCe) & BCi);
     f9c:	fffccd13          	not	s10,s9
     fa0:	005dfdb3          	and	s11,s11,t0
        Eme = BCe ^ ((~BCi) & BCo);
     fa4:	fff2cc93          	not	s9,t0
        Ese = BCe ^ ((~BCi) & BCo);
     fa8:	fffec293          	not	t0,t4
        Esi = BCi ^ ((~BCo) & BCu);
     fac:	5f56                	lw	t5,116(sp)
        Emo = BCo ^ ((~BCu) & BCa);
     fae:	570a                	lw	a4,160(sp)
        Ese = BCe ^ ((~BCi) & BCo);
     fb0:	489e                	lw	a7,196(sp)
        Eme = BCe ^ ((~BCi) & BCo);
     fb2:	00fcfcb3          	and	s9,s9,a5
        Emo = BCo ^ ((~BCu) & BCa);
     fb6:	009b7b33          	and	s6,s6,s1
        Eme = BCe ^ ((~BCi) & BCo);
     fba:	57b6                	lw	a5,108(sp)
        Emu = BCu ^ ((~BCa) & BCe);
     fbc:	00cafab3          	and	s5,s5,a2
        Eme = BCe ^ ((~BCi) & BCo);
     fc0:	ffffcc13          	not	s8,t6
        BCa = Eba ^ Ega ^ Eka ^ Ema ^ Esa;
     fc4:	5676                	lw	a2,124(sp)
        Eke = BCe ^ ((~BCi) & BCo);
     fc6:	c806                	sw	ra,16(sp)
        Ema = BCa ^ ((~BCe) & BCi);
     fc8:	01fd7d33          	and	s10,s10,t6
        Esa = BCa ^ ((~BCe) & BCi);
     fcc:	fff54493          	not	s1,a0
        Esi = BCi ^ ((~BCo) & BCu);
     fd0:	5f92                	lw	t6,36(sp)
        Esu = BCu ^ ((~BCa) & BCe);
     fd2:	555a                	lw	a0,180(sp)
        Esa = BCa ^ ((~BCe) & BCi);
     fd4:	fff84093          	not	ra,a6
        Ese = BCe ^ ((~BCi) & BCo);
     fd8:	cb96                	sw	t0,212(sp)
        Esu = BCu ^ ((~BCa) & BCe);
     fda:	586a                	lw	a6,184(sp)
        BCa = Eba ^ Ega ^ Eka ^ Ema ^ Esa;
     fdc:	00b34333          	xor	t1,t1,a1
     fe0:	55f2                	lw	a1,60(sp)
        Ese = BCe ^ ((~BCi) & BCo);
     fe2:	fff8c393          	not	t2,a7
        Esi = BCi ^ ((~BCo) & BCu);
     fe6:	fff9c993          	not	s3,s3
        BCa = Eba ^ Ega ^ Eka ^ Ema ^ Esa;
     fea:	00b648b3          	xor	a7,a2,a1
        BCe = Ebe ^ Ege ^ Eke ^ Eme ^ Ese;
     fee:	4606                	lw	a2,64(sp)
     ff0:	458a                	lw	a1,128(sp)
        Esi = BCi ^ ((~BCo) & BCu);
     ff2:	fff94913          	not	s2,s2
     ff6:	01f9f9b3          	and	s3,s3,t6
     ffa:	01e97933          	and	s2,s2,t5
        Eso = BCo ^ ((~BCu) & BCa);
     ffe:	ffffc293          	not	t0,t6
        BCe = Ebe ^ Ege ^ Eke ^ Eme ^ Ese;
    1002:	8db1                	xor	a1,a1,a2
        Eso = BCo ^ ((~BCu) & BCa);
    1004:	ffff4f93          	not	t6,t5
        BCe = Ebe ^ Ege ^ Eke ^ Eme ^ Ese;
    1008:	461a                	lw	a2,132(sp)
        Esu = BCu ^ ((~BCa) & BCe);
    100a:	fff54f13          	not	t5,a0
        BCe = Ebe ^ Ege ^ Eke ^ Eme ^ Ese;
    100e:	4516                	lw	a0,68(sp)
        Esu = BCu ^ ((~BCa) & BCe);
    1010:	fff84e93          	not	t4,a6
        BCi = Ebi ^ Egi ^ Eki ^ Emi ^ Esi;
    1014:	482a                	lw	a6,136(sp)
        BCe = Ebe ^ Ege ^ Eke ^ Eme ^ Ese;
    1016:	8e29                	xor	a2,a2,a0
        BCi = Ebi ^ Egi ^ Eki ^ Emi ^ Esi;
    1018:	453a                	lw	a0,140(sp)
    101a:	0106c6b3          	xor	a3,a3,a6
        BCo = Ebo ^ Ego ^ Eko ^ Emo ^ Eso;
    101e:	4826                	lw	a6,72(sp)
        BCi = Ebi ^ Egi ^ Eki ^ Emi ^ Esi;
    1020:	00ae4e33          	xor	t3,t3,a0
        BCo = Ebo ^ Ego ^ Eko ^ Emo ^ Eso;
    1024:	5522                	lw	a0,40(sp)
        Eme = BCe ^ ((~BCi) & BCo);
    1026:	00fc7c33          	and	s8,s8,a5
        Emo = BCo ^ ((~BCu) & BCa);
    102a:	00ebfbb3          	and	s7,s7,a4
        BCo = Ebo ^ Ego ^ Eko ^ Emo ^ Eso;
    102e:	010547b3          	xor	a5,a0,a6
    1032:	5832                	lw	a6,44(sp)
    1034:	4536                	lw	a0,76(sp)
    1036:	cdbe                	sw	a5,216(sp)
        BCu = Ebu ^ Egu ^ Eku ^ Emu ^ Esu;
    1038:	572a                	lw	a4,168(sp)
        BCo = Ebo ^ Ego ^ Eko ^ Emo ^ Eso;
    103a:	00a847b3          	xor	a5,a6,a0
        BCu = Ebu ^ Egu ^ Eku ^ Emu ^ Esu;
    103e:	551a                	lw	a0,164(sp)
    1040:	4846                	lw	a6,80(sp)
    1042:	00a84833          	xor	a6,a6,a0
    1046:	4556                	lw	a0,84(sp)
    1048:	8d39                	xor	a0,a0,a4
        Ema = BCa ^ ((~BCe) & BCi);
    104a:	570a                	lw	a4,160(sp)
    104c:	00edcdb3          	xor	s11,s11,a4
    1050:	d16e                	sw	s11,160(sp)
    1052:	4dd2                	lw	s11,20(sp)
        Eme = BCe ^ ((~BCi) & BCo);
    1054:	4762                	lw	a4,24(sp)
        Ema = BCa ^ ((~BCe) & BCi);
    1056:	01bd4d33          	xor	s10,s10,s11
    105a:	ca6a                	sw	s10,20(sp)
        Eme = BCe ^ ((~BCi) & BCo);
    105c:	00eccd33          	xor	s10,s9,a4
    1060:	4cf2                	lw	s9,28(sp)
    1062:	cc6a                	sw	s10,24(sp)
    1064:	019c4cb3          	xor	s9,s8,s9
        Emo = BCo ^ ((~BCu) & BCa);
    1068:	5c26                	lw	s8,104(sp)
        Eme = BCe ^ ((~BCi) & BCo);
    106a:	ce66                	sw	s9,28(sp)
        Emo = BCo ^ ((~BCu) & BCa);
    106c:	018bcc33          	xor	s8,s7,s8
    1070:	5bb6                	lw	s7,108(sp)
    1072:	d4e2                	sw	s8,104(sp)
    1074:	017b4733          	xor	a4,s6,s7
    1078:	d6ba                	sw	a4,108(sp)
        Emu = BCu ^ ((~BCa) & BCe);
    107a:	5702                	lw	a4,32(sp)
    107c:	00eacb33          	xor	s6,s5,a4
    1080:	5ac6                	lw	s5,112(sp)
    1082:	d05a                	sw	s6,32(sp)
    1084:	015a4ab3          	xor	s5,s4,s5
    1088:	d8d6                	sw	s5,112(sp)
        Esi = BCi ^ ((~BCo) & BCu);
    108a:	471e                	lw	a4,196(sp)
    108c:	4a2e                	lw	s4,200(sp)
        BCa = Eba ^ Ega ^ Eka ^ Ema ^ Esa;
    108e:	4de6                	lw	s11,88(sp)
        Esi = BCi ^ ((~BCo) & BCu);
    1090:	00e9cab3          	xor	s5,s3,a4
    1094:	01494b33          	xor	s6,s2,s4
        Esa = BCa ^ ((~BCe) & BCi);
    1098:	0140f0b3          	and	ra,ra,s4
        BCa = Eba ^ Ega ^ Eka ^ Ema ^ Esa;
    109c:	5a16                	lw	s4,100(sp)
    109e:	01b34333          	xor	t1,t1,s11
        BCe = Ebe ^ Ege ^ Eke ^ Eme ^ Ese;
    10a2:	4db2                	lw	s11,12(sp)
        BCa = Eba ^ Ega ^ Eka ^ Ema ^ Esa;
    10a4:	0148c8b3          	xor	a7,a7,s4
        BCe = Ebe ^ Ege ^ Eke ^ Eme ^ Ese;
    10a8:	4a42                	lw	s4,16(sp)
    10aa:	01b5c5b3          	xor	a1,a1,s11
        BCi = Ebi ^ Egi ^ Eki ^ Emi ^ Esi;
    10ae:	5dba                	lw	s11,172(sp)
        BCe = Ebe ^ Ege ^ Eke ^ Eme ^ Ese;
    10b0:	01464633          	xor	a2,a2,s4
        BCi = Ebi ^ Egi ^ Eki ^ Emi ^ Esi;
    10b4:	5a4a                	lw	s4,176(sp)
        Ese = BCe ^ ((~BCi) & BCo);
    10b6:	4c5e                	lw	s8,212(sp)
        Esi = BCi ^ ((~BCo) & BCu);
    10b8:	c3d6                	sw	s5,196(sp)
        BCi = Ebi ^ Egi ^ Eki ^ Emi ^ Esi;
    10ba:	014e4e33          	xor	t3,t3,s4
        Ese = BCe ^ ((~BCi) & BCo);
    10be:	4ace                	lw	s5,208(sp)
        BCo = Ebo ^ Ego ^ Eko ^ Emo ^ Eso;
    10c0:	4a6e                	lw	s4,216(sp)
        BCi = Ebi ^ Egi ^ Eki ^ Emi ^ Esi;
    10c2:	01b6c6b3          	xor	a3,a3,s11
        BCo = Ebo ^ Ego ^ Eko ^ Emo ^ Eso;
    10c6:	4df6                	lw	s11,92(sp)
        Esi = BCi ^ ((~BCo) & BCu);
    10c8:	8bda                	mv	s7,s6
        Eso = BCo ^ ((~BCu) & BCa);
    10ca:	5b5a                	lw	s6,180(sp)
        Ese = BCe ^ ((~BCi) & BCo);
    10cc:	49be                	lw	s3,204(sp)
    10ce:	015c7933          	and	s2,s8,s5
        Esa = BCa ^ ((~BCe) & BCi);
    10d2:	8cf9                	and	s1,s1,a4
        Eso = BCo ^ ((~BCu) & BCa);
    10d4:	5c6a                	lw	s8,184(sp)
        BCo = Ebo ^ Ego ^ Eko ^ Emo ^ Eso;
    10d6:	01ba4733          	xor	a4,s4,s11
    10da:	5a06                	lw	s4,96(sp)
        Eso = BCo ^ ((~BCu) & BCa);
    10dc:	0162f2b3          	and	t0,t0,s6
        Esu = BCu ^ ((~BCa) & BCe);
    10e0:	5cfa                	lw	s9,188(sp)
        Eso = BCo ^ ((~BCu) & BCa);
    10e2:	018fffb3          	and	t6,t6,s8
        BCo = Ebo ^ Ego ^ Eko ^ Emo ^ Eso;
    10e6:	0147c7b3          	xor	a5,a5,s4
        Eso = BCo ^ ((~BCu) & BCa);
    10ea:	0132c2b3          	xor	t0,t0,s3
        BCi = Ebi ^ Egi ^ Eki ^ Emi ^ Esi;
    10ee:	4a1e                	lw	s4,196(sp)
        Esu = BCu ^ ((~BCa) & BCe);
    10f0:	4d0e                	lw	s10,192(sp)
        BCu = Ebu ^ Egu ^ Eku ^ Emu ^ Esu;
    10f2:	5dc2                	lw	s11,48(sp)
        Ese = BCe ^ ((~BCi) & BCo);
    10f4:	0133f3b3          	and	t2,t2,s3
        Eso = BCo ^ ((~BCu) & BCa);
    10f8:	8996                	mv	s3,t0
    10fa:	015fc2b3          	xor	t0,t6,s5
        Esu = BCu ^ ((~BCa) & BCe);
    10fe:	5f92                	lw	t6,36(sp)
        Esa = BCa ^ ((~BCe) & BCi);
    1100:	0164c4b3          	xor	s1,s1,s6
        BCi = Ebi ^ Egi ^ Eki ^ Emi ^ Esi;
    1104:	0146c6b3          	xor	a3,a3,s4
        Esu = BCu ^ ((~BCa) & BCe);
    1108:	019f7f33          	and	t5,t5,s9
        BCi = Ebi ^ Egi ^ Eki ^ Emi ^ Esi;
    110c:	017e4a33          	xor	s4,t3,s7
        Esa = BCa ^ ((~BCe) & BCi);
    1110:	8e26                	mv	t3,s1
        Ese = BCe ^ ((~BCi) & BCo);
    1112:	0193c4b3          	xor	s1,t2,s9
    1116:	83a6                	mv	t2,s1
        Esu = BCu ^ ((~BCa) & BCe);
    1118:	01aefeb3          	and	t4,t4,s10
        Ese = BCe ^ ((~BCi) & BCo);
    111c:	01a944b3          	xor	s1,s2,s10
        BCu = Ebu ^ Egu ^ Eku ^ Emu ^ Esu;
    1120:	01b84833          	xor	a6,a6,s11
        Esu = BCu ^ ((~BCa) & BCe);
    1124:	01ff4d33          	xor	s10,t5,t6
        BCu = Ebu ^ Egu ^ Eku ^ Emu ^ Esu;
    1128:	5dd2                	lw	s11,52(sp)
        Esu = BCu ^ ((~BCa) & BCe);
    112a:	5f56                	lw	t5,116(sp)
        Ese = BCe ^ ((~BCi) & BCo);
    112c:	8926                	mv	s2,s1
        BCa = Eba ^ Ega ^ Eka ^ Ema ^ Esa;
    112e:	548a                	lw	s1,160(sp)
        BCe = Ebe ^ Ege ^ Eke ^ Eme ^ Ese;
    1130:	4cf2                	lw	s9,28(sp)
        BCu = Ebu ^ Egu ^ Eku ^ Emu ^ Esu;
    1132:	01b54533          	xor	a0,a0,s11
        Esu = BCu ^ ((~BCa) & BCe);
    1136:	01eecdb3          	xor	s11,t4,t5
        BCa = Eba ^ Ega ^ Eka ^ Ema ^ Esa;
    113a:	4ed2                	lw	t4,20(sp)
        BCe = Ebe ^ Ege ^ Eke ^ Eme ^ Ese;
    113c:	4f62                	lw	t5,24(sp)
        Esa = BCa ^ ((~BCe) & BCi);
    113e:	0180c0b3          	xor	ra,ra,s8
        BCu = Ebu ^ Egu ^ Eku ^ Emu ^ Esu;
    1142:	5b02                	lw	s6,32(sp)
        BCo = Ebo ^ Ego ^ Eko ^ Emo ^ Eso;
    1144:	5c26                	lw	s8,104(sp)
        BCi = Ebi ^ Egi ^ Eki ^ Emi ^ Esi;
    1146:	df5e                	sw	s7,188(sp)
        BCa = Eba ^ Ega ^ Eka ^ Ema ^ Esa;
    1148:	00934333          	xor	t1,t1,s1
        BCo = Ebo ^ Ego ^ Eko ^ Emo ^ Eso;
    114c:	54b6                	lw	s1,108(sp)
        BCu = Ebu ^ Egu ^ Eku ^ Emu ^ Esu;
    114e:	5ac6                	lw	s5,112(sp)
        BCa = Eba ^ Ega ^ Eka ^ Ema ^ Esa;
    1150:	01d8c8b3          	xor	a7,a7,t4
        BCe = Ebe ^ Ege ^ Eke ^ Eme ^ Ese;
    1154:	01e5c5b3          	xor	a1,a1,t5
    1158:	01964633          	xor	a2,a2,s9
        De = BCa ^ ROL(BCi, 1);
    115c:	00169f13          	slli	t5,a3,0x1
    1160:	01fa5e93          	srli	t4,s4,0x1f
        BCa = Eba ^ Ega ^ Eka ^ Ema ^ Esa;
    1164:	01c34333          	xor	t1,t1,t3
        BCe = Ebe ^ Ege ^ Eke ^ Eme ^ Ese;
    1168:	0075c5b3          	xor	a1,a1,t2
    116c:	01264633          	xor	a2,a2,s2
        De = BCa ^ ROL(BCi, 1);
    1170:	01eeeeb3          	or	t4,t4,t5
    1174:	006eceb3          	xor	t4,t4,t1
        Du = BCo ^ ROL(BCa, 1);
    1178:	00131b93          	slli	s7,t1,0x1
        BCo = Ebo ^ Ego ^ Eko ^ Emo ^ Eso;
    117c:	01874733          	xor	a4,a4,s8
    1180:	8fa5                	xor	a5,a5,s1
        BCu = Ebu ^ Egu ^ Eku ^ Emu ^ Esu;
    1182:	01554533          	xor	a0,a0,s5
        BCe = Ebe ^ Ege ^ Eke ^ Eme ^ Ese;
    1186:	dd4a                	sw	s2,184(sp)
        Du = BCo ^ ROL(BCa, 1);
    1188:	01f35a93          	srli	s5,t1,0x1f
        Da = BCu ^ ROL(BCe, 1);
    118c:	01f5d913          	srli	s2,a1,0x1f
    1190:	00161313          	slli	t1,a2,0x1
        BCo = Ebo ^ Ego ^ Eko ^ Emo ^ Eso;
    1194:	01374733          	xor	a4,a4,s3
    1198:	0057c7b3          	xor	a5,a5,t0
        BCu = Ebu ^ Egu ^ Eku ^ Emu ^ Esu;
    119c:	01b54533          	xor	a0,a0,s11
        Da = BCu ^ ROL(BCe, 1);
    11a0:	00696933          	or	s2,s2,t1
        BCu = Ebu ^ Egu ^ Eku ^ Emu ^ Esu;
    11a4:	01684833          	xor	a6,a6,s6
        BCa = Eba ^ Ega ^ Eka ^ Ema ^ Esa;
    11a8:	0018c8b3          	xor	a7,a7,ra
        BCu = Ebu ^ Egu ^ Eku ^ Emu ^ Esu;
    11ac:	01a84833          	xor	a6,a6,s10
        De = BCa ^ ROL(BCi, 1);
    11b0:	001a1f93          	slli	t6,s4,0x1
        Di = BCe ^ ROL(BCo, 1);
    11b4:	01f7dc13          	srli	s8,a5,0x1f
        Da = BCu ^ ROL(BCe, 1);
    11b8:	01f65313          	srli	t1,a2,0x1f
        BCa = Eba ^ Ega ^ Eka ^ Ema ^ Esa;
    11bc:	d272                	sw	t3,36(sp)
        BCe = Ebe ^ Ege ^ Eke ^ Eme ^ Ese;
    11be:	db1e                	sw	t2,180(sp)
        BCo = Ebo ^ Ego ^ Eko ^ Emo ^ Eso;
    11c0:	c1ce                	sw	s3,192(sp)
    11c2:	c596                	sw	t0,200(sp)
        De = BCa ^ ROL(BCi, 1);
    11c4:	01f6de13          	srli	t3,a3,0x1f
        Da = BCu ^ ROL(BCe, 1);
    11c8:	00159993          	slli	s3,a1,0x1
        Di = BCe ^ ROL(BCo, 1);
    11cc:	00171493          	slli	s1,a4,0x1
        Do = BCi ^ ROL(BCu, 1);
    11d0:	00151293          	slli	t0,a0,0x1
    11d4:	01f55393          	srli	t2,a0,0x1f
        Da = BCu ^ ROL(BCe, 1);
    11d8:	00a94533          	xor	a0,s2,a0
        Eki ^= Di;
    11dc:	492a                	lw	s2,136(sp)
        Da = BCu ^ ROL(BCe, 1);
    11de:	013369b3          	or	s3,t1,s3
        De = BCa ^ ROL(BCi, 1);
    11e2:	01fe6e33          	or	t3,t3,t6
        Do = BCi ^ ROL(BCu, 1);
    11e6:	01f85313          	srli	t1,a6,0x1f
        Du = BCo ^ ROL(BCa, 1);
    11ea:	01f8df93          	srli	t6,a7,0x1f
        Di = BCe ^ ROL(BCo, 1);
    11ee:	009c64b3          	or	s1,s8,s1
    11f2:	8cad                	xor	s1,s1,a1
    11f4:	01f75c93          	srli	s9,a4,0x1f
        BCa = Eba ^ Ega ^ Eka ^ Ema ^ Esa;
    11f8:	da86                	sw	ra,116(sp)
        Do = BCi ^ ROL(BCu, 1);
    11fa:	005362b3          	or	t0,t1,t0
        Di = BCe ^ ROL(BCo, 1);
    11fe:	00179093          	slli	ra,a5,0x1
        Du = BCo ^ ROL(BCa, 1);
    1202:	017fefb3          	or	t6,t6,s7
        Do = BCi ^ ROL(BCu, 1);
    1206:	0142c2b3          	xor	t0,t0,s4
        Du = BCo ^ ROL(BCa, 1);
    120a:	00efcfb3          	xor	t6,t6,a4
        Ege ^= De;
    120e:	4a06                	lw	s4,64(sp)
        Ebo ^= Do;
    1210:	5732                	lw	a4,44(sp)
        Do = BCi ^ ROL(BCu, 1);
    1212:	00181b13          	slli	s6,a6,0x1
        Di = BCe ^ ROL(BCo, 1);
    1216:	001ce0b3          	or	ra,s9,ra
        Da = BCu ^ ROL(BCe, 1);
    121a:	0109c833          	xor	a6,s3,a6
        Eki ^= Di;
    121e:	00994cb3          	xor	s9,s2,s1
        Ege ^= De;
    1222:	4996                	lw	s3,68(sp)
        Eki ^= Di;
    1224:	493a                	lw	s2,140(sp)
        De = BCa ^ ROL(BCi, 1);
    1226:	011e4e33          	xor	t3,t3,a7
        Di = BCe ^ ROL(BCo, 1);
    122a:	00c0c0b3          	xor	ra,ra,a2
        Du = BCo ^ ROL(BCa, 1);
    122e:	00189f13          	slli	t5,a7,0x1
        Eki ^= Di;
    1232:	00194c33          	xor	s8,s2,ra
        Ebo ^= Do;
    1236:	58a2                	lw	a7,40(sp)
        Emo ^= Do;
    1238:	5926                	lw	s2,104(sp)
        Du = BCo ^ ROL(BCa, 1);
    123a:	01eaef33          	or	t5,s5,t5
        Ege ^= De;
    123e:	01da4ab3          	xor	s5,s4,t4
    1242:	01c9ca33          	xor	s4,s3,t3
        Ebo ^= Do;
    1246:	005749b3          	xor	s3,a4,t0
        Egu ^= Du;
    124a:	4746                	lw	a4,80(sp)
        Do = BCi ^ ROL(BCu, 1);
    124c:	0163e3b3          	or	t2,t2,s6
    1250:	00d3c3b3          	xor	t2,t2,a3
        Du = BCo ^ ROL(BCa, 1);
    1254:	00ff4f33          	xor	t5,t5,a5
        Emo ^= Do;
    1258:	57b6                	lw	a5,108(sp)
    125a:	00794b33          	xor	s6,s2,t2
        Ebo ^= Do;
    125e:	0078c933          	xor	s2,a7,t2
        Egu ^= Du;
    1262:	01f748b3          	xor	a7,a4,t6
    1266:	4756                	lw	a4,84(sp)
        Emo ^= Do;
    1268:	0057cbb3          	xor	s7,a5,t0
        Ebe ^= De;
    126c:	478a                	lw	a5,128(sp)
        Egu ^= Du;
    126e:	01e74333          	xor	t1,a4,t5
        Eka ^= Da;
    1272:	4766                	lw	a4,88(sp)
        Ebe ^= De;
    1274:	01d7c7b3          	xor	a5,a5,t4
        Esu ^= Du;
    1278:	01fd4d33          	xor	s10,s10,t6
        Eka ^= Da;
    127c:	010746b3          	xor	a3,a4,a6
    1280:	5716                	lw	a4,100(sp)
        Ebe ^= De;
    1282:	d2be                	sw	a5,100(sp)
    1284:	479a                	lw	a5,132(sp)
        Eka ^= Da;
    1286:	00a74633          	xor	a2,a4,a0
        Eme ^= De;
    128a:	4762                	lw	a4,24(sp)
        Ebe ^= De;
    128c:	01c7c7b3          	xor	a5,a5,t3
    1290:	d4be                	sw	a5,104(sp)
        Egi ^= Di;
    1292:	47ea                	lw	a5,152(sp)
        Eme ^= De;
    1294:	01d745b3          	xor	a1,a4,t4
    1298:	4772                	lw	a4,28(sp)
        Egi ^= Di;
    129a:	8fa5                	xor	a5,a5,s1
    129c:	d6be                	sw	a5,108(sp)
    129e:	47fa                	lw	a5,156(sp)
        Eka ^= Da;
    12a0:	c2b2                	sw	a2,68(sp)
        Eme ^= De;
    12a2:	01c74633          	xor	a2,a4,t3
        Esi ^= Di;
    12a6:	471e                	lw	a4,196(sp)
        Egi ^= Di;
    12a8:	0017c7b3          	xor	a5,a5,ra
        Eka ^= Da;
    12ac:	c0b6                	sw	a3,64(sp)
        Esi ^= Di;
    12ae:	009746b3          	xor	a3,a4,s1
    12b2:	577a                	lw	a4,188(sp)
        Egi ^= Di;
    12b4:	c13e                	sw	a5,128(sp)
        Eko ^= Do;
    12b6:	47f6                	lw	a5,92(sp)
        Esi ^= Di;
    12b8:	00174733          	xor	a4,a4,ra
        Esu ^= Du;
    12bc:	01edcdb3          	xor	s11,s11,t5
        Eko ^= Do;
    12c0:	0077c7b3          	xor	a5,a5,t2
    12c4:	c33e                	sw	a5,132(sp)
    12c6:	5786                	lw	a5,96(sp)
    12c8:	0057c7b3          	xor	a5,a5,t0
    12cc:	c53e                	sw	a5,136(sp)
        Emu ^= Du;
    12ce:	5782                	lw	a5,32(sp)
    12d0:	01f7c7b3          	xor	a5,a5,t6
    12d4:	cd3e                	sw	a5,152(sp)
    12d6:	57c6                	lw	a5,112(sp)
    12d8:	01e7c7b3          	xor	a5,a5,t5
    12dc:	cf3e                	sw	a5,156(sp)
        Esa ^= Da;
    12de:	5792                	lw	a5,36(sp)
    12e0:	0107c7b3          	xor	a5,a5,a6
    12e4:	df3e                	sw	a5,188(sp)
    12e6:	57d6                	lw	a5,116(sp)
    12e8:	8fa9                	xor	a5,a5,a0
    12ea:	c3be                	sw	a5,196(sp)
        Ebu ^= Du;
    12ec:	57c2                	lw	a5,48(sp)
    12ee:	01f7c7b3          	xor	a5,a5,t6
    12f2:	c7be                	sw	a5,204(sp)
    12f4:	57d2                	lw	a5,52(sp)
    12f6:	01e7c7b3          	xor	a5,a5,t5
    12fa:	c9be                	sw	a5,208(sp)
        Ega ^= Da;
    12fc:	57e2                	lw	a5,56(sp)
    12fe:	0107c7b3          	xor	a5,a5,a6
    1302:	cbbe                	sw	a5,212(sp)
    1304:	57f2                	lw	a5,60(sp)
    1306:	8fa9                	xor	a5,a5,a0
    1308:	cdbe                	sw	a5,216(sp)
        Eke ^= De;
    130a:	47b2                	lw	a5,12(sp)
    130c:	01d7c7b3          	xor	a5,a5,t4
    1310:	cfbe                	sw	a5,220(sp)
    1312:	47c2                	lw	a5,16(sp)
    1314:	01c7c7b3          	xor	a5,a5,t3
    1318:	d1be                	sw	a5,224(sp)
        Emi ^= Di;
    131a:	57ba                	lw	a5,172(sp)
    131c:	8fa5                	xor	a5,a5,s1
    131e:	d5be                	sw	a5,232(sp)
    1320:	57ca                	lw	a5,176(sp)
    1322:	0017c7b3          	xor	a5,a5,ra
    1326:	d93e                	sw	a5,176(sp)
        Eso ^= Do;
    1328:	478e                	lw	a5,192(sp)
    132a:	0077c7b3          	xor	a5,a5,t2
    132e:	ddbe                	sw	a5,248(sp)
    1330:	47ae                	lw	a5,200(sp)
    1332:	0057c7b3          	xor	a5,a5,t0
    1336:	dbbe                	sw	a5,244(sp)
        Ebi ^= Di;
    1338:	47ca                	lw	a5,144(sp)
    133a:	8cbd                	xor	s1,s1,a5
    133c:	47da                	lw	a5,148(sp)
    133e:	0017c0b3          	xor	ra,a5,ra
        Ego ^= Do;
    1342:	47a6                	lw	a5,72(sp)
    1344:	0077c3b3          	xor	t2,a5,t2
    1348:	47b6                	lw	a5,76(sp)
    134a:	0057c2b3          	xor	t0,a5,t0
        Eku ^= Du;
    134e:	579a                	lw	a5,164(sp)
    1350:	01f7cfb3          	xor	t6,a5,t6
    1354:	57aa                	lw	a5,168(sp)
    1356:	01e7cf33          	xor	t5,a5,t5
        Ema ^= Da;
    135a:	578a                	lw	a5,160(sp)
    135c:	0107c7b3          	xor	a5,a5,a6
    1360:	12f12423          	sw	a5,296(sp)
    1364:	47d2                	lw	a5,20(sp)
    1366:	8fa9                	xor	a5,a5,a0
    1368:	12f12623          	sw	a5,300(sp)
        Ese ^= De;
    136c:	57da                	lw	a5,180(sp)
    136e:	01d7ceb3          	xor	t4,a5,t4
    1372:	57ea                	lw	a5,184(sp)
    1374:	13d12823          	sw	t4,304(sp)
        BCe = ROL(Ege, 44);
    1378:	00ca1e93          	slli	t4,s4,0xc
        Ese ^= De;
    137c:	01c7ce33          	xor	t3,a5,t3
    1380:	13c12e23          	sw	t3,316(sp)
        BCe = ROL(Ege, 44);
    1384:	014a5a13          	srli	s4,s4,0x14
    1388:	014ade13          	srli	t3,s5,0x14
    138c:	0ab2                	slli	s5,s5,0xc
    138e:	01ceee33          	or	t3,t4,t3
    1392:	014aeeb3          	or	t4,s5,s4
    1396:	c876                	sw	t4,16(sp)
        BCi = ROL(Eki, 43);
    1398:	00bc1e93          	slli	t4,s8,0xb
        BCe = ROL(Ege, 44);
    139c:	c672                	sw	t3,12(sp)
        BCi = ROL(Eki, 43);
    139e:	ca76                	sw	t4,20(sp)
    13a0:	015cde13          	srli	t3,s9,0x15
        BCo = ROL(Emo, 21);
    13a4:	00bb5e93          	srli	t4,s6,0xb
        BCi = ROL(Eka, 3);
    13a8:	4786                	lw	a5,64(sp)
        BCi = ROL(Eki, 43);
    13aa:	cc72                	sw	t3,24(sp)
        BCo = ROL(Emo, 21);
    13ac:	ce76                	sw	t4,28(sp)
    13ae:	015b9e13          	slli	t3,s7,0x15
        BCu = ROL(Esu, 14);
    13b2:	012d5e93          	srli	t4,s10,0x12
        BCi = ROL(Eka, 3);
    13b6:	4a16                	lw	s4,68(sp)
        BCo = ROL(Emo, 21);
    13b8:	d072                	sw	t3,32(sp)
        BCu = ROL(Esu, 14);
    13ba:	d276                	sw	t4,36(sp)
    13bc:	00ed9e13          	slli	t3,s11,0xe
        BCa = ROL(Ebo, 28);
    13c0:	00495e93          	srli	t4,s2,0x4
        BCu = ROL(Esu, 14);
    13c4:	d472                	sw	t3,40(sp)
        BCa = ROL(Ebo, 28);
    13c6:	d676                	sw	t4,44(sp)
    13c8:	01c99e13          	slli	t3,s3,0x1c
        BCe = ROL(Egu, 20);
    13cc:	00c8de93          	srli	t4,a7,0xc
        BCa = ROL(Ebo, 28);
    13d0:	d872                	sw	t3,48(sp)
        BCe = ROL(Egu, 20);
    13d2:	da76                	sw	t4,52(sp)
    13d4:	01431e13          	slli	t3,t1,0x14
        BCi = ROL(Eka, 3);
    13d8:	01d7de93          	srli	t4,a5,0x1d
        BCe = ROL(Egu, 20);
    13dc:	dc72                	sw	t3,56(sp)
        BCi = ROL(Eka, 3);
    13de:	de76                	sw	t4,60(sp)
    13e0:	003a1e13          	slli	t3,s4,0x3
    13e4:	01da5e93          	srli	t4,s4,0x1d
    13e8:	00379a13          	slli	s4,a5,0x3
        BCo = ROL(Eme, 45);
    13ec:	00d61a93          	slli	s5,a2,0xd
        BCi = ROL(Eka, 3);
    13f0:	c0f2                	sw	t3,64(sp)
    13f2:	c2f6                	sw	t4,68(sp)
    13f4:	c4d2                	sw	s4,72(sp)
        BCu = ROL(Esi, 61);
    13f6:	0036da13          	srli	s4,a3,0x3
        BCo = ROL(Eme, 45);
    13fa:	c6d6                	sw	s5,76(sp)
        BCu = ROL(Esi, 61);
    13fc:	ccd2                	sw	s4,88(sp)
        BCa = ROL(Ebe, 1);
    13fe:	5a16                	lw	s4,100(sp)
    1400:	57a6                	lw	a5,104(sp)
        BCu = ROL(Esi, 61);
    1402:	06f6                	slli	a3,a3,0x1d
    1404:	ceb6                	sw	a3,92(sp)
        BCa = ROL(Ebe, 1);
    1406:	01fa5693          	srli	a3,s4,0x1f
    140a:	d0b6                	sw	a3,96(sp)
    140c:	00179693          	slli	a3,a5,0x1
    1410:	d2b6                	sw	a3,100(sp)
    1412:	001a1693          	slli	a3,s4,0x1
        BCe = ROL(Egi, 6);
    1416:	5a36                	lw	s4,108(sp)
    1418:	4a8a                	lw	s5,128(sp)
        BCa = ROL(Ebe, 1);
    141a:	d4b6                	sw	a3,104(sp)
        BCe = ROL(Egi, 6);
    141c:	01aa5693          	srli	a3,s4,0x1a
    1420:	d6b6                	sw	a3,108(sp)
    1422:	006a9693          	slli	a3,s5,0x6
    1426:	d8b6                	sw	a3,112(sp)
    1428:	01aad693          	srli	a3,s5,0x1a
    142c:	dab6                	sw	a3,116(sp)
    142e:	006a1693          	slli	a3,s4,0x6
        BCi = ROL(Eko, 25);
    1432:	4a1a                	lw	s4,132(sp)
        BCe = ROL(Egi, 6);
    1434:	c136                	sw	a3,128(sp)
        BCo = ROL(Eme, 45);
    1436:	0135de13          	srli	t3,a1,0x13
        BCi = ROL(Eko, 25);
    143a:	007a5a93          	srli	s5,s4,0x7
    143e:	c356                	sw	s5,132(sp)
    1440:	0a66                	slli	s4,s4,0x19
    1442:	4aaa                	lw	s5,136(sp)
    1444:	c952                	sw	s4,144(sp)
        BCo = ROL(Emu, 8);
    1446:	4a6a                	lw	s4,152(sp)
        BCi = ROL(Eko, 25);
    1448:	019a9693          	slli	a3,s5,0x19
    144c:	007ada93          	srli	s5,s5,0x7
    1450:	c756                	sw	s5,140(sp)
        BCo = ROL(Emu, 8);
    1452:	018a5a93          	srli	s5,s4,0x18
    1456:	cb56                	sw	s5,148(sp)
    1458:	4afa                	lw	s5,156(sp)
        BCo = ROL(Eme, 45);
    145a:	c8f2                	sw	t3,80(sp)
        BCo = ROL(Emu, 8);
    145c:	0a22                	slli	s4,s4,0x8
    145e:	008a9e13          	slli	t3,s5,0x8
    1462:	018ada93          	srli	s5,s5,0x18
    1466:	cf56                	sw	s5,156(sp)
    1468:	d152                	sw	s4,160(sp)
        BCu = ROL(Esa, 18);
    146a:	4a9e                	lw	s5,196(sp)
    146c:	5a7a                	lw	s4,188(sp)
        BCu = ROL(Esi, 61);
    146e:	01d71e93          	slli	t4,a4,0x1d
    1472:	caf6                	sw	t4,84(sp)
        BCi = ROL(Eko, 25);
    1474:	c536                	sw	a3,136(sp)
        BCu = ROL(Esa, 18);
    1476:	00ea5e93          	srli	t4,s4,0xe
    147a:	012a9693          	slli	a3,s5,0x12
    147e:	00eada93          	srli	s5,s5,0xe
        BCo = ROL(Emu, 8);
    1482:	cd72                	sw	t3,152(sp)
        BCu = ROL(Esa, 18);
    1484:	d376                	sw	t4,164(sp)
    1486:	d536                	sw	a3,168(sp)
    1488:	d756                	sw	s5,172(sp)
    148a:	0a4a                	slli	s4,s4,0x12
    148c:	db52                	sw	s4,180(sp)
        BCa = ROL(Ebu, 27);
    148e:	4a3e                	lw	s4,204(sp)
        BCi = ROL(Eki, 43);
    1490:	0cae                	slli	s9,s9,0xb
    1492:	015c5c13          	srli	s8,s8,0x15
        BCa = ROL(Ebu, 27);
    1496:	005a5a93          	srli	s5,s4,0x5
    149a:	dd56                	sw	s5,184(sp)
    149c:	4ace                	lw	s5,208(sp)
    149e:	0a6e                	slli	s4,s4,0x1b
    14a0:	c3d2                	sw	s4,196(sp)
    14a2:	01ba9e13          	slli	t3,s5,0x1b
    14a6:	005ada93          	srli	s5,s5,0x5
    14aa:	c1d6                	sw	s5,192(sp)
        BCe = ROL(Ega, 36);
    14ac:	4aee                	lw	s5,216(sp)
        BCa = ROL(Ebu, 27);
    14ae:	df72                	sw	t3,188(sp)
        BCi = ROL(Eki, 43);
    14b0:	018cec33          	or	s8,s9,s8
        BCe = ROL(Ega, 36);
    14b4:	004a9a13          	slli	s4,s5,0x4
    14b8:	c5d2                	sw	s4,200(sp)
    14ba:	4a5e                	lw	s4,212(sp)
        BCo = ROL(Emo, 21);
    14bc:	00bbdb93          	srli	s7,s7,0xb
    14c0:	0b56                	slli	s6,s6,0x15
        BCe = ROL(Ega, 36);
    14c2:	01ca5e93          	srli	t4,s4,0x1c
    14c6:	0a12                	slli	s4,s4,0x4
    14c8:	c9d2                	sw	s4,208(sp)
    14ca:	01cada13          	srli	s4,s5,0x1c
    14ce:	cbd2                	sw	s4,212(sp)
        BCi = ROL(Eke, 10);
    14d0:	4a7e                	lw	s4,220(sp)
        BCe = ROL(Ega, 36);
    14d2:	c7f6                	sw	t4,204(sp)
        BCo = ROL(Emo, 21);
    14d4:	016beb33          	or	s6,s7,s6
        BCi = ROL(Eke, 10);
    14d8:	016a5a93          	srli	s5,s4,0x16
    14dc:	cdd6                	sw	s5,216(sp)
    14de:	0a2a                	slli	s4,s4,0xa
    14e0:	5a8e                	lw	s5,224(sp)
    14e2:	d3d2                	sw	s4,228(sp)
        BCo = ROL(Emi, 15);
    14e4:	5a2e                	lw	s4,232(sp)
        BCi = ROL(Eke, 10);
    14e6:	00aa9693          	slli	a3,s5,0xa
    14ea:	016ada93          	srli	s5,s5,0x16
    14ee:	d1d6                	sw	s5,224(sp)
        BCo = ROL(Emi, 15);
    14f0:	011a5a93          	srli	s5,s4,0x11
    14f4:	d5d6                	sw	s5,232(sp)
    14f6:	5aca                	lw	s5,176(sp)
        BCi = ROL(Eke, 10);
    14f8:	cfb6                	sw	a3,220(sp)
        BCu = ROL(Esu, 14);
    14fa:	012ddd93          	srli	s11,s11,0x12
        BCo = ROL(Emi, 15);
    14fe:	00fa9e13          	slli	t3,s5,0xf
    1502:	d7f2                	sw	t3,236(sp)
    1504:	011ada93          	srli	s5,s5,0x11
        BCu = ROL(Eso, 56);
    1508:	5e5e                	lw	t3,244(sp)
        BCo = ROL(Emi, 15);
    150a:	d9d6                	sw	s5,240(sp)
        BCu = ROL(Eso, 56);
    150c:	5aee                	lw	s5,248(sp)
    150e:	018e1e93          	slli	t4,t3,0x18
    1512:	008e5e13          	srli	t3,t3,0x8
    1516:	008ad693          	srli	a3,s5,0x8
    151a:	11c12023          	sw	t3,256(sp)
        BCa = ROL(Ebi, 62);
    151e:	01e09e13          	slli	t3,ra,0x1e
        BCu = ROL(Eso, 56);
    1522:	dbf6                	sw	t4,244(sp)
    1524:	ddb6                	sw	a3,248(sp)
        BCa = ROL(Ebi, 62);
    1526:	0024de93          	srli	t4,s1,0x2
        BCe = ROL(Ego, 55);
    152a:	01729693          	slli	a3,t0,0x17
        BCa = ROL(Ebi, 62);
    152e:	11c12223          	sw	t3,260(sp)
        BCe = ROL(Ego, 55);
    1532:	0093de13          	srli	t3,t2,0x9
        BCa = ROL(Ebi, 62);
    1536:	11d12423          	sw	t4,264(sp)
        BCe = ROL(Ego, 55);
    153a:	10d12623          	sw	a3,268(sp)
    153e:	11c12823          	sw	t3,272(sp)
    1542:	03de                	slli	t2,t2,0x17
    1544:	10712a23          	sw	t2,276(sp)
        BCi = ROL(Eku, 39);
    1548:	019fd393          	srli	t2,t6,0x19
    154c:	0f9e                	slli	t6,t6,0x7
    154e:	13f12023          	sw	t6,288(sp)
        BCo = ROL(Ema, 41);
    1552:	12812f83          	lw	t6,296(sp)
        BCi = ROL(Eku, 39);
    1556:	10712e23          	sw	t2,284(sp)
        BCo = ROL(Ema, 41);
    155a:	12c12383          	lw	t2,300(sp)
        BCe = ROL(Ego, 55);
    155e:	0092d293          	srli	t0,t0,0x9
        BCo = ROL(Ema, 41);
    1562:	017fde93          	srli	t4,t6,0x17
        BCe = ROL(Ego, 55);
    1566:	10512c23          	sw	t0,280(sp)
        BCo = ROL(Ema, 41);
    156a:	0fa6                	slli	t6,t6,0x9
        BCi = ROL(Eku, 39);
    156c:	007f1293          	slli	t0,t5,0x7
    1570:	019f5f13          	srli	t5,t5,0x19
    1574:	13e12223          	sw	t5,292(sp)
        BCo = ROL(Ema, 41);
    1578:	13f12423          	sw	t6,296(sp)
    157c:	00939f13          	slli	t5,t2,0x9
    1580:	0173df93          	srli	t6,t2,0x17
        BCu = ROL(Ese, 2);
    1584:	13c12383          	lw	t2,316(sp)
        BCo = ROL(Ema, 41);
    1588:	13f12623          	sw	t6,300(sp)
        BCu = ROL(Ese, 2);
    158c:	13012f83          	lw	t6,304(sp)
    1590:	00239693          	slli	a3,t2,0x2
    1594:	12d12823          	sw	a3,304(sp)
        Eba ^= Da;
    1598:	56e6                	lw	a3,120(sp)
        BCo = ROL(Emo, 21);
    159a:	5c82                	lw	s9,32(sp)
        BCu = ROL(Esu, 14);
    159c:	5ba2                	lw	s7,40(sp)
        Eba ^= Da;
    159e:	0106c833          	xor	a6,a3,a6
    15a2:	56f6                	lw	a3,124(sp)
        BCu = ROL(Esu, 14);
    15a4:	0d3a                	slli	s10,s10,0xe
        BCa = ROL(Ebo, 28);
    15a6:	0049d993          	srli	s3,s3,0x4
        Eba ^= Da;
    15aa:	8d35                	xor	a0,a0,a3
    15ac:	d92a                	sw	a0,176(sp)
        BCi = ROL(Eki, 43);
    15ae:	46d2                	lw	a3,20(sp)
    15b0:	4562                	lw	a0,24(sp)
        BCa = ROL(Ebo, 28);
    15b2:	0972                	slli	s2,s2,0x1c
    15b4:	0129e933          	or	s2,s3,s2
        BCi = ROL(Eki, 43);
    15b8:	8ec9                	or	a3,a3,a0
        BCo = ROL(Emo, 21);
    15ba:	4572                	lw	a0,28(sp)
        BCe = ROL(Egu, 20);
    15bc:	59e2                	lw	s3,56(sp)
        BCa = ROL(Ebo, 28);
    15be:	ce4a                	sw	s2,28(sp)
        BCo = ROL(Emo, 21);
    15c0:	01956cb3          	or	s9,a0,s9
        BCu = ROL(Esu, 14);
    15c4:	5512                	lw	a0,36(sp)
        BCe = ROL(Egu, 20);
    15c6:	00c35313          	srli	t1,t1,0xc
    15ca:	08d2                	slli	a7,a7,0x14
        BCu = ROL(Esu, 14);
    15cc:	01756bb3          	or	s7,a0,s7
    15d0:	cc5e                	sw	s7,24(sp)
        BCa = ROL(Ebo, 28);
    15d2:	5532                	lw	a0,44(sp)
        BCu = ROL(Esu, 14);
    15d4:	01adebb3          	or	s7,s11,s10
        BCa = ROL(Ebo, 28);
    15d8:	5d42                	lw	s10,48(sp)
        BCi = ROL(Eka, 3);
    15da:	4d86                	lw	s11,64(sp)
        BCo = ROL(Emo, 21);
    15dc:	ca66                	sw	s9,20(sp)
        BCa = ROL(Ebo, 28);
    15de:	01a56d33          	or	s10,a0,s10
        BCe = ROL(Egu, 20);
    15e2:	5552                	lw	a0,52(sp)
        BCa = ROL(Ebo, 28);
    15e4:	d06a                	sw	s10,32(sp)
        BCo = ROL(Eme, 45);
    15e6:	05b6                	slli	a1,a1,0xd
        BCe = ROL(Egu, 20);
    15e8:	01356933          	or	s2,a0,s3
        BCi = ROL(Eka, 3);
    15ec:	5572                	lw	a0,60(sp)
        BCe = ROL(Egu, 20);
    15ee:	011369b3          	or	s3,t1,a7
        BCo = ROL(Eme, 45);
    15f2:	824d                	srli	a2,a2,0x13
        BCi = ROL(Eka, 3);
    15f4:	01b568b3          	or	a7,a0,s11
    15f8:	4da6                	lw	s11,72(sp)
    15fa:	4516                	lw	a0,68(sp)
        BCo = ROL(Eme, 45);
    15fc:	8e4d                	or	a2,a2,a1
        BCa = ROL(Ebe, 1);
    15fe:	83fd                	srli	a5,a5,0x1f
        BCi = ROL(Eka, 3);
    1600:	01b56333          	or	t1,a0,s11
        BCo = ROL(Eme, 45);
    1604:	4536                	lw	a0,76(sp)
    1606:	4dc6                	lw	s11,80(sp)
        BCu = ROL(Esi, 61);
    1608:	45e6                	lw	a1,88(sp)
        BCa = ROL(Ebe, 1);
    160a:	5c96                	lw	s9,100(sp)
        BCo = ROL(Eme, 45);
    160c:	01b56db3          	or	s11,a0,s11
        BCu = ROL(Esi, 61);
    1610:	4556                	lw	a0,84(sp)
        BCe = ROL(Egi, 6);
    1612:	5d46                	lw	s10,112(sp)
        BCo = ROL(Eme, 45);
    1614:	d26e                	sw	s11,36(sp)
        BCu = ROL(Esi, 61);
    1616:	8dc9                	or	a1,a1,a0
        BCa = ROL(Ebe, 1);
    1618:	5506                	lw	a0,96(sp)
        BCe = ROL(Egi, 6);
    161a:	4d8a                	lw	s11,128(sp)
        BCo = ROL(Eme, 45);
    161c:	d432                	sw	a2,40(sp)
        BCa = ROL(Ebe, 1);
    161e:	01956cb3          	or	s9,a0,s9
    1622:	5526                	lw	a0,104(sp)
        BCu = ROL(Esi, 61);
    1624:	4676                	lw	a2,92(sp)
    1626:	830d                	srli	a4,a4,0x3
        BCa = ROL(Ebe, 1);
    1628:	8fc9                	or	a5,a5,a0
        BCe = ROL(Egi, 6);
    162a:	5536                	lw	a0,108(sp)
        BCa = ROL(Ebe, 1);
    162c:	da3e                	sw	a5,52(sp)
        BCi = ROL(Eko, 25);
    162e:	47aa                	lw	a5,136(sp)
        BCe = ROL(Egi, 6);
    1630:	01a56d33          	or	s10,a0,s10
    1634:	5556                	lw	a0,116(sp)
        BCu = ROL(Esi, 61);
    1636:	8f51                	or	a4,a4,a2
    1638:	d83a                	sw	a4,48(sp)
        BCe = ROL(Egi, 6);
    163a:	01b56db3          	or	s11,a0,s11
        BCi = ROL(Eko, 25);
    163e:	451a                	lw	a0,132(sp)
    1640:	474a                	lw	a4,144(sp)
        BCu = ROL(Esi, 61);
    1642:	d62e                	sw	a1,44(sp)
        BCi = ROL(Eko, 25);
    1644:	8fc9                	or	a5,a5,a0
    1646:	453a                	lw	a0,140(sp)
        BCo = ROL(Emu, 8);
    1648:	45ea                	lw	a1,152(sp)
        BCa = ROL(Ebe, 1);
    164a:	dc66                	sw	s9,56(sp)
        BCi = ROL(Eko, 25);
    164c:	8f49                	or	a4,a4,a0
        BCo = ROL(Emu, 8);
    164e:	455a                	lw	a0,148(sp)
    1650:	5c8a                	lw	s9,160(sp)
        BCe = ROL(Egi, 6);
    1652:	c0ea                	sw	s10,64(sp)
        BCo = ROL(Emu, 8);
    1654:	8dc9                	or	a1,a1,a0
    1656:	457a                	lw	a0,156(sp)
        BCe = ROL(Egi, 6);
    1658:	de6e                	sw	s11,60(sp)
        BCi = ROL(Eko, 25);
    165a:	c4be                	sw	a5,72(sp)
        BCo = ROL(Emu, 8);
    165c:	01956cb3          	or	s9,a0,s9
        BCi = ROL(Eko, 25);
    1660:	c2ba                	sw	a4,68(sp)
        BCo = ROL(Emu, 8);
    1662:	c8ae                	sw	a1,80(sp)
    1664:	c6e6                	sw	s9,76(sp)
        BCu = ROL(Esa, 18);
    1666:	551a                	lw	a0,164(sp)
    1668:	5d2a                	lw	s10,168(sp)
    166a:	5dda                	lw	s11,180(sp)
        BCa = ROL(Ebu, 27);
    166c:	57fa                	lw	a5,188(sp)
        BCu = ROL(Esa, 18);
    166e:	01a56d33          	or	s10,a0,s10
    1672:	553a                	lw	a0,172(sp)
        BCa = ROL(Ebu, 27);
    1674:	461e                	lw	a2,196(sp)
        BCe = ROL(Ega, 36);
    1676:	45be                	lw	a1,204(sp)
        BCu = ROL(Esa, 18);
    1678:	01b56db3          	or	s11,a0,s11
        BCa = ROL(Ebu, 27);
    167c:	556a                	lw	a0,184(sp)
        BCe = ROL(Ega, 36);
    167e:	4cde                	lw	s9,212(sp)
        BCu = ROL(Esa, 18);
    1680:	ccea                	sw	s10,88(sp)
        BCa = ROL(Ebu, 27);
    1682:	8fc9                	or	a5,a5,a0
    1684:	450e                	lw	a0,192(sp)
        BCi = ROL(Eke, 10);
    1686:	4d7e                	lw	s10,220(sp)
        BCu = ROL(Esa, 18);
    1688:	caee                	sw	s11,84(sp)
        BCa = ROL(Ebu, 27);
    168a:	8e49                	or	a2,a2,a0
        BCe = ROL(Ega, 36);
    168c:	452e                	lw	a0,200(sp)
        BCi = ROL(Eke, 10);
    168e:	5d9e                	lw	s11,228(sp)
        BCa = ROL(Ebu, 27);
    1690:	d0be                	sw	a5,96(sp)
        BCe = ROL(Ega, 36);
    1692:	8dc9                	or	a1,a1,a0
    1694:	454e                	lw	a0,208(sp)
        BCo = ROL(Emi, 15);
    1696:	57be                	lw	a5,236(sp)
    1698:	0a3e                	slli	s4,s4,0xf
        BCe = ROL(Ega, 36);
    169a:	01956cb3          	or	s9,a0,s9
        BCi = ROL(Eke, 10);
    169e:	456e                	lw	a0,216(sp)
        BCa = ROL(Ebu, 27);
    16a0:	ceb2                	sw	a2,92(sp)
        BCe = ROL(Ega, 36);
    16a2:	d2ae                	sw	a1,100(sp)
        BCi = ROL(Eke, 10);
    16a4:	01a56d33          	or	s10,a0,s10
    16a8:	550e                	lw	a0,224(sp)
        BCe = ROL(Ega, 36);
    16aa:	d4e6                	sw	s9,104(sp)
        BCi = ROL(Eke, 10);
    16ac:	d8ea                	sw	s10,112(sp)
    16ae:	01b56db3          	or	s11,a0,s11
        BCo = ROL(Emi, 15);
    16b2:	552e                	lw	a0,232(sp)
        BCi = ROL(Eke, 10);
    16b4:	d6ee                	sw	s11,108(sp)
        BCu = ROL(Eso, 56);
    16b6:	0ae2                	slli	s5,s5,0x18
        BCo = ROL(Emi, 15);
    16b8:	8fc9                	or	a5,a5,a0
    16ba:	554e                	lw	a0,240(sp)
    16bc:	dcbe                	sw	a5,120(sp)
        BCa = ROL(Ebi, 62);
    16be:	0020d093          	srli	ra,ra,0x2
        BCo = ROL(Emi, 15);
    16c2:	01456a33          	or	s4,a0,s4
    16c6:	dad2                	sw	s4,116(sp)
        BCu = ROL(Eso, 56);
    16c8:	555e                	lw	a0,244(sp)
    16ca:	5a6e                	lw	s4,248(sp)
        BCa = ROL(Ebi, 62);
    16cc:	04fa                	slli	s1,s1,0x1e
    16ce:	0014e4b3          	or	s1,s1,ra
        BCu = ROL(Eso, 56);
    16d2:	01456a33          	or	s4,a0,s4
    16d6:	ded2                	sw	s4,124(sp)
    16d8:	10012503          	lw	a0,256(sp)
        BCe = ROL(Ego, 55);
    16dc:	10c12083          	lw	ra,268(sp)
        BCa = ROL(Ebi, 62);
    16e0:	c526                	sw	s1,136(sp)
        BCu = ROL(Eso, 56);
    16e2:	00aaeab3          	or	s5,s5,a0
    16e6:	c156                	sw	s5,128(sp)
        BCa = ROL(Ebi, 62);
    16e8:	10412503          	lw	a0,260(sp)
    16ec:	10812a83          	lw	s5,264(sp)
        BCe = ROL(Ego, 55);
    16f0:	11812483          	lw	s1,280(sp)
        BCo = ROL(Ema, 41);
    16f4:	01df6f33          	or	t5,t5,t4
        BCa = ROL(Ebi, 62);
    16f8:	01556ab3          	or	s5,a0,s5
        BCe = ROL(Ego, 55);
    16fc:	11012503          	lw	a0,272(sp)
        BCo = ROL(Ema, 41);
    1700:	12c12e83          	lw	t4,300(sp)
        BCu = ROL(Ese, 2);
    1704:	01efde13          	srli	t3,t6,0x1e
        BCe = ROL(Ego, 55);
    1708:	00a0e0b3          	or	ra,ra,a0
    170c:	11412503          	lw	a0,276(sp)
    1710:	c706                	sw	ra,140(sp)
        BCi = ROL(Eku, 39);
    1712:	12412083          	lw	ra,292(sp)
        BCe = ROL(Ego, 55);
    1716:	8cc9                	or	s1,s1,a0
        BCi = ROL(Eku, 39);
    1718:	11c12503          	lw	a0,284(sp)
        BCu = ROL(Ese, 2);
    171c:	0f8a                	slli	t6,t6,0x2
    171e:	01e3d393          	srli	t2,t2,0x1e
        BCi = ROL(Eku, 39);
    1722:	00a2e2b3          	or	t0,t0,a0
    1726:	12012503          	lw	a0,288(sp)
        BCu = ROL(Ese, 2);
    172a:	01f3e3b3          	or	t2,t2,t6
        BCa = ROL(Ebi, 62);
    172e:	c356                	sw	s5,132(sp)
        BCi = ROL(Eku, 39);
    1730:	001560b3          	or	ra,a0,ra
        BCo = ROL(Ema, 41);
    1734:	12812503          	lw	a0,296(sp)
        BCe = ROL(Ego, 55);
    1738:	c926                	sw	s1,144(sp)
        BCi = ROL(Eku, 39);
    173a:	cb16                	sw	t0,148(sp)
        BCo = ROL(Ema, 41);
    173c:	01d56eb3          	or	t4,a0,t4
        BCu = ROL(Ese, 2);
    1740:	13012503          	lw	a0,304(sp)
        BCi = ROL(Eku, 39);
    1744:	cd06                	sw	ra,152(sp)
        BCo = ROL(Ema, 41);
    1746:	cf7a                	sw	t5,156(sp)
        BCu = ROL(Ese, 2);
    1748:	00ae6e33          	or	t3,t3,a0
        BCo = ROL(Ema, 41);
    174c:	d176                	sw	t4,160(sp)
        BCu = ROL(Ese, 2);
    174e:	d572                	sw	t3,168(sp)
    1750:	d31e                	sw	t2,164(sp)
        Abe = BCe ^ ((~BCi) & BCo);
    1752:	df36                	sw	a3,188(sp)
    1754:	c1e2                	sw	s8,192(sp)
        Abi = BCi ^ ((~BCo) & BCu);
    1756:	c3da                	sw	s6,196(sp)
        Abo = BCo ^ ((~BCu) & BCa);
    1758:	c5de                	sw	s7,200(sp)
        Aba = BCa ^ ((~BCe) & BCi);
    175a:	4e32                	lw	t3,12(sp)
    175c:	4ec2                	lw	t4,16(sp)
        Abi = BCi ^ ((~BCo) & BCu);
    175e:	4652                	lw	a2,20(sp)
        Abo = BCo ^ ((~BCu) & BCa);
    1760:	45e2                	lw	a1,24(sp)
        Abu = BCu ^ ((~BCa) & BCe);
    1762:	fff84a93          	not	s5,a6
    1766:	d742                	sw	a6,172(sp)
        Ako = BCo ^ ((~BCu) & BCa);
    1768:	4866                	lw	a6,88(sp)
        Aba = BCa ^ ((~BCe) & BCi);
    176a:	fffec793          	not	a5,t4
    176e:	0187f7b3          	and	a5,a5,s8
        Ako = BCo ^ ((~BCu) & BCa);
    1772:	fff84813          	not	a6,a6
    1776:	c7c2                	sw	a6,204(sp)
        Aku = BCu ^ ((~BCa) & BCe);
    1778:	5852                	lw	a6,52(sp)
        Abe = BCe ^ ((~BCi) & BCo);
    177a:	fffc4d13          	not	s10,s8
        Age = BCe ^ ((~BCi) & BCo);
    177e:	d1c6                	sw	a7,224(sp)
        Aku = BCu ^ ((~BCa) & BCe);
    1780:	fff84813          	not	a6,a6
    1784:	c9c2                	sw	a6,208(sp)
    1786:	5862                	lw	a6,56(sp)
        Abi = BCi ^ ((~BCo) & BCu);
    1788:	fff64c13          	not	s8,a2
        Age = BCe ^ ((~BCi) & BCo);
    178c:	fff8c093          	not	ra,a7
        Aku = BCu ^ ((~BCa) & BCe);
    1790:	fff84813          	not	a6,a6
    1794:	d5c2                	sw	a6,232(sp)
        Ama = BCa ^ ((~BCe) & BCi);
    1796:	5816                	lw	a6,100(sp)
        Agu = BCu ^ ((~BCa) & BCe);
    1798:	5882                	lw	a7,32(sp)
        Aka = BCa ^ ((~BCe) & BCi);
    179a:	4606                	lw	a2,64(sp)
        Ama = BCa ^ ((~BCe) & BCi);
    179c:	fff84813          	not	a6,a6
    17a0:	ddc2                	sw	a6,248(sp)
    17a2:	5826                	lw	a6,104(sp)
        Aba = BCa ^ ((~BCe) & BCi);
    17a4:	fffe4713          	not	a4,t3
    17a8:	8f75                	and	a4,a4,a3
        Abe = BCe ^ ((~BCi) & BCo);
    17aa:	fff6cd93          	not	s11,a3
        Age = BCe ^ ((~BCi) & BCo);
    17ae:	cf9a                	sw	t1,220(sp)
        Aka = BCa ^ ((~BCe) & BCi);
    17b0:	56f2                	lw	a3,60(sp)
        Age = BCe ^ ((~BCi) & BCo);
    17b2:	fff34493          	not	s1,t1
        Agu = BCu ^ ((~BCa) & BCe);
    17b6:	fff8ce13          	not	t3,a7
    17ba:	4372                	lw	t1,28(sp)
        Aka = BCa ^ ((~BCe) & BCi);
    17bc:	fff64893          	not	a7,a2
        Ake = BCe ^ ((~BCi) & BCo);
    17c0:	4616                	lw	a2,68(sp)
        Ama = BCa ^ ((~BCe) & BCi);
    17c2:	fff84813          	not	a6,a6
    17c6:	11012023          	sw	a6,256(sp)
        Ame = BCe ^ ((~BCi) & BCo);
    17ca:	5836                	lw	a6,108(sp)
        Agu = BCu ^ ((~BCa) & BCe);
    17cc:	fff34e93          	not	t4,t1
        Aka = BCa ^ ((~BCe) & BCi);
    17d0:	fff6c313          	not	t1,a3
        Ake = BCe ^ ((~BCi) & BCo);
    17d4:	fff64693          	not	a3,a2
        Agi = BCi ^ ((~BCo) & BCu);
    17d8:	5f92                	lw	t6,36(sp)
        Abi = BCi ^ ((~BCo) & BCu);
    17da:	fffb4c93          	not	s9,s6
        Ake = BCe ^ ((~BCi) & BCo);
    17de:	dd36                	sw	a3,184(sp)
        Abo = BCo ^ ((~BCu) & BCa);
    17e0:	fff5cb13          	not	s6,a1
        Aki = BCi ^ ((~BCo) & BCu);
    17e4:	46b6                	lw	a3,76(sp)
        Ago = BCo ^ ((~BCu) & BCa);
    17e6:	55b2                	lw	a1,44(sp)
        Ame = BCe ^ ((~BCi) & BCo);
    17e8:	fff84813          	not	a6,a6
    17ec:	11012223          	sw	a6,260(sp)
    17f0:	5846                	lw	a6,112(sp)
        Abu = BCu ^ ((~BCa) & BCe);
    17f2:	554a                	lw	a0,176(sp)
        Agi = BCi ^ ((~BCo) & BCu);
    17f4:	ffffc393          	not	t2,t6
        Ago = BCo ^ ((~BCu) & BCa);
    17f8:	fff5cf93          	not	t6,a1
        Aki = BCi ^ ((~BCo) & BCu);
    17fc:	fff6c593          	not	a1,a3
    1800:	46c6                	lw	a3,80(sp)
        Aga = BCa ^ ((~BCe) & BCi);
    1802:	cbce                	sw	s3,212(sp)
    1804:	cdca                	sw	s2,216(sp)
        Ame = BCe ^ ((~BCi) & BCo);
    1806:	fff84813          	not	a6,a6
        Agi = BCi ^ ((~BCo) & BCu);
    180a:	52a2                	lw	t0,40(sp)
        Ago = BCo ^ ((~BCu) & BCa);
    180c:	5f42                	lw	t5,48(sp)
        Abu = BCu ^ ((~BCa) & BCe);
    180e:	fff54a13          	not	s4,a0
        Aki = BCi ^ ((~BCo) & BCu);
    1812:	fff6c613          	not	a2,a3
        Ake = BCe ^ ((~BCi) & BCo);
    1816:	4526                	lw	a0,72(sp)
        Ako = BCo ^ ((~BCu) & BCa);
    1818:	46d6                	lw	a3,84(sp)
        Ame = BCe ^ ((~BCi) & BCo);
    181a:	11012423          	sw	a6,264(sp)
        Ami = BCi ^ ((~BCo) & BCu);
    181e:	5856                	lw	a6,116(sp)
        Abo = BCo ^ ((~BCu) & BCa);
    1820:	fffbcb93          	not	s7,s7
        Aga = BCa ^ ((~BCe) & BCi);
    1824:	fff9c993          	not	s3,s3
        Ami = BCi ^ ((~BCo) & BCu);
    1828:	fff84813          	not	a6,a6
    182c:	11012623          	sw	a6,268(sp)
    1830:	5866                	lw	a6,120(sp)
        Aga = BCa ^ ((~BCe) & BCi);
    1832:	fff94913          	not	s2,s2
        Agi = BCi ^ ((~BCo) & BCu);
    1836:	fff2c293          	not	t0,t0
        Ami = BCi ^ ((~BCo) & BCu);
    183a:	fff84813          	not	a6,a6
    183e:	11012823          	sw	a6,272(sp)
        Amo = BCo ^ ((~BCu) & BCa);
    1842:	5876                	lw	a6,124(sp)
        Ago = BCo ^ ((~BCu) & BCa);
    1844:	ffff4f13          	not	t5,t5
        Ake = BCe ^ ((~BCi) & BCo);
    1848:	fff54513          	not	a0,a0
        Amo = BCo ^ ((~BCu) & BCa);
    184c:	fff84813          	not	a6,a6
    1850:	11012a23          	sw	a6,276(sp)
    1854:	480a                	lw	a6,128(sp)
        Ako = BCo ^ ((~BCu) & BCa);
    1856:	fff6c693          	not	a3,a3
        Amo = BCo ^ ((~BCu) & BCa);
    185a:	fff84813          	not	a6,a6
    185e:	11012c23          	sw	a6,280(sp)
        Amu = BCu ^ ((~BCa) & BCe);
    1862:	4876                	lw	a6,92(sp)
    1864:	fff84813          	not	a6,a6
    1868:	11012e23          	sw	a6,284(sp)
    186c:	5806                	lw	a6,96(sp)
    186e:	fff84813          	not	a6,a6
    1872:	13012023          	sw	a6,288(sp)
        Asa = BCa ^ ((~BCe) & BCi);
    1876:	483a                	lw	a6,140(sp)
    1878:	fff84813          	not	a6,a6
    187c:	13012223          	sw	a6,292(sp)
    1880:	484a                	lw	a6,144(sp)
    1882:	fff84813          	not	a6,a6
    1886:	13012423          	sw	a6,296(sp)
        Ase = BCe ^ ((~BCi) & BCo);
    188a:	485a                	lw	a6,148(sp)
    188c:	fff84813          	not	a6,a6
    1890:	13012623          	sw	a6,300(sp)
    1894:	486a                	lw	a6,152(sp)
    1896:	fff84813          	not	a6,a6
    189a:	13012823          	sw	a6,304(sp)
        Asi = BCi ^ ((~BCo) & BCu);
    189e:	487a                	lw	a6,156(sp)
    18a0:	fff84813          	not	a6,a6
    18a4:	13012e23          	sw	a6,316(sp)
    18a8:	580a                	lw	a6,160(sp)
    18aa:	fff84813          	not	a6,a6
    18ae:	15012023          	sw	a6,320(sp)
        Aso = BCo ^ ((~BCu) & BCa);
    18b2:	581a                	lw	a6,164(sp)
    18b4:	fff84813          	not	a6,a6
    18b8:	15012223          	sw	a6,324(sp)
    18bc:	582a                	lw	a6,168(sp)
    18be:	fff84813          	not	a6,a6
    18c2:	15012423          	sw	a6,328(sp)
        Asu = BCu ^ ((~BCa) & BCe);
    18c6:	481a                	lw	a6,132(sp)
    18c8:	fff84813          	not	a6,a6
    18cc:	15012623          	sw	a6,332(sp)
    18d0:	482a                	lw	a6,136(sp)
    18d2:	fff84813          	not	a6,a6
    18d6:	15012823          	sw	a6,336(sp)
        Aba ^= KeccakF_RoundConstants_sw[round + 1];
    18da:	583a                	lw	a6,172(sp)
    18dc:	01074833          	xor	a6,a4,a6
    18e0:	db42                	sw	a6,180(sp)
        Abe = BCe ^ ((~BCi) & BCo);
    18e2:	481e                	lw	a6,196(sp)
        Aba ^= KeccakF_RoundConstants_sw[round + 1];
    18e4:	574a                	lw	a4,176(sp)
        Abe = BCe ^ ((~BCi) & BCo);
    18e6:	010dfdb3          	and	s11,s11,a6
    18ea:	4852                	lw	a6,20(sp)
        Aba ^= KeccakF_RoundConstants_sw[round + 1];
    18ec:	8fb9                	xor	a5,a5,a4
        Abo = BCo ^ ((~BCu) & BCa);
    18ee:	00eb7b33          	and	s6,s6,a4
        Abe = BCe ^ ((~BCi) & BCo);
    18f2:	010d7d33          	and	s10,s10,a6
        Abi = BCi ^ ((~BCo) & BCu);
    18f6:	482e                	lw	a6,200(sp)
        Abu = BCu ^ ((~BCa) & BCe);
    18f8:	4732                	lw	a4,12(sp)
        Aba ^= KeccakF_RoundConstants_sw[round + 1];
    18fa:	d93e                	sw	a5,176(sp)
        Abi = BCi ^ ((~BCo) & BCu);
    18fc:	010cfcb3          	and	s9,s9,a6
    1900:	4862                	lw	a6,24(sp)
        Abu = BCu ^ ((~BCa) & BCe);
    1902:	00eafab3          	and	s5,s5,a4
    1906:	4742                	lw	a4,16(sp)
        Abi = BCi ^ ((~BCo) & BCu);
    1908:	010c7c33          	and	s8,s8,a6
        Abo = BCo ^ ((~BCu) & BCa);
    190c:	583a                	lw	a6,172(sp)
        Abu = BCu ^ ((~BCa) & BCe);
    190e:	00ea7a33          	and	s4,s4,a4
        Aga = BCa ^ ((~BCe) & BCi);
    1912:	570e                	lw	a4,224(sp)
        Abo = BCo ^ ((~BCu) & BCa);
    1914:	010bfbb3          	and	s7,s7,a6
        Aga = BCa ^ ((~BCe) & BCi);
    1918:	487e                	lw	a6,220(sp)
    191a:	00e97933          	and	s2,s2,a4
        Age = BCe ^ ((~BCi) & BCo);
    191e:	5722                	lw	a4,40(sp)
        Aga = BCa ^ ((~BCe) & BCi);
    1920:	0109f9b3          	and	s3,s3,a6
        Age = BCe ^ ((~BCi) & BCo);
    1924:	5812                	lw	a6,36(sp)
    1926:	00e0f0b3          	and	ra,ra,a4
        Ago = BCo ^ ((~BCu) & BCa);
    192a:	4772                	lw	a4,28(sp)
        Age = BCe ^ ((~BCi) & BCo);
    192c:	0104f4b3          	and	s1,s1,a6
        Agi = BCi ^ ((~BCo) & BCu);
    1930:	5832                	lw	a6,44(sp)
    1932:	0103f3b3          	and	t2,t2,a6
    1936:	5842                	lw	a6,48(sp)
    1938:	0102f2b3          	and	t0,t0,a6
        Ago = BCo ^ ((~BCu) & BCa);
    193c:	00eff833          	and	a6,t6,a4
    1940:	5702                	lw	a4,32(sp)
    1942:	d3c2                	sw	a6,228(sp)
        Agu = BCu ^ ((~BCa) & BCe);
    1944:	485e                	lw	a6,212(sp)
        Ago = BCo ^ ((~BCu) & BCa);
    1946:	00ef7f33          	and	t5,t5,a4
        Aka = BCa ^ ((~BCe) & BCi);
    194a:	4716                	lw	a4,68(sp)
        Agu = BCu ^ ((~BCa) & BCe);
    194c:	010efeb3          	and	t4,t4,a6
    1950:	486e                	lw	a6,216(sp)
        Aka = BCa ^ ((~BCe) & BCi);
    1952:	00e37333          	and	t1,t1,a4
    1956:	4726                	lw	a4,72(sp)
        Agu = BCu ^ ((~BCa) & BCe);
    1958:	010e7e33          	and	t3,t3,a6
        Ake = BCe ^ ((~BCi) & BCo);
    195c:	4836                	lw	a6,76(sp)
        Aka = BCa ^ ((~BCe) & BCi);
    195e:	00e8f8b3          	and	a7,a7,a4
        Ake = BCe ^ ((~BCi) & BCo);
    1962:	576a                	lw	a4,184(sp)
        Ako = BCo ^ ((~BCu) & BCa);
    1964:	4fbe                	lw	t6,204(sp)
        Ake = BCe ^ ((~BCi) & BCo);
    1966:	01077833          	and	a6,a4,a6
    196a:	4746                	lw	a4,80(sp)
    196c:	8d79                	and	a0,a0,a4
        Aki = BCi ^ ((~BCo) & BCu);
    196e:	4756                	lw	a4,84(sp)
    1970:	8df9                	and	a1,a1,a4
    1972:	4766                	lw	a4,88(sp)
    1974:	8e79                	and	a2,a2,a4
        Ako = BCo ^ ((~BCu) & BCa);
    1976:	5752                	lw	a4,52(sp)
    1978:	8ef9                	and	a3,a3,a4
    197a:	5762                	lw	a4,56(sp)
    197c:	00efffb3          	and	t6,t6,a4
    1980:	d7fe                	sw	t6,236(sp)
        Aku = BCu ^ ((~BCa) & BCe);
    1982:	5772                	lw	a4,60(sp)
    1984:	4fce                	lw	t6,208(sp)
    1986:	00efffb3          	and	t6,t6,a4
    198a:	d9fe                	sw	t6,240(sp)
    198c:	4706                	lw	a4,64(sp)
    198e:	5fae                	lw	t6,232(sp)
    1990:	00efffb3          	and	t6,t6,a4
    1994:	dbfe                	sw	t6,244(sp)
        Ama = BCa ^ ((~BCe) & BCi);
    1996:	5736                	lw	a4,108(sp)
    1998:	5fee                	lw	t6,248(sp)
    199a:	00efffb3          	and	t6,t6,a4
    199e:	ddfe                	sw	t6,248(sp)
    19a0:	5746                	lw	a4,112(sp)
    19a2:	10012f83          	lw	t6,256(sp)
    19a6:	00efffb3          	and	t6,t6,a4
    19aa:	11f12023          	sw	t6,256(sp)
        Ame = BCe ^ ((~BCi) & BCo);
    19ae:	5756                	lw	a4,116(sp)
    19b0:	10412f83          	lw	t6,260(sp)
    19b4:	00efffb3          	and	t6,t6,a4
    19b8:	11f12223          	sw	t6,260(sp)
    19bc:	5766                	lw	a4,120(sp)
    19be:	10812f83          	lw	t6,264(sp)
    19c2:	00efffb3          	and	t6,t6,a4
    19c6:	11f12423          	sw	t6,264(sp)
        Ami = BCi ^ ((~BCo) & BCu);
    19ca:	5776                	lw	a4,124(sp)
    19cc:	10c12f83          	lw	t6,268(sp)
    19d0:	00efffb3          	and	t6,t6,a4
    19d4:	11f12623          	sw	t6,268(sp)
    19d8:	470a                	lw	a4,128(sp)
    19da:	11012f83          	lw	t6,272(sp)
    19de:	00efffb3          	and	t6,t6,a4
    19e2:	11f12823          	sw	t6,272(sp)
        Amo = BCo ^ ((~BCu) & BCa);
    19e6:	4776                	lw	a4,92(sp)
    19e8:	11412f83          	lw	t6,276(sp)
    19ec:	00efffb3          	and	t6,t6,a4
    19f0:	11f12a23          	sw	t6,276(sp)
    19f4:	5706                	lw	a4,96(sp)
    19f6:	11812f83          	lw	t6,280(sp)
    19fa:	00efffb3          	and	t6,t6,a4
    19fe:	11f12c23          	sw	t6,280(sp)
        Amu = BCu ^ ((~BCa) & BCe);
    1a02:	5716                	lw	a4,100(sp)
    1a04:	11c12f83          	lw	t6,284(sp)
    1a08:	00efffb3          	and	t6,t6,a4
    1a0c:	11f12e23          	sw	t6,284(sp)
    1a10:	12012f83          	lw	t6,288(sp)
    1a14:	5726                	lw	a4,104(sp)
    1a16:	00efffb3          	and	t6,t6,a4
    1a1a:	13f12023          	sw	t6,288(sp)
        Asa = BCa ^ ((~BCe) & BCi);
    1a1e:	475a                	lw	a4,148(sp)
    1a20:	12412f83          	lw	t6,292(sp)
    1a24:	00efffb3          	and	t6,t6,a4
    1a28:	13f12223          	sw	t6,292(sp)
    1a2c:	476a                	lw	a4,152(sp)
    1a2e:	12812f83          	lw	t6,296(sp)
    1a32:	00efffb3          	and	t6,t6,a4
    1a36:	13f12423          	sw	t6,296(sp)
        Ase = BCe ^ ((~BCi) & BCo);
    1a3a:	477a                	lw	a4,156(sp)
    1a3c:	12c12f83          	lw	t6,300(sp)
    1a40:	00efffb3          	and	t6,t6,a4
    1a44:	13f12623          	sw	t6,300(sp)
    1a48:	570a                	lw	a4,160(sp)
    1a4a:	13012f83          	lw	t6,304(sp)
    1a4e:	00efffb3          	and	t6,t6,a4
    1a52:	13f12823          	sw	t6,304(sp)
        Asi = BCi ^ ((~BCo) & BCu);
    1a56:	571a                	lw	a4,164(sp)
    1a58:	13c12f83          	lw	t6,316(sp)
    1a5c:	00efffb3          	and	t6,t6,a4
    1a60:	13f12e23          	sw	t6,316(sp)
    1a64:	572a                	lw	a4,168(sp)
    1a66:	14012f83          	lw	t6,320(sp)
    1a6a:	00efffb3          	and	t6,t6,a4
    1a6e:	15f12023          	sw	t6,320(sp)
        Aso = BCo ^ ((~BCu) & BCa);
    1a72:	471a                	lw	a4,132(sp)
    1a74:	14412f83          	lw	t6,324(sp)
    1a78:	00efffb3          	and	t6,t6,a4
    1a7c:	15f12223          	sw	t6,324(sp)
    1a80:	472a                	lw	a4,136(sp)
    1a82:	14812f83          	lw	t6,328(sp)
    1a86:	00efffb3          	and	t6,t6,a4
    1a8a:	15f12423          	sw	t6,328(sp)
        Asu = BCu ^ ((~BCa) & BCe);
    1a8e:	473a                	lw	a4,140(sp)
    1a90:	14c12f83          	lw	t6,332(sp)
    1a94:	00efffb3          	and	t6,t6,a4
    1a98:	15f12623          	sw	t6,332(sp)
    1a9c:	474a                	lw	a4,144(sp)
    1a9e:	15012f83          	lw	t6,336(sp)
    1aa2:	00efffb3          	and	t6,t6,a4
        Aba ^= KeccakF_RoundConstants_sw[round + 1];
    1aa6:	13412703          	lw	a4,308(sp)
    1aaa:	57da                	lw	a5,180(sp)
    1aac:	8f3d                	xor	a4,a4,a5
    1aae:	d73a                	sw	a4,172(sp)
    1ab0:	57ca                	lw	a5,176(sp)
    1ab2:	13812703          	lw	a4,312(sp)
    1ab6:	8fb9                	xor	a5,a5,a4
    1ab8:	d93e                	sw	a5,176(sp)
        Abi = BCi ^ ((~BCo) & BCu);
    1aba:	57fa                	lw	a5,188(sp)
        Abe = BCe ^ ((~BCi) & BCo);
    1abc:	4732                	lw	a4,12(sp)
        Abi = BCi ^ ((~BCo) & BCu);
    1abe:	00fcccb3          	xor	s9,s9,a5
    1ac2:	478e                	lw	a5,192(sp)
        Abe = BCe ^ ((~BCi) & BCo);
    1ac4:	00edcdb3          	xor	s11,s11,a4
    1ac8:	4742                	lw	a4,16(sp)
        Abi = BCi ^ ((~BCo) & BCu);
    1aca:	00fc4c33          	xor	s8,s8,a5
        Abo = BCo ^ ((~BCu) & BCa);
    1ace:	47d2                	lw	a5,20(sp)
        Abe = BCe ^ ((~BCi) & BCo);
    1ad0:	00ed4d33          	xor	s10,s10,a4
        Abo = BCo ^ ((~BCu) & BCa);
    1ad4:	471e                	lw	a4,196(sp)
    1ad6:	00fb4b33          	xor	s6,s6,a5
        Abu = BCu ^ ((~BCa) & BCe);
    1ada:	47e2                	lw	a5,24(sp)
        Abi = BCi ^ ((~BCo) & BCu);
    1adc:	c1e2                	sw	s8,192(sp)
        Abo = BCo ^ ((~BCu) & BCa);
    1ade:	00ebcc33          	xor	s8,s7,a4
        Abu = BCu ^ ((~BCa) & BCe);
    1ae2:	00fa4a33          	xor	s4,s4,a5
        Aga = BCa ^ ((~BCe) & BCi);
    1ae6:	47f2                	lw	a5,28(sp)
    1ae8:	5702                	lw	a4,32(sp)
        Abu = BCu ^ ((~BCa) & BCe);
    1aea:	4bae                	lw	s7,200(sp)
    1aec:	c5d2                	sw	s4,200(sp)
        Aga = BCa ^ ((~BCe) & BCi);
    1aee:	00f9ca33          	xor	s4,s3,a5
        Age = BCe ^ ((~BCi) & BCo);
    1af2:	49de                	lw	s3,212(sp)
        Agi = BCi ^ ((~BCo) & BCu);
    1af4:	47fe                	lw	a5,220(sp)
        Aga = BCa ^ ((~BCe) & BCi);
    1af6:	c7d2                	sw	s4,204(sp)
    1af8:	00e94a33          	xor	s4,s2,a4
        Agi = BCi ^ ((~BCo) & BCu);
    1afc:	570e                	lw	a4,224(sp)
        Age = BCe ^ ((~BCi) & BCo);
    1afe:	0134c9b3          	xor	s3,s1,s3
        Agi = BCi ^ ((~BCo) & BCu);
    1b02:	00f3c4b3          	xor	s1,t2,a5
        Abu = BCu ^ ((~BCa) & BCe);
    1b06:	017acab3          	xor	s5,s5,s7
        Agi = BCi ^ ((~BCo) & BCu);
    1b0a:	cba6                	sw	s1,212(sp)
    1b0c:	00e2c4b3          	xor	s1,t0,a4
        Age = BCe ^ ((~BCi) & BCo);
    1b10:	496e                	lw	s2,216(sp)
        Abo = BCo ^ ((~BCu) & BCa);
    1b12:	c85a                	sw	s6,16(sp)
        Abu = BCu ^ ((~BCa) & BCe);
    1b14:	c3d6                	sw	s5,196(sp)
        Aga = BCa ^ ((~BCe) & BCi);
    1b16:	c9d2                	sw	s4,208(sp)
        Agi = BCi ^ ((~BCo) & BCu);
    1b18:	cda6                	sw	s1,216(sp)
        Abe = BCe ^ ((~BCi) & BCo);
    1b1a:	db6e                	sw	s11,180(sp)
    1b1c:	dd6a                	sw	s10,184(sp)
        Abi = BCi ^ ((~BCo) & BCu);
    1b1e:	df66                	sw	s9,188(sp)
        Abo = BCo ^ ((~BCu) & BCa);
    1b20:	c662                	sw	s8,12(sp)
        Ago = BCo ^ ((~BCu) & BCa);
    1b22:	5792                	lw	a5,36(sp)
    1b24:	571e                	lw	a4,228(sp)
        Age = BCe ^ ((~BCi) & BCo);
    1b26:	0120c933          	xor	s2,ra,s2
        Ago = BCo ^ ((~BCu) & BCa);
    1b2a:	00f744b3          	xor	s1,a4,a5
    1b2e:	5722                	lw	a4,40(sp)
        Agu = BCu ^ ((~BCa) & BCe);
    1b30:	57b2                	lw	a5,44(sp)
        Ago = BCo ^ ((~BCu) & BCa);
    1b32:	cfa6                	sw	s1,220(sp)
    1b34:	00ef44b3          	xor	s1,t5,a4
        Agu = BCu ^ ((~BCa) & BCe);
    1b38:	5f42                	lw	t5,48(sp)
        Ago = BCo ^ ((~BCu) & BCa);
    1b3a:	d1a6                	sw	s1,224(sp)
        Agu = BCu ^ ((~BCa) & BCe);
    1b3c:	00fec4b3          	xor	s1,t4,a5
        Aka = BCa ^ ((~BCe) & BCi);
    1b40:	57d2                	lw	a5,52(sp)
    1b42:	5762                	lw	a4,56(sp)
        Agu = BCu ^ ((~BCa) & BCe);
    1b44:	ca26                	sw	s1,20(sp)
    1b46:	01ee44b3          	xor	s1,t3,t5
    1b4a:	cc26                	sw	s1,24(sp)
        Aka = BCa ^ ((~BCe) & BCi);
    1b4c:	00f344b3          	xor	s1,t1,a5
        Ake = BCe ^ ((~BCi) & BCo);
    1b50:	57f2                	lw	a5,60(sp)
        Aka = BCa ^ ((~BCe) & BCi);
    1b52:	d226                	sw	s1,36(sp)
    1b54:	00e8c4b3          	xor	s1,a7,a4
        Ake = BCe ^ ((~BCi) & BCo);
    1b58:	4706                	lw	a4,64(sp)
        Aka = BCa ^ ((~BCe) & BCi);
    1b5a:	d426                	sw	s1,40(sp)
        Ake = BCe ^ ((~BCi) & BCo);
    1b5c:	00f844b3          	xor	s1,a6,a5
    1b60:	d3a6                	sw	s1,228(sp)
    1b62:	00e544b3          	xor	s1,a0,a4
        Aki = BCi ^ ((~BCo) & BCu);
    1b66:	4726                	lw	a4,72(sp)
    1b68:	4796                	lw	a5,68(sp)
        Ako = BCo ^ ((~BCu) & BCa);
    1b6a:	4836                	lw	a6,76(sp)
        Aki = BCi ^ ((~BCo) & BCu);
    1b6c:	00e64a33          	xor	s4,a2,a4
        Ako = BCo ^ ((~BCu) & BCa);
    1b70:	563e                	lw	a2,236(sp)
    1b72:	4746                	lw	a4,80(sp)
        Aki = BCi ^ ((~BCo) & BCu);
    1b74:	00f5cab3          	xor	s5,a1,a5
        Ako = BCo ^ ((~BCu) & BCa);
    1b78:	0106c5b3          	xor	a1,a3,a6
    1b7c:	d82e                	sw	a1,48(sp)
        Aku = BCu ^ ((~BCa) & BCe);
    1b7e:	46d6                	lw	a3,84(sp)
        Ako = BCo ^ ((~BCu) & BCa);
    1b80:	00e645b3          	xor	a1,a2,a4
        Aku = BCu ^ ((~BCa) & BCe);
    1b84:	564e                	lw	a2,240(sp)
    1b86:	4766                	lw	a4,88(sp)
        Ama = BCa ^ ((~BCe) & BCi);
    1b88:	47f6                	lw	a5,92(sp)
        Aku = BCu ^ ((~BCa) & BCe);
    1b8a:	8e35                	xor	a2,a2,a3
    1b8c:	56de                	lw	a3,244(sp)
    1b8e:	d7b2                	sw	a2,236(sp)
        Ake = BCe ^ ((~BCi) & BCo);
    1b90:	d5a6                	sw	s1,232(sp)
        Aku = BCu ^ ((~BCa) & BCe);
    1b92:	00e6c633          	xor	a2,a3,a4
        Ama = BCa ^ ((~BCe) & BCi);
    1b96:	56ee                	lw	a3,248(sp)
        Aku = BCu ^ ((~BCa) & BCe);
    1b98:	d9b2                	sw	a2,240(sp)
        Ako = BCo ^ ((~BCu) & BCa);
    1b9a:	da2e                	sw	a1,52(sp)
        Ama = BCa ^ ((~BCe) & BCi);
    1b9c:	00f6c633          	xor	a2,a3,a5
    1ba0:	dbb2                	sw	a2,244(sp)
    1ba2:	10012683          	lw	a3,256(sp)
    1ba6:	5706                	lw	a4,96(sp)
        Ami = BCi ^ ((~BCo) & BCu);
    1ba8:	57b6                	lw	a5,108(sp)
        Ama = BCa ^ ((~BCe) & BCi);
    1baa:	00e6c633          	xor	a2,a3,a4
        Ame = BCe ^ ((~BCi) & BCo);
    1bae:	10412683          	lw	a3,260(sp)
    1bb2:	5716                	lw	a4,100(sp)
        Ama = BCa ^ ((~BCe) & BCi);
    1bb4:	ddb2                	sw	a2,248(sp)
        Ame = BCe ^ ((~BCi) & BCo);
    1bb6:	00e6cb33          	xor	s6,a3,a4
    1bba:	10812683          	lw	a3,264(sp)
    1bbe:	5726                	lw	a4,104(sp)
    1bc0:	00e6c633          	xor	a2,a3,a4
        Ami = BCi ^ ((~BCo) & BCu);
    1bc4:	10c12683          	lw	a3,268(sp)
    1bc8:	5746                	lw	a4,112(sp)
        Ame = BCe ^ ((~BCi) & BCo);
    1bca:	ce32                	sw	a2,28(sp)
        Ami = BCi ^ ((~BCo) & BCu);
    1bcc:	00f6c633          	xor	a2,a3,a5
    1bd0:	11012683          	lw	a3,272(sp)
        Amo = BCo ^ ((~BCu) & BCa);
    1bd4:	57d6                	lw	a5,116(sp)
        Ami = BCi ^ ((~BCo) & BCu);
    1bd6:	dc32                	sw	a2,56(sp)
    1bd8:	00e6c633          	xor	a2,a3,a4
        Amo = BCo ^ ((~BCu) & BCa);
    1bdc:	11412683          	lw	a3,276(sp)
    1be0:	5766                	lw	a4,120(sp)
        Ami = BCi ^ ((~BCo) & BCu);
    1be2:	de32                	sw	a2,60(sp)
        Amo = BCo ^ ((~BCu) & BCa);
    1be4:	00f6c633          	xor	a2,a3,a5
    1be8:	11812683          	lw	a3,280(sp)
    1bec:	d032                	sw	a2,32(sp)
    1bee:	00e6cbb3          	xor	s7,a3,a4
        Amu = BCu ^ ((~BCa) & BCe);
    1bf2:	11c12683          	lw	a3,284(sp)
    1bf6:	5776                	lw	a4,124(sp)
    1bf8:	00e6c633          	xor	a2,a3,a4
    1bfc:	12012683          	lw	a3,288(sp)
    1c00:	470a                	lw	a4,128(sp)
    1c02:	d632                	sw	a2,44(sp)
    1c04:	00e6c633          	xor	a2,a3,a4
        Asa = BCa ^ ((~BCe) & BCi);
    1c08:	12412683          	lw	a3,292(sp)
    1c0c:	471a                	lw	a4,132(sp)
        Amu = BCu ^ ((~BCa) & BCe);
    1c0e:	c0b2                	sw	a2,64(sp)
        Asa = BCa ^ ((~BCe) & BCi);
    1c10:	00e6c633          	xor	a2,a3,a4
    1c14:	12812683          	lw	a3,296(sp)
    1c18:	472a                	lw	a4,136(sp)
    1c1a:	c2b2                	sw	a2,68(sp)
    1c1c:	00e6c633          	xor	a2,a3,a4
    1c20:	c8b2                	sw	a2,80(sp)
        Ase = BCe ^ ((~BCi) & BCo);
    1c22:	12c12683          	lw	a3,300(sp)
    1c26:	473a                	lw	a4,140(sp)
        Asu = BCu ^ ((~BCa) & BCe);
    1c28:	579a                	lw	a5,164(sp)
        Ase = BCe ^ ((~BCi) & BCo);
    1c2a:	00e6c633          	xor	a2,a3,a4
    1c2e:	13012683          	lw	a3,304(sp)
    1c32:	474a                	lw	a4,144(sp)
    1c34:	d8b2                	sw	a2,112(sp)
    1c36:	00e6c633          	xor	a2,a3,a4
        Asi = BCi ^ ((~BCo) & BCu);
    1c3a:	13c12683          	lw	a3,316(sp)
    1c3e:	475a                	lw	a4,148(sp)
        Ase = BCe ^ ((~BCi) & BCo);
    1c40:	dab2                	sw	a2,116(sp)
        Asi = BCi ^ ((~BCo) & BCu);
    1c42:	00e6c633          	xor	a2,a3,a4
    1c46:	14012683          	lw	a3,320(sp)
    1c4a:	476a                	lw	a4,152(sp)
    1c4c:	c4b2                	sw	a2,72(sp)
    1c4e:	00e6c633          	xor	a2,a3,a4
        Aso = BCo ^ ((~BCu) & BCa);
    1c52:	14412683          	lw	a3,324(sp)
    1c56:	477a                	lw	a4,156(sp)
        Asi = BCi ^ ((~BCo) & BCu);
    1c58:	c6b2                	sw	a2,76(sp)
        Aso = BCo ^ ((~BCu) & BCa);
    1c5a:	00e6c633          	xor	a2,a3,a4
    1c5e:	14812683          	lw	a3,328(sp)
    1c62:	570a                	lw	a4,160(sp)
    1c64:	d2b2                	sw	a2,100(sp)
    1c66:	00e6c633          	xor	a2,a3,a4
        Asu = BCu ^ ((~BCa) & BCe);
    1c6a:	14c12683          	lw	a3,332(sp)
    1c6e:	572a                	lw	a4,168(sp)
        Aso = BCo ^ ((~BCu) & BCa);
    1c70:	d4b2                	sw	a2,104(sp)
        Asu = BCu ^ ((~BCa) & BCe);
    1c72:	8fb5                	xor	a5,a5,a3
    1c74:	cabe                	sw	a5,84(sp)
    1c76:	00efc7b3          	xor	a5,t6,a4
    1c7a:	ccbe                	sw	a5,88(sp)
    for (round = 0; round < NROUNDS; round += 2) {
    1c7c:	577e                	lw	a4,252(sp)
    1c7e:	15412783          	lw	a5,340(sp)
    1c82:	00e78463          	beq	a5,a4,1c8a <syscalls.c.c388568e+0x3a6>
    1c86:	9a9fe06f          	j	62e <main+0x418>
    state[1] = Abe;
    1c8a:	57da                	lw	a5,180(sp)
    state[6] = Age;
    1c8c:	2b312c23          	sw	s3,696(sp)
    1c90:	2b212e23          	sw	s2,700(sp)
    state[1] = Abe;
    1c94:	28f12823          	sw	a5,656(sp)
    1c98:	57ea                	lw	a5,184(sp)
    1c9a:	28f12a23          	sw	a5,660(sp)
    state[2] = Abi;
    1c9e:	57fa                	lw	a5,188(sp)
    1ca0:	28f12c23          	sw	a5,664(sp)
    1ca4:	478e                	lw	a5,192(sp)
    1ca6:	28f12e23          	sw	a5,668(sp)
    state[3] = Abo;
    1caa:	47b2                	lw	a5,12(sp)
    1cac:	2af12023          	sw	a5,672(sp)
    1cb0:	47c2                	lw	a5,16(sp)
    1cb2:	2af12223          	sw	a5,676(sp)
    state[4] = Abu;
    1cb6:	479e                	lw	a5,196(sp)
    1cb8:	2af12423          	sw	a5,680(sp)
    1cbc:	47ae                	lw	a5,200(sp)
    1cbe:	2af12623          	sw	a5,684(sp)
    state[5] = Aga;
    1cc2:	47be                	lw	a5,204(sp)
    1cc4:	2af12823          	sw	a5,688(sp)
    1cc8:	47ce                	lw	a5,208(sp)
    1cca:	2af12a23          	sw	a5,692(sp)
    state[7] = Agi;
    1cce:	47de                	lw	a5,212(sp)
    1cd0:	2cf12023          	sw	a5,704(sp)
    1cd4:	47ee                	lw	a5,216(sp)
    1cd6:	2cf12223          	sw	a5,708(sp)
    state[8] = Ago;
    1cda:	47fe                	lw	a5,220(sp)
    1cdc:	2cf12423          	sw	a5,712(sp)
    1ce0:	578e                	lw	a5,224(sp)
    1ce2:	2cf12623          	sw	a5,716(sp)
    CSR_READ(CSR_REG_MCYCLE, &cycles_sw);
    1ce6:	b00025f3          	csrr	a1,mcycle
    printf("with %d cycles\n", cycles_sw);
    1cea:	000804b7          	lui	s1,0x80
    1cee:	0e448513          	addi	a0,s1,228 # 800e4 <no_exception_handler_msg+0x4f>
    1cf2:	4c1010ef          	jal	ra,39b2 <iprintf>
    1cf6:	000807b7          	lui	a5,0x80
    1cfa:	6107aa83          	lw	s5,1552(a5) # 80610 <__SDATA_BEGIN__>
    1cfe:	6147ab83          	lw	s7,1556(a5)

    for (i = 0; i< 8; i++ ){
    1d02:	5d3a                	lw	s10,172(sp)
    1d04:	5dca                	lw	s11,176(sp)
    1d06:	28810993          	addi	s3,sp,648
    1d0a:	1c010913          	addi	s2,sp,448
    1d0e:	4a01                	li	s4,0
		if (s[i] != s_exp[i]){
			printf("ERROR KECCAK output did not match test vector. ");
    1d10:	00080cb7          	lui	s9,0x80
        	printf("Expected D[%d]: %04X but obtained %04X \n", i, s[i], s_exp[i]);
    1d14:	00080b37          	lui	s6,0x80
    for (i = 0; i< 8; i++ ){
    1d18:	4c21                	li	s8,8
    1d1a:	a809                	j	1d2c <syscalls.c.c388568e+0x448>
		if (s[i] != s_exp[i]){
    1d1c:	0009ad03          	lw	s10,0(s3)
    1d20:	0049ad83          	lw	s11,4(s3)
    1d24:	00092a83          	lw	s5,0(s2)
    1d28:	00492b83          	lw	s7,4(s2)
			printf("ERROR KECCAK output did not match test vector. ");
    1d2c:	0f4c8513          	addi	a0,s9,244 # 800f4 <no_exception_handler_msg+0x5f>
		if (s[i] != s_exp[i]){
    1d30:	015d1463          	bne	s10,s5,1d38 <syscalls.c.c388568e+0x454>
    1d34:	017d8d63          	beq	s11,s7,1d4e <syscalls.c.c388568e+0x46a>
			printf("ERROR KECCAK output did not match test vector. ");
    1d38:	47b010ef          	jal	ra,39b2 <iprintf>
        	printf("Expected D[%d]: %04X but obtained %04X \n", i, s[i], s_exp[i]);
    1d3c:	8756                	mv	a4,s5
    1d3e:	87de                	mv	a5,s7
    1d40:	866a                	mv	a2,s10
    1d42:	86ee                	mv	a3,s11
    1d44:	85d2                	mv	a1,s4
    1d46:	124b0513          	addi	a0,s6,292 # 80124 <no_exception_handler_msg+0x8f>
    1d4a:	469010ef          	jal	ra,39b2 <iprintf>
    for (i = 0; i< 8; i++ ){
    1d4e:	0a05                	addi	s4,s4,1
    1d50:	09a1                	addi	s3,s3,8
    1d52:	0921                	addi	s2,s2,8
    1d54:	fd8a14e3          	bne	s4,s8,1d1c <syscalls.c.c388568e+0x438>
{

  /* Clears all the Level/Edge registers */
  for(uint8_t i=0; i<RV_PLIC_LE_MULTIREG_COUNT; i++)
  {
    (&rv_plic_peri->LE0)[i] = 0;
    1d58:	300007b7          	lui	a5,0x30000
    1d5c:	0007a423          	sw	zero,8(a5) # 30000008 <_sp+0x2ff1f598>
  }


  /* Clears all the priority registers */
  for(uint8_t i=0; i<RV_PLIC_PARAM_NUM_SRC; i++)
    1d60:	300006b7          	lui	a3,0x30000
    (&rv_plic_peri->LE0)[i] = 0;
    1d64:	0007a623          	sw	zero,12(a5)
  for(uint8_t i=0; i<RV_PLIC_PARAM_NUM_SRC; i++)
    1d68:	11068713          	addi	a4,a3,272 # 30000110 <_sp+0x2ff1f6a0>
    (&rv_plic_peri->LE0)[i] = 0;
    1d6c:	07c1                	addi	a5,a5,16
  {
    (&rv_plic_peri->PRIO0)[i] = 0;
    1d6e:	0007a023          	sw	zero,0(a5)
  for(uint8_t i=0; i<RV_PLIC_PARAM_NUM_SRC; i++)
    1d72:	0791                	addi	a5,a5,4
    1d74:	fee79de3          	bne	a5,a4,1d6e <syscalls.c.c388568e+0x48a>
  }

  /* Clears the Interrupt Enable registers */
  for(uint8_t i=0; i<RV_PLIC_IE0_MULTIREG_COUNT; i++)
  {
    (&rv_plic_peri->IE00)[i] = 0;
    1d78:	2006a023          	sw	zero,512(a3)
    1d7c:	2006a223          	sw	zero,516(a3)
  }

  /* Clears all the threshold registers */
  rv_plic_peri->THRESHOLD0 = 0;
    1d80:	2006a423          	sw	zero,520(a3)
  if(rv_plic_peri->THRESHOLD0 != 0)
    1d84:	2086a783          	lw	a5,520(a3)
    1d88:	e799                	bnez	a5,1d96 <syscalls.c.c388568e+0x4b2>
  {
    return kPlicError;
  }

  /* clears software interrupts registers */
  rv_plic_peri->MSIP0 = 0;
    1d8a:	2006a823          	sw	zero,528(a3)
  if(rv_plic_peri->MSIP0 != 0)
    1d8e:	2106a783          	lw	a5,528(a3)
    1d92:	1c078663          	beqz	a5,1f5e <syscalls.c.c388568e+0x67a>
    1d96:	000819b7          	lui	s3,0x81
    1d9a:	8d498993          	addi	s3,s3,-1836 # 808d4 <dma_cb>
		}	
	}

    init_athos();
    CSR_CLEAR_BITS(CSR_REG_MCOUNTINHIBIT, 0x1);
    1d9e:	4785                	li	a5,1
    1da0:	3207b073          	csrc	mcountinhibit,a5
    CSR_WRITE(CSR_REG_MCYCLE, 0);
    1da4:	4701                	li	a4,0
    1da6:	b0071073          	csrw	mcycle,a4
  uint32_t volatile *Din_reg_start = (uint32_t*)ATHOS_IP_DIN_START_ADDR;
  uint32_t volatile *ctrl_reg = (uint32_t*)ATHOS_IP_CTRL_START_ADDR;
  uint32_t volatile *Dout_reg_start = (uint32_t*)ATHOS_IP_DOUT_START_ADDR;


  plic_intr_flag = 0;
    1daa:	00080937          	lui	s2,0x80
    1dae:	66890913          	addi	s2,s2,1640 # 80668 <plic_intr_flag>


  uint32_t* ext_addr_4B_PTR = (uint32_t*)ATHOS_IP_DIN_START_ADDR;
  *ctrl_reg = (1 << ATHOS_IP_CTRL_CTRL_OPERATION_OFFSET);
    1db2:	40000693          	li	a3,1024
  plic_intr_flag = 0;
    1db6:	00090023          	sb	zero,0(s2)
  *ctrl_reg = (1 << ATHOS_IP_CTRL_CTRL_OPERATION_OFFSET);
    1dba:	20080737          	lui	a4,0x20080
    1dbe:	c314                	sw	a3,0(a4)
  //The DMA is initialized (i.e. Any current transaction is cleaned.)
  //dma_init(NULL);
  dma_config_flags_t res;
  //First DMA transaction consist on loading Din in ATHOS_IP register file
  dma_target_t tgt_src = {
    1dc0:	15812703          	lw	a4,344(sp)
    1dc4:	16012823          	sw	zero,368(sp)
                              .ptr        = Din,
                              .inc_du     = 1,
                              .trig       = DMA_TRIG_MEMORY,
                              .type       = DMA_DATA_TYPE_WORD,
                              };
  dma_target_t tgt_dst = {
    1dc8:	18012423          	sw	zero,392(sp)
  dma_target_t tgt_src = {
    1dcc:	16e12623          	sw	a4,364(sp)
  dma_target_t tgt_dst = {
    1dd0:	f0000737          	lui	a4,0xf0000
    1dd4:	18e12223          	sw	a4,388(sp)
                              .ptr        = ext_addr_4B_PTR,
                              .inc_du     = 1,
                              .trig       = DMA_TRIG_MEMORY,
                              };
  dma_trans_t trans = {
    1dd8:	12b8                	addi	a4,sp,360
    1dda:	18e12c23          	sw	a4,408(sp)
                              .dst        = &tgt_dst,
                              .mode       = DMA_TRANS_MODE_SINGLE,
                              .win_du     = 0,
                              .end        = DMA_TRANS_END_INTR,
                              };
  res = dma_load_transaction_keccak(&trans);
    1dde:	0b28                	addi	a0,sp,408
  dma_trans_t trans = {
    1de0:	0318                	addi	a4,sp,384
  dma_target_t tgt_src = {
    1de2:	16f11823          	sh	a5,368(sp)
  dma_target_t tgt_dst = {
    1de6:	18f11423          	sh	a5,392(sp)
  dma_trans_t trans = {
    1dea:	18e12e23          	sw	a4,412(sp)
    1dee:	1af12c23          	sw	a5,440(sp)
  dma_target_t tgt_src = {
    1df2:	16012423          	sw	zero,360(sp)
    1df6:	16012a23          	sw	zero,372(sp)
    1dfa:	16012c23          	sw	zero,376(sp)
    1dfe:	16012e23          	sw	zero,380(sp)
  dma_target_t tgt_dst = {
    1e02:	18012023          	sw	zero,384(sp)
    1e06:	18012623          	sw	zero,396(sp)
    1e0a:	18012823          	sw	zero,400(sp)
    1e0e:	18012a23          	sw	zero,404(sp)
  dma_trans_t trans = {
    1e12:	1a012023          	sw	zero,416(sp)
    1e16:	1a012223          	sw	zero,420(sp)
    1e1a:	1a012423          	sw	zero,424(sp)
    1e1e:	1a012623          	sw	zero,428(sp)
    1e22:	1a012823          	sw	zero,432(sp)
    1e26:	1a012a23          	sw	zero,436(sp)
    1e2a:	1a012e23          	sw	zero,444(sp)
  res = dma_load_transaction_keccak(&trans);
    1e2e:	2109                	jal	2230 <dma_load_transaction_keccak.isra.0>



__attribute__((optimize("O3"), always_inline)) inline uint32_t dma_is_ready(void)
{
    return (dma_cb.peri->STATUS & (1U << DMA_STATUS_READY_BIT));
    1e30:	0089a783          	lw	a5,8(s3)
  
  do {
      CSR_SET_BITS(CSR_REG_MSTATUS, 0x0);
    1e34:	4701                	li	a4,0
      if ( dma_is_ready() == 0 ) {
          wait_for_interrupt();
      }
      CSR_SET_BITS(CSR_REG_MSTATUS, 0x8);
    1e36:	46a1                	li	a3,8
    1e38:	4b9c                	lw	a5,16(a5)
    1e3a:	8b85                	andi	a5,a5,1
      CSR_SET_BITS(CSR_REG_MSTATUS, 0x0);
    1e3c:	30072073          	csrs	mstatus,a4
      if ( dma_is_ready() == 0 ) {
    1e40:	10078463          	beqz	a5,1f48 <syscalls.c.c388568e+0x664>
      CSR_SET_BITS(CSR_REG_MSTATUS, 0x8);
    1e44:	47a1                	li	a5,8
    1e46:	3007a073          	csrs	mstatus,a5
  while ( ! dma_is_ready());;

 

    asm volatile ("": : : "memory");
    *ctrl_reg = (1 << ATHOS_IP_CTRL_CTRL_C0_BIT) | (1 << ATHOS_IP_CTRL_CTRL_OPERATION_OFFSET);
    1e4a:	200807b7          	lui	a5,0x20080
    1e4e:	40100713          	li	a4,1025
    1e52:	c398                	sw	a4,0(a5)
    //*ctrl_reg = to_write; 
    asm volatile ("": : : "memory");
    *ctrl_reg = (0 << ATHOS_IP_CTRL_CTRL_C0_BIT) | (1 << ATHOS_IP_CTRL_CTRL_OPERATION_OFFSET);
    1e54:	40000713          	li	a4,1024
    1e58:	c398                	sw	a4,0(a5)



  // Wait till ATHOS_IP is done
  while(plic_intr_flag==0) {
    1e5a:	00094783          	lbu	a5,0(s2)
    1e5e:	e791                	bnez	a5,1e6a <syscalls.c.c388568e+0x586>
 * Hints to the processor that we don't have anything better to be doing, and to
 * go into low-power mode until an interrupt is serviced.
 *
 * This function may behave as if it is a no-op.
 */
inline void wait_for_interrupt(void) { asm volatile("wfi"); }
    1e60:	10500073          	wfi
    1e64:	00094783          	lbu	a5,0(s2)
    1e68:	dfe5                	beqz	a5,1e60 <syscalls.c.c388568e+0x57c>
      wait_for_interrupt();
  }

  ext_addr_4B_PTR = (uint32_t*)ATHOS_IP_DOUT_START_ADDR;
  tgt_src.ptr = ext_addr_4B_PTR;
  tgt_dst.ptr = Dout;
    1e6a:	000817b7          	lui	a5,0x81
    1e6e:	80c78913          	addi	s2,a5,-2036 # 8080c <Dout.1>
  tgt_src.ptr = ext_addr_4B_PTR;
    1e72:	f00007b7          	lui	a5,0xf0000
    1e76:	0c878793          	addi	a5,a5,200 # f00000c8 <_sp+0xeff1f658>


  res = dma_load_transaction_keccak(&trans);
    1e7a:	0b28                	addi	a0,sp,408
  tgt_src.ptr = ext_addr_4B_PTR;
    1e7c:	16f12623          	sw	a5,364(sp)
  tgt_dst.ptr = Dout;
    1e80:	19212223          	sw	s2,388(sp)
  res = dma_load_transaction_keccak(&trans);
    1e84:	2675                	jal	2230 <dma_load_transaction_keccak.isra.0>
    1e86:	0089a783          	lw	a5,8(s3)


   do{
      CSR_SET_BITS(CSR_REG_MSTATUS, 0x0);
    1e8a:	4701                	li	a4,0
      if ( dma_is_ready() == 0 ) {
          wait_for_interrupt();
      }
      CSR_SET_BITS(CSR_REG_MSTATUS, 0x8);
    1e8c:	46a1                	li	a3,8
    1e8e:	4b9c                	lw	a5,16(a5)
    1e90:	8b85                	andi	a5,a5,1
      CSR_SET_BITS(CSR_REG_MSTATUS, 0x0);
    1e92:	30072073          	csrs	mstatus,a4
      if ( dma_is_ready() == 0 ) {
    1e96:	cfd9                	beqz	a5,1f34 <syscalls.c.c388568e+0x650>
      CSR_SET_BITS(CSR_REG_MSTATUS, 0x8);
    1e98:	47a1                	li	a5,8
    1e9a:	3007a073          	csrs	mstatus,a5
  }
  while( ! dma_is_ready());
  *ctrl_reg = 0;
    1e9e:	200807b7          	lui	a5,0x20080
    1ea2:	0007a023          	sw	zero,0(a5) # 20080000 <_sp+0x1ff9f590>
	keccak_ip_driver(Din,Dout);
	CSR_READ(CSR_REG_MCYCLE, &cycles);
    1ea6:	b00025f3          	csrr	a1,mcycle
    printf("with %d cycles\n", cycles); 
    1eaa:	0e448513          	addi	a0,s1,228
    1eae:	305010ef          	jal	ra,39b2 <iprintf>

	for (i = 0; i< SIZE; i++ ){
    1eb2:	15c12483          	lw	s1,348(sp)
    1eb6:	4981                	li	s3,0
		if (Dout[i] != D_expected[i]){
			printf("ERROR keccak output did not match test vector. ");
    1eb8:	00080ab7          	lui	s5,0x80
        	printf("Expected D[%d]: %04X but obtained %04X \n", i, D_expected[i], Dout[i]);
    1ebc:	00080b37          	lui	s6,0x80
	for (i = 0; i< SIZE; i++ ){
    1ec0:	03200a13          	li	s4,50
		if (Dout[i] != D_expected[i]){
    1ec4:	00092703          	lw	a4,0(s2)
    1ec8:	409c                	lw	a5,0(s1)
			printf("ERROR keccak output did not match test vector. ");
    1eca:	150a8513          	addi	a0,s5,336 # 80150 <no_exception_handler_msg+0xbb>
		if (Dout[i] != D_expected[i]){
    1ece:	00f70c63          	beq	a4,a5,1ee6 <syscalls.c.c388568e+0x602>
			printf("ERROR keccak output did not match test vector. ");
    1ed2:	2e1010ef          	jal	ra,39b2 <iprintf>
        	printf("Expected D[%d]: %04X but obtained %04X \n", i, D_expected[i], Dout[i]);
    1ed6:	00092683          	lw	a3,0(s2)
    1eda:	4090                	lw	a2,0(s1)
    1edc:	85ce                	mv	a1,s3
    1ede:	124b0513          	addi	a0,s6,292 # 80124 <no_exception_handler_msg+0x8f>
    1ee2:	2d1010ef          	jal	ra,39b2 <iprintf>
	for (i = 0; i< SIZE; i++ ){
    1ee6:	0985                	addi	s3,s3,1
    1ee8:	0911                	addi	s2,s2,4
    1eea:	0491                	addi	s1,s1,4
    1eec:	fd499ce3          	bne	s3,s4,1ec4 <syscalls.c.c388568e+0x5e0>
		}	
	}	
	printf("Keccak terminated!\n");
    1ef0:	00080537          	lui	a0,0x80
    1ef4:	18050513          	addi	a0,a0,384 # 80180 <no_exception_handler_msg+0xeb>
    1ef8:	53f000ef          	jal	ra,2c36 <puts>
	return 0;

}
    1efc:	37c12083          	lw	ra,892(sp)
    1f00:	37812483          	lw	s1,888(sp)
    1f04:	37412903          	lw	s2,884(sp)
    1f08:	37012983          	lw	s3,880(sp)
    1f0c:	36c12a03          	lw	s4,876(sp)
    1f10:	36812a83          	lw	s5,872(sp)
    1f14:	36412b03          	lw	s6,868(sp)
    1f18:	36012b83          	lw	s7,864(sp)
    1f1c:	35c12c03          	lw	s8,860(sp)
    1f20:	35812c83          	lw	s9,856(sp)
    1f24:	35412d03          	lw	s10,852(sp)
    1f28:	35012d83          	lw	s11,848(sp)
    1f2c:	4501                	li	a0,0
    1f2e:	38010113          	addi	sp,sp,896
    1f32:	8082                	ret
    1f34:	10500073          	wfi
    1f38:	0089a783          	lw	a5,8(s3)
    1f3c:	4b9c                	lw	a5,16(a5)
      CSR_SET_BITS(CSR_REG_MSTATUS, 0x8);
    1f3e:	3006a073          	csrs	mstatus,a3
    1f42:	8b85                	andi	a5,a5,1
  while( ! dma_is_ready());
    1f44:	d7b9                	beqz	a5,1e92 <syscalls.c.c388568e+0x5ae>
    1f46:	bfa1                	j	1e9e <syscalls.c.c388568e+0x5ba>
    1f48:	10500073          	wfi
    1f4c:	0089a783          	lw	a5,8(s3)
    1f50:	4b9c                	lw	a5,16(a5)
      CSR_SET_BITS(CSR_REG_MSTATUS, 0x8);
    1f52:	3006a073          	csrs	mstatus,a3
    1f56:	8b85                	andi	a5,a5,1
  while ( ! dma_is_ready());;
    1f58:	ee0782e3          	beqz	a5,1e3c <syscalls.c.c388568e+0x558>
    1f5c:	b5fd                	j	1e4a <syscalls.c.c388568e+0x566>
  return kPlicBadArg;
}

void plic_reset_handlers_list(void)
{
  handlers[NULL_INTR] = &handler_irq_dummy;
    1f5e:	00081eb7          	lui	t4,0x81
    1f62:	6f09                	lui	t5,0x2
    1f64:	8e0e8e93          	addi	t4,t4,-1824 # 808e0 <handlers>
    1f68:	13ef0f13          	addi	t5,t5,318 # 213e <handler_irq_dummy>
    {
      handlers[i] = &handler_irq_gpio;
    }
    else if ( i <= I2C_ID_END)
    {
      handlers[i] = &handler_irq_i2c;
    1f6c:	6889                	lui	a7,0x2
      handlers[i] = &handler_irq_gpio;
    1f6e:	6509                	lui	a0,0x2
      handlers[i] = &handler_irq_uart;
    1f70:	6309                	lui	t1,0x2
  handlers[NULL_INTR] = &handler_irq_dummy;
    1f72:	01eea023          	sw	t5,0(t4)
  for( uint8_t i = NULL_INTR +1; i < QTY_INTR; i++ )
    1f76:	004e8713          	addi	a4,t4,4
  handlers[NULL_INTR] = &handler_irq_dummy;
    1f7a:	4785                	li	a5,1
    1f7c:	4081                	li	ra,0
    1f7e:	4981                	li	s3,0
    1f80:	4901                	li	s2,0
    if ( i <= UART_ID_END)
    1f82:	4621                	li	a2,8
    else if ( i <= GPIO_ID_END)
    1f84:	02000593          	li	a1,32
    else if ( i <= I2C_ID_END)
    1f88:	03000813          	li	a6,48
    }
    else if ( i == SPI_ID)
    1f8c:	03100e13          	li	t3,49
    {
      handlers[i] = &handler_irq_spi;
    }
    else if ( i == I2S_ID)
    1f90:	03200f93          	li	t6,50
    {
      handlers[i] = &handler_irq_i2s;
    }
    else if ( i == DMA_ID)
    1f94:	03300293          	li	t0,51
  for( uint8_t i = NULL_INTR +1; i < QTY_INTR; i++ )
    1f98:	03f00393          	li	t2,63
      handlers[i] = &handler_irq_i2c;
    1f9c:	16288893          	addi	a7,a7,354 # 2162 <handler_irq_i2c>
      handlers[i] = &handler_irq_gpio;
    1fa0:	22850513          	addi	a0,a0,552 # 2228 <handler_irq_gpio>
      handlers[i] = &handler_irq_uart;
    1fa4:	12c30313          	addi	t1,t1,300 # 212c <handler_irq_uart>
    1fa8:	a021                	j	1fb0 <syscalls.c.c388568e+0x6cc>
      handlers[i] = &handler_irq_gpio;
    1faa:	c308                	sw	a0,0(a4)
    1fac:	0785                	addi	a5,a5,1
    1fae:	0711                	addi	a4,a4,4
    if ( i <= UART_ID_END)
    1fb0:	0ff7f693          	zext.b	a3,a5
    1fb4:	00f67963          	bgeu	a2,a5,1fc6 <syscalls.c.c388568e+0x6e2>
    else if ( i <= GPIO_ID_END)
    1fb8:	fed5f9e3          	bgeu	a1,a3,1faa <syscalls.c.c388568e+0x6c6>
    else if ( i <= I2C_ID_END)
    1fbc:	00d86863          	bltu	a6,a3,1fcc <syscalls.c.c388568e+0x6e8>
      handlers[i] = &handler_irq_i2c;
    1fc0:	01172023          	sw	a7,0(a4) # f0000000 <_sp+0xeff1f590>
    1fc4:	b7e5                	j	1fac <syscalls.c.c388568e+0x6c8>
      handlers[i] = &handler_irq_uart;
    1fc6:	00672023          	sw	t1,0(a4)
    1fca:	b7cd                	j	1fac <syscalls.c.c388568e+0x6c8>
    else if ( i == SPI_ID)
    1fcc:	0dc68463          	beq	a3,t3,2094 <syscalls.c.c388568e+0x7b0>
    else if ( i == I2S_ID)
    1fd0:	0df68463          	beq	a3,t6,2098 <syscalls.c.c388568e+0x7b4>
    else if ( i == DMA_ID)
    1fd4:	0c568463          	beq	a3,t0,209c <syscalls.c.c388568e+0x7b8>
    {
      handlers[i] = &handler_irq_dma;
    }
    else
    {
      handlers[i] = &handler_irq_dummy;
    1fd8:	01e72023          	sw	t5,0(a4)
  for( uint8_t i = NULL_INTR +1; i < QTY_INTR; i++ )
    1fdc:	fc7698e3          	bne	a3,t2,1fac <syscalls.c.c388568e+0x6c8>
    1fe0:	00008763          	beqz	ra,1fee <syscalls.c.c388568e+0x70a>
    1fe4:	6789                	lui	a5,0x2
    1fe6:	22e78793          	addi	a5,a5,558 # 222e <handler_irq_dma>
    1fea:	0cfea623          	sw	a5,204(t4)
    1fee:	00098663          	beqz	s3,1ffa <syscalls.c.c388568e+0x716>
    1ff2:	00000793          	li	a5,0
    1ff6:	0cfea423          	sw	a5,200(t4)
    1ffa:	00090763          	beqz	s2,2008 <syscalls.c.c388568e+0x724>
    1ffe:	6789                	lui	a5,0x2
    2000:	21478793          	addi	a5,a5,532 # 2214 <handler_irq_spi>
    2004:	0cfea223          	sw	a5,196(t4)
  (&rv_plic_peri->PRIO0)[irq] = priority;
    2008:	300007b7          	lui	a5,0x30000
    200c:	0e078713          	addi	a4,a5,224 # 300000e0 <_sp+0x2ff1f670>
    2010:	4685                	li	a3,1
    2012:	c314                	sw	a3,0(a4)
  (&rv_plic_peri->IE00)[offset] = bitfield_write((&rv_plic_peri->IE00)[offset],
    2014:	20478793          	addi	a5,a5,516
    2018:	4398                	lw	a4,0(a5)
inline uint32_t bitfield_write(uint32_t bitfield,
                                       uint32_t mask, 
                                       uint32_t index,
                                       uint32_t value) 
{
  bitfield &= ~(mask << index);
    201a:	fff006b7          	lui	a3,0xfff00
    201e:	16fd                	addi	a3,a3,-1
    2020:	8f75                	and	a4,a4,a3
  bitfield |= (value & mask) << index;
    2022:	001006b7          	lui	a3,0x100
    2026:	8f55                	or	a4,a4,a3
    2028:	c398                	sw	a4,0(a5)
  // Enable the interrupt in reg 0 
  plic_res = plic_irq_set_enabled(EXT_INTR_0, kPlicToggleEnabled);

  // Enable interrupt on processor side
  // Enable global interrupt for machine-level interrupts
  CSR_SET_BITS(CSR_REG_MSTATUS, 0x8);
    202a:	46a1                	li	a3,8
    202c:	3006a073          	csrs	mstatus,a3
  // Set mie.MEIE bit to one to enable machine-level external interrupts
  const uint32_t mask = 1 << 11;//IRQ_EXT_ENABLE_OFFSET;
  CSR_SET_BITS(CSR_REG_MIE, mask);
    2030:	6705                	lui	a4,0x1
    2032:	80070793          	addi	a5,a4,-2048 # 800 <main+0x5ea>
    2036:	3047a073          	csrs	mie,a5
    dma_cb.peri = dma_peri;
    203a:	000819b7          	lui	s3,0x81
    203e:	200607b7          	lui	a5,0x20060
    2042:	8d498993          	addi	s3,s3,-1836 # 808d4 <dma_cb>
    2046:	00f9a423          	sw	a5,8(s3)
    dma_cb.trans = NULL;
    204a:	0009a023          	sw	zero,0(s3)
    dma_cb.peri->SRC_PTR       = 0;
    204e:	0007a023          	sw	zero,0(a5) # 20060000 <_sp+0x1ff7f590>
    dma_cb.peri->DST_PTR       = 0;
    2052:	0007a223          	sw	zero,4(a5)
    dma_cb.peri->SIZE          = 0;
    2056:	0007a623          	sw	zero,12(a5)
    dma_cb.peri->PTR_INC       = 0;
    205a:	0007aa23          	sw	zero,20(a5)
    dma_cb.peri->SLOT          = 0;
    205e:	0007ac23          	sw	zero,24(a5)
    dma_cb.peri->DATA_TYPE     = 0;
    2062:	0007ae23          	sw	zero,28(a5)
    dma_cb.peri->MODE          = 0;
    2066:	0207a023          	sw	zero,32(a5)
    dma_cb.peri->WINDOW_SIZE   = 0;
    206a:	0207a223          	sw	zero,36(a5)
    dma_cb.peri->INTERRUPT_EN  = 0;
    206e:	0207a623          	sw	zero,44(a5)
    CSR_CLEAR_BITS(CSR_REG_MIE, DMA_CSR_REG_MIE_MASK );
    2072:	000817b7          	lui	a5,0x81
    2076:	80078793          	addi	a5,a5,-2048 # 80800 <Din.2+0xbc>
    207a:	3047b073          	csrc	mie,a5
    CSR_SET_BITS(CSR_REG_MSTATUS, 0x8 );
    207e:	3006a073          	csrs	mstatus,a3
    CSR_SET_BITS(CSR_REG_MIE, DMA_CSR_REG_MIE_MASK );
    2082:	3047a073          	csrs	mie,a5


  dma_init(NULL);

  //Making the TRNG starts
  *ctrl_reg = (1 << ATHOS_IP_CTRL_CTRL_C3_BIT) | (4 << ATHOS_IP_CTRL_CTRL_OPERATION_OFFSET);
    2086:	200807b7          	lui	a5,0x20080
    208a:	0721                	addi	a4,a4,8
    208c:	c398                	sw	a4,0(a5)
  *ctrl_reg = (0 << ATHOS_IP_CTRL_CTRL_C3_BIT) | (0 << ATHOS_IP_CTRL_CTRL_OPERATION_OFFSET);
    208e:	0007a023          	sw	zero,0(a5) # 20080000 <_sp+0x1ff9f590>
    2092:	b331                	j	1d9e <syscalls.c.c388568e+0x4ba>
    2094:	4905                	li	s2,1
    2096:	bf19                	j	1fac <syscalls.c.c388568e+0x6c8>
    2098:	4985                	li	s3,1
    209a:	bf09                	j	1fac <syscalls.c.c388568e+0x6c8>
    209c:	4085                	li	ra,1
  for( uint8_t i = NULL_INTR +1; i < QTY_INTR; i++ )
    209e:	b739                	j	1fac <syscalls.c.c388568e+0x6c8>

000020a0 <__no_irq_handler>:
/*	j __no_irq_handler */

.section .text.vecs
/* exception handling */
__no_irq_handler:
	la a0, no_exception_handler_msg
    20a0:	0007e517          	auipc	a0,0x7e
    20a4:	ff550513          	addi	a0,a0,-11 # 80095 <no_exception_handler_msg>
	jal ra, puts
    20a8:	38f000ef          	jal	ra,2c36 <puts>
	j __no_irq_handler
    20ac:	ff5ff06f          	j	20a0 <__no_irq_handler>

000020b0 <sw_irq_handler>:


sw_irq_handler:
	csrr t0, mcause
    20b0:	342022f3          	csrr	t0,mcause
	slli t0, t0, 1  /* shift off the high bit */
    20b4:	00129293          	slli	t0,t0,0x1
	srli t0, t0, 1
    20b8:	0012d293          	srli	t0,t0,0x1
	li t1, 2
    20bc:	00200313          	li	t1,2
	beq t0, t1, handle_illegal_insn
    20c0:	02628c63          	beq	t0,t1,20f8 <handle_illegal_insn>
	li t1, 11
    20c4:	00b00313          	li	t1,11
	beq t0, t1, handle_ecall
    20c8:	00628863          	beq	t0,t1,20d8 <handle_ecall>
	li t1, 3
    20cc:	00300313          	li	t1,3
	beq t0, t1, handle_ebreak
    20d0:	00628c63          	beq	t0,t1,20e8 <handle_ebreak>
	j handle_unknown
    20d4:	0340006f          	j	2108 <handle_unknown>

000020d8 <handle_ecall>:

handle_ecall:
	la a0, ecall_msg
    20d8:	0007e517          	auipc	a0,0x7e
    20dc:	f5750513          	addi	a0,a0,-169 # 8002f <ecall_msg>
	jal ra, puts
    20e0:	357000ef          	jal	ra,2c36 <puts>
	j end_handler
    20e4:	0340006f          	j	2118 <end_handler>

000020e8 <handle_ebreak>:

handle_ebreak:
	la a0, ebreak_msg
    20e8:	0007e517          	auipc	a0,0x7e
    20ec:	f6850513          	addi	a0,a0,-152 # 80050 <ebreak_msg>
	jal ra, puts
    20f0:	347000ef          	jal	ra,2c36 <puts>
	j end_handler
    20f4:	0240006f          	j	2118 <end_handler>

000020f8 <handle_illegal_insn>:

handle_illegal_insn:
	la a0, illegal_insn_msg
    20f8:	0007e517          	auipc	a0,0x7e
    20fc:	f0850513          	addi	a0,a0,-248 # 80000 <illegal_insn_msg>
	jal ra, puts
    2100:	337000ef          	jal	ra,2c36 <puts>
	j end_handler
    2104:	0140006f          	j	2118 <end_handler>

00002108 <handle_unknown>:

handle_unknown:
	la a0, unknown_msg
    2108:	0007e517          	auipc	a0,0x7e
    210c:	f6a50513          	addi	a0,a0,-150 # 80072 <unknown_msg>
	jal ra, puts
    2110:	327000ef          	jal	ra,2c36 <puts>
	j end_handler
    2114:	0040006f          	j	2118 <end_handler>

00002118 <end_handler>:

end_handler:
	csrr a0, mepc
    2118:	34102573          	csrr	a0,mepc
	addi a0, a0, 4
    211c:	00450513          	addi	a0,a0,4
	csrw mepc, a0
    2120:	34151073          	csrw	mepc,a0
	mret
    2124:	30200073          	mret

00002128 <verification_irq_handler>:
/* this interrupt can be generated for verification purposes, random or when the PC is equal to a given value*/
verification_irq_handler:
	mret
    2128:	30200073          	mret

0000212c <handler_irq_uart>:
size_t uart_sink(void *uart, const char *data, size_t len) {
  return uart_write((const uart_t *)uart, (const uint8_t *)data, len);
}

__attribute__((weak, optimize("O0"))) void handler_irq_uart(uint32_t id)
{
    212c:	1101                	addi	sp,sp,-32
    212e:	ce22                	sw	s0,28(sp)
    2130:	1000                	addi	s0,sp,32
    2132:	fea42623          	sw	a0,-20(s0)
 // Replace this function with a non-weak implementation
    2136:	0001                	nop
    2138:	4472                	lw	s0,28(sp)
    213a:	6105                	addi	sp,sp,32
    213c:	8082                	ret

0000213e <handler_irq_dummy>:
/*                            LOCAL FUNCTIONS                               */
/**                                                                        **/
/****************************************************************************/

__attribute__((optimize("O0"))) static void handler_irq_dummy( uint32_t dummy )
{
    213e:	1101                	addi	sp,sp,-32
    2140:	ce22                	sw	s0,28(sp)
    2142:	1000                	addi	s0,sp,32
    2144:	fea42623          	sw	a0,-20(s0)
}
    2148:	0001                	nop
    214a:	4472                	lw	s0,28(sp)
    214c:	6105                	addi	sp,sp,32
    214e:	8082                	ret

00002150 <gpio_handler_irq_dummy>:
/*                            LOCAL FUNCTIONS                               */
/**                                                                        **/
/****************************************************************************/

__attribute__((optimize("O0"))) static void gpio_handler_irq_dummy( uint32_t dummy )
{
    2150:	1101                	addi	sp,sp,-32
    2152:	ce22                	sw	s0,28(sp)
    2154:	1000                	addi	s0,sp,32
    2156:	fea42623          	sw	a0,-20(s0)
  return;
    215a:	0001                	nop
}
    215c:	4472                	lw	s0,28(sp)
    215e:	6105                	addi	sp,sp,32
    2160:	8082                	ret

00002162 <handler_irq_i2c>:
    2162:	1101                	addi	sp,sp,-32
    2164:	ce22                	sw	s0,28(sp)
    2166:	1000                	addi	s0,sp,32
    2168:	fea42623          	sw	a0,-20(s0)
    216c:	fec42503          	lw	a0,-20(s0)
    2170:	4472                	lw	s0,28(sp)
    2172:	6105                	addi	sp,sp,32
    2174:	bf65                	j	212c <handler_irq_uart>

00002176 <fic_irq_timer_1>:
    fast_intr_ctrl_peri->FAST_INTR_CLEAR = reg;
    return kFastIntrCtrlOk_e;
}

__attribute__((weak, optimize("O0"))) void fic_irq_timer_1(void)
{
    2176:	1141                	addi	sp,sp,-16
    2178:	c622                	sw	s0,12(sp)
    217a:	0800                	addi	s0,sp,16
    /* Users should implement their non-weak version */
}
    217c:	0001                	nop
    217e:	4432                	lw	s0,12(sp)
    2180:	0141                	addi	sp,sp,16
    2182:	8082                	ret

00002184 <fic_irq_timer_2>:
    2184:	1141                	addi	sp,sp,-16
    2186:	c622                	sw	s0,12(sp)
    2188:	0800                	addi	s0,sp,16
    218a:	4432                	lw	s0,12(sp)
    218c:	0141                	addi	sp,sp,16
    218e:	b7e5                	j	2176 <fic_irq_timer_1>

00002190 <fic_irq_timer_3>:
    2190:	1141                	addi	sp,sp,-16
    2192:	c622                	sw	s0,12(sp)
    2194:	0800                	addi	s0,sp,16
    2196:	4432                	lw	s0,12(sp)
    2198:	0141                	addi	sp,sp,16
    219a:	bff1                	j	2176 <fic_irq_timer_1>

0000219c <fic_irq_spi>:
    219c:	1141                	addi	sp,sp,-16
    219e:	c622                	sw	s0,12(sp)
    21a0:	0800                	addi	s0,sp,16
    21a2:	4432                	lw	s0,12(sp)
    21a4:	0141                	addi	sp,sp,16
    21a6:	bfc1                	j	2176 <fic_irq_timer_1>

000021a8 <fic_irq_spi_flash>:
    21a8:	1141                	addi	sp,sp,-16
    21aa:	c622                	sw	s0,12(sp)
    21ac:	0800                	addi	s0,sp,16
    21ae:	4432                	lw	s0,12(sp)
    21b0:	0141                	addi	sp,sp,16
    21b2:	b7d1                	j	2176 <fic_irq_timer_1>

000021b4 <fic_irq_gpio_0>:
    21b4:	1141                	addi	sp,sp,-16
    21b6:	c622                	sw	s0,12(sp)
    21b8:	0800                	addi	s0,sp,16
    21ba:	4432                	lw	s0,12(sp)
    21bc:	0141                	addi	sp,sp,16
    21be:	bf65                	j	2176 <fic_irq_timer_1>

000021c0 <fic_irq_gpio_1>:
    21c0:	1141                	addi	sp,sp,-16
    21c2:	c622                	sw	s0,12(sp)
    21c4:	0800                	addi	s0,sp,16
    21c6:	4432                	lw	s0,12(sp)
    21c8:	0141                	addi	sp,sp,16
    21ca:	b775                	j	2176 <fic_irq_timer_1>

000021cc <fic_irq_gpio_2>:
    21cc:	1141                	addi	sp,sp,-16
    21ce:	c622                	sw	s0,12(sp)
    21d0:	0800                	addi	s0,sp,16
    21d2:	4432                	lw	s0,12(sp)
    21d4:	0141                	addi	sp,sp,16
    21d6:	b745                	j	2176 <fic_irq_timer_1>

000021d8 <fic_irq_gpio_3>:
    21d8:	1141                	addi	sp,sp,-16
    21da:	c622                	sw	s0,12(sp)
    21dc:	0800                	addi	s0,sp,16
    21de:	4432                	lw	s0,12(sp)
    21e0:	0141                	addi	sp,sp,16
    21e2:	bf51                	j	2176 <fic_irq_timer_1>

000021e4 <fic_irq_gpio_4>:
    21e4:	1141                	addi	sp,sp,-16
    21e6:	c622                	sw	s0,12(sp)
    21e8:	0800                	addi	s0,sp,16
    21ea:	4432                	lw	s0,12(sp)
    21ec:	0141                	addi	sp,sp,16
    21ee:	b761                	j	2176 <fic_irq_timer_1>

000021f0 <fic_irq_gpio_5>:
    21f0:	1141                	addi	sp,sp,-16
    21f2:	c622                	sw	s0,12(sp)
    21f4:	0800                	addi	s0,sp,16
    21f6:	4432                	lw	s0,12(sp)
    21f8:	0141                	addi	sp,sp,16
    21fa:	bfb5                	j	2176 <fic_irq_timer_1>

000021fc <fic_irq_gpio_6>:
    21fc:	1141                	addi	sp,sp,-16
    21fe:	c622                	sw	s0,12(sp)
    2200:	0800                	addi	s0,sp,16
    2202:	4432                	lw	s0,12(sp)
    2204:	0141                	addi	sp,sp,16
    2206:	bf85                	j	2176 <fic_irq_timer_1>

00002208 <fic_irq_gpio_7>:
    2208:	1141                	addi	sp,sp,-16
    220a:	c622                	sw	s0,12(sp)
    220c:	0800                	addi	s0,sp,16
    220e:	4432                	lw	s0,12(sp)
    2210:	0141                	addi	sp,sp,16
    2212:	b795                	j	2176 <fic_irq_timer_1>

00002214 <handler_irq_spi>:
    2214:	1101                	addi	sp,sp,-32
    2216:	ce22                	sw	s0,28(sp)
    2218:	1000                	addi	s0,sp,32
    221a:	fea42623          	sw	a0,-20(s0)
    221e:	fec42503          	lw	a0,-20(s0)
    2222:	4472                	lw	s0,28(sp)
    2224:	6105                	addi	sp,sp,32
    2226:	b719                	j	212c <handler_irq_uart>

00002228 <handler_irq_gpio>:
    gpio_handlers[ id - GPIO_INTR_START ]();
    2228:	4781                	li	a5,0
    222a:	8782                	jr	a5

0000222c <dma_intr_handler_trans_done>:
}

__attribute__((weak, optimize("O3"))) void dma_intr_handler_trans_done()
{
}
    222c:	8082                	ret

0000222e <handler_irq_dma>:
}
    222e:	8082                	ret

00002230 <dma_load_transaction_keccak.isra.0>:
    dma_cb.trans = p_trans;
    2230:	000816b7          	lui	a3,0x81
    2234:	8d468693          	addi	a3,a3,-1836 # 808d4 <dma_cb>
    dma_cb.peri->INTERRUPT_EN |= INTR_EN_TRANS_DONE;
    2238:	469c                	lw	a5,8(a3)
    dma_cb.peri->SRC_PTR = dma_cb.trans->src->ptr;
    223a:	410c                	lw	a1,0(a0)
    dma_cb.peri->DST_PTR = dma_cb.trans->dst->ptr;
    223c:	4158                	lw	a4,4(a0)
    peri_ptr[index] |= (4 & DMA_PTR_INC_DST_PTR_INC_MASK) << 8;
    223e:	0147a883          	lw	a7,20(a5)
    dma_cb.peri->SRC_PTR = dma_cb.trans->src->ptr;
    2242:	0045a803          	lw	a6,4(a1)
    dma_cb.peri->INTERRUPT_EN |= INTR_EN_TRANS_DONE;
    2246:	57d0                	lw	a2,44(a5)
    dma_cb.peri->DST_PTR = dma_cb.trans->dst->ptr;
    2248:	434c                	lw	a1,4(a4)
    peri_ptr[index] |= (4 & DMA_PTR_INC_DST_PTR_INC_MASK) << 8;
    224a:	7741                	lui	a4,0xffff0
    224c:	01177733          	and	a4,a4,a7
    2250:	40476713          	ori	a4,a4,1028
    dma_cb.peri->INTERRUPT_EN |= INTR_EN_TRANS_DONE;
    2254:	00166613          	ori	a2,a2,1
    peri_ptr[index] |= (4 & DMA_PTR_INC_DST_PTR_INC_MASK) << 8;
    2258:	cbd8                	sw	a4,20(a5)
    dma_cb.peri->SIZE = 200;
    225a:	0c800713          	li	a4,200
    dma_cb.trans = p_trans;
    225e:	c288                	sw	a0,0(a3)
    dma_cb.peri->INTERRUPT_EN |= INTR_EN_TRANS_DONE;
    2260:	d7d0                	sw	a2,44(a5)
    dma_cb.peri->SRC_PTR = dma_cb.trans->src->ptr;
    2262:	0107a023          	sw	a6,0(a5)
    dma_cb.peri->DST_PTR = dma_cb.trans->dst->ptr;
    2266:	c3cc                	sw	a1,4(a5)
    dma_cb.peri->SIZE = 200;
    2268:	c7d8                	sw	a4,12(a5)
}
    226a:	8082                	ret

0000226c <print_exc_msg>:
/**
 * Default Error Handling
 * @param msg error message supplied by caller
 * TODO - this will be soon by a real print formatting
 */
static void print_exc_msg(const char *msg) {
    226c:	85aa                	mv	a1,a0
  printf("%s", msg);
    226e:	00080537          	lui	a0,0x80
static void print_exc_msg(const char *msg) {
    2272:	1141                	addi	sp,sp,-16
  printf("%s", msg);
    2274:	0b850513          	addi	a0,a0,184 # 800b8 <no_exception_handler_msg+0x23>
static void print_exc_msg(const char *msg) {
    2278:	c606                	sw	ra,12(sp)
  printf("%s", msg);
    227a:	738010ef          	jal	ra,39b2 <iprintf>
  CSR_READ(CSR_REG_MTVAL, &mtval);
    227e:	343025f3          	csrr	a1,mtval
  printf("MTVAL value is 0x%x\n", get_mtval());
    2282:	00080537          	lui	a0,0x80
    2286:	0bc50513          	addi	a0,a0,188 # 800bc <no_exception_handler_msg+0x27>
    228a:	728010ef          	jal	ra,39b2 <iprintf>
  while (1) {
    228e:	a001                	j	228e <print_exc_msg+0x22>

00002290 <init>:
// Solderpad Hardware License, Version 2.1, see LICENSE.md for details.
// SPDX-License-Identifier: Apache-2.0 WITH SHL-2.1
int init()
{
    return 0;
    2290:	4501                	li	a0,0
    2292:	8082                	ret

00002294 <_close>:
}

int _close(int file)
{
    return -1;
}
    2294:	557d                	li	a0,-1
    2296:	8082                	ret

00002298 <_exit>:
 * @param offset the offset to write at, in bytes.
 * @param value the value to write.
 */
inline void mmio_region_write32(mmio_region_t base, ptrdiff_t offset,
                                uint32_t value) {
  ((volatile uint32_t *)base.base)[offset / sizeof(uint32_t)] = value;
    2298:	200007b7          	lui	a5,0x20000
    229c:	c3c8                	sw	a0,4(a5)
  ((volatile uint8_t *)base.base)[offset / sizeof(uint8_t)] = value;
    229e:	4705                	li	a4,1
    22a0:	00e78023          	sb	a4,0(a5) # 20000000 <_sp+0x1ff1f590>
    soc_ctrl_t soc_ctrl;
    soc_ctrl.base_addr = mmio_region_from_addr((uintptr_t)SOC_CTRL_START_ADDRESS);
    soc_ctrl_set_exit_value(&soc_ctrl, exit_status);
    soc_ctrl_set_valid(&soc_ctrl, (uint8_t)1);

    asm volatile("wfi");
    22a4:	10500073          	wfi

000022a8 <_fstat>:
    return -1;
}

int _fstat(int file, struct stat *st)
{
    st->st_mode = S_IFCHR;
    22a8:	6789                	lui	a5,0x2
    22aa:	c1dc                	sw	a5,4(a1)
    return 0;
    // errno = -ENOSYS;
    // return -1;
}
    22ac:	4501                	li	a0,0
    22ae:	8082                	ret

000022b0 <_isatty>:
    return -1;
}

int _isatty(int file)
{
    return (file == STDOUT_FILENO);
    22b0:	157d                	addi	a0,a0,-1
}
    22b2:	00153513          	seqz	a0,a0
    22b6:	8082                	ret

000022b8 <_lseek>:
}

off_t _lseek(int file, off_t ptr, int dir)
{
    return 0;
}
    22b8:	4501                	li	a0,0
    22ba:	8082                	ret

000022bc <_read>:
}

ssize_t _read(int file, void *ptr, size_t len)
{
    return 0;
}
    22bc:	4501                	li	a0,0
    22be:	8082                	ret

000022c0 <_write>:
    return -1;
}

ssize_t _write(int file, const void *ptr, size_t len)
{
    if (file != STDOUT_FILENO) {
    22c0:	4785                	li	a5,1
    22c2:	08f51d63          	bne	a0,a5,235c <_write+0x9c>
{
    22c6:	1141                	addi	sp,sp,-16
  return ((volatile uint32_t *)base.base)[offset / sizeof(uint32_t)];
    22c8:	200007b7          	lui	a5,0x20000
    22cc:	c24a                	sw	s2,4(sp)
    22ce:	8932                	mv	s2,a2
    22d0:	4fd0                	lw	a2,28(a5)
    22d2:	c606                	sw	ra,12(sp)
    22d4:	c426                	sw	s1,8(sp)
  if (uart->baudrate == 0 || uart->clk_freq_hz == 0) {
    22d6:	ce11                	beqz	a2,22f2 <_write+0x32>
  uint64_t nco =
    22d8:	84ae                	mv	s1,a1
    22da:	4681                	li	a3,0
    22dc:	80000537          	lui	a0,0x80000
    22e0:	03e00593          	li	a1,62
    22e4:	506020ef          	jal	ra,47ea <__udivdi3>
  uint32_t nco_masked = nco & UART_CTRL_NCO_MASK;
    22e8:	01051793          	slli	a5,a0,0x10
    22ec:	83c1                	srli	a5,a5,0x10
  if (nco != nco_masked) {
    22ee:	00a78a63          	beq	a5,a0,2302 <_write+0x42>
        errno = ENOSYS;
    22f2:	000807b7          	lui	a5,0x80
    22f6:	05800713          	li	a4,88
    22fa:	66e7a623          	sw	a4,1644(a5) # 8066c <errno>
        return -1;
    22fe:	557d                	li	a0,-1
    2300:	a889                	j	2352 <_write+0x92>
    2302:	f9e5                	bnez	a1,22f2 <_write+0x32>
  ((volatile uint32_t *)base.base)[offset / sizeof(uint32_t)] = value;
    2304:	200b0737          	lui	a4,0x200b0
    2308:	00072623          	sw	zero,12(a4) # 200b000c <_sp+0x1ffcf59c>
    230c:	478d                	li	a5,3
    230e:	cf5c                	sw	a5,28(a4)
    2310:	02072223          	sw	zero,36(a4)
    2314:	02072623          	sw	zero,44(a4)
    2318:	00072223          	sw	zero,4(a4)
  bitfield |= (value & field.mask) << field.index;
    231c:	01051793          	slli	a5,a0,0x10
    2320:	56fd                	li	a3,-1
    2322:	c314                	sw	a3,0(a4)
    2324:	0037e793          	ori	a5,a5,3
    2328:	c75c                	sw	a5,12(a4)
    232a:	00072223          	sw	zero,4(a4)
  while (len) {
    232e:	02090163          	beqz	s2,2350 <_write+0x90>
    2332:	012485b3          	add	a1,s1,s2
    uart_putchar(uart, *data);
    2336:	0004c683          	lbu	a3,0(s1)
  return ((volatile uint32_t *)base.base)[offset / sizeof(uint32_t)];
    233a:	4b1c                	lw	a5,16(a4)
  while (uart_tx_full(uart)) {
    233c:	8b85                	andi	a5,a5,1
    233e:	fff5                	bnez	a5,233a <_write+0x7a>
  ((volatile uint32_t *)base.base)[offset / sizeof(uint32_t)] = value;
    2340:	cf14                	sw	a3,24(a4)
  return ((volatile uint32_t *)base.base)[offset / sizeof(uint32_t)];
    2342:	4b1c                	lw	a5,16(a4)
  return (bitfield >> field.index) & field.mask;
    2344:	838d                	srli	a5,a5,0x3
  while (!uart_tx_idle(uart)) {
    2346:	8b85                	andi	a5,a5,1
    2348:	dfed                	beqz	a5,2342 <_write+0x82>
    data++;
    234a:	0485                	addi	s1,s1,1
  while (len) {
    234c:	fe9595e3          	bne	a1,s1,2336 <_write+0x76>
    if (uart_init(&uart) != kErrorOk) {
        errno = ENOSYS;
        return -1;
    }

    return uart_write(&uart,(uint8_t *)ptr,len);
    2350:	854a                	mv	a0,s2

}
    2352:	40b2                	lw	ra,12(sp)
    2354:	44a2                	lw	s1,8(sp)
    2356:	4912                	lw	s2,4(sp)
    2358:	0141                	addi	sp,sp,16
    235a:	8082                	ret
        errno = ENOSYS;
    235c:	000807b7          	lui	a5,0x80
    2360:	05800713          	li	a4,88
    2364:	66e7a623          	sw	a4,1644(a5) # 8066c <errno>
        return -1;
    2368:	557d                	li	a0,-1
}
    236a:	8082                	ret

0000236c <_sbrk>:
    return 0;
}

void *_sbrk(ptrdiff_t incr)
{
    char *old_brk = brk;
    236c:	00080737          	lui	a4,0x80

    if (__heap_start == __heap_end) {
    2370:	00081637          	lui	a2,0x81
    2374:	000b17b7          	lui	a5,0xb1
    char *old_brk = brk;
    2378:	65c70713          	addi	a4,a4,1628 # 8065c <brk>
    if (__heap_start == __heap_end) {
    237c:	a6c60613          	addi	a2,a2,-1428 # 80a6c <__BSS_END__>
    2380:	a6c78793          	addi	a5,a5,-1428 # b0a6c <__heap_end>
{
    2384:	86aa                	mv	a3,a0
    char *old_brk = brk;
    2386:	4308                	lw	a0,0(a4)
    if (__heap_start == __heap_end) {
    2388:	00f60b63          	beq	a2,a5,239e <_sbrk+0x32>
        return NULL;
    }

    if ((brk += incr) < __heap_end) {
    238c:	00d50633          	add	a2,a0,a3
    2390:	00f67563          	bgeu	a2,a5,239a <_sbrk+0x2e>
        brk += incr;
    2394:	9636                	add	a2,a2,a3
    2396:	c310                	sw	a2,0(a4)
    2398:	8082                	ret
    } else {
        brk = __heap_end;
    239a:	c31c                	sw	a5,0(a4)
    239c:	8082                	ret
        return NULL;
    239e:	4501                	li	a0,0
    }
    return old_brk;
}
    23a0:	8082                	ret
	...

000023a4 <handler_exception>:
  };
}

// Below functions are default weak exception handlers meant to be overriden
__attribute__((weak)) void handler_exception(void) {
    23a4:	7119                	addi	sp,sp,-128
    23a6:	de86                	sw	ra,124(sp)
    23a8:	dc96                	sw	t0,120(sp)
    23aa:	da9a                	sw	t1,116(sp)
    23ac:	d89e                	sw	t2,112(sp)
    23ae:	d6aa                	sw	a0,108(sp)
    23b0:	d4ae                	sw	a1,104(sp)
    23b2:	d2b2                	sw	a2,100(sp)
    23b4:	d0b6                	sw	a3,96(sp)
    23b6:	ceba                	sw	a4,92(sp)
    23b8:	ccbe                	sw	a5,88(sp)
    23ba:	cac2                	sw	a6,84(sp)
    23bc:	c8c6                	sw	a7,80(sp)
    23be:	c6f2                	sw	t3,76(sp)
    23c0:	c4f6                	sw	t4,72(sp)
    23c2:	c2fa                	sw	t5,68(sp)
    23c4:	c0fe                	sw	t6,64(sp)
  uint32_t mcause;
  exc_id_t exc_cause;

  CSR_READ(CSR_REG_MCAUSE, &mcause);
    23c6:	342027f3          	csrr	a5,mcause
  exc_cause = (exc_id_t)(mcause & kIdMax);

  switch (exc_cause) {
    23ca:	472d                	li	a4,11
  exc_cause = (exc_id_t)(mcause & kIdMax);
    23cc:	8bfd                	andi	a5,a5,31
  switch (exc_cause) {
    23ce:	00f76a63          	bltu	a4,a5,23e2 <handler_exception+0x3e>
    23d2:	00080737          	lui	a4,0x80
    23d6:	078a                	slli	a5,a5,0x2
    23d8:	29870713          	addi	a4,a4,664 # 80298 <no_exception_handler_msg+0x203>
    23dc:	97ba                	add	a5,a5,a4
    23de:	439c                	lw	a5,0(a5)
    23e0:	8782                	jr	a5
      break;
    case kECall:
      handler_ecall();
      break;
    default:
      while (1) {
    23e2:	a001                	j	23e2 <handler_exception+0x3e>
  const char exc_msg[] = "Load/Store fault, mtval shows the fault address\n";
  print_exc_msg(exc_msg);
}

__attribute__((weak)) void handler_ecall(void) {
  printf("Environment call encountered\n");
    23e4:	00080537          	lui	a0,0x80
    23e8:	19450513          	addi	a0,a0,404 # 80194 <no_exception_handler_msg+0xff>
    23ec:	04b000ef          	jal	ra,2c36 <puts>
  while (1) {
    23f0:	a001                	j	23f0 <handler_exception+0x4c>
  const char fault_msg[] =
    23f2:	000807b7          	lui	a5,0x80
    23f6:	1b478793          	addi	a5,a5,436 # 801b4 <no_exception_handler_msg+0x11f>
    23fa:	0048                	addi	a0,sp,4
    23fc:	872a                	mv	a4,a0
    23fe:	03078893          	addi	a7,a5,48
    2402:	0007a803          	lw	a6,0(a5)
    2406:	43cc                	lw	a1,4(a5)
    2408:	4790                	lw	a2,8(a5)
    240a:	47d4                	lw	a3,12(a5)
    240c:	01072023          	sw	a6,0(a4)
    2410:	c34c                	sw	a1,4(a4)
    2412:	c710                	sw	a2,8(a4)
    2414:	c754                	sw	a3,12(a4)
    2416:	07c1                	addi	a5,a5,16
    2418:	0741                	addi	a4,a4,16
    241a:	ff1794e3          	bne	a5,a7,2402 <handler_exception+0x5e>
    241e:	4394                	lw	a3,0(a5)
    2420:	0047c783          	lbu	a5,4(a5)
    2424:	c314                	sw	a3,0(a4)
    2426:	00f70223          	sb	a5,4(a4)
  print_exc_msg(fault_msg);
    242a:	3589                	jal	226c <print_exc_msg>
  const char fault_msg[] =
    242c:	000807b7          	lui	a5,0x80
    2430:	1b478793          	addi	a5,a5,436 # 801b4 <no_exception_handler_msg+0x11f>
    2434:	0048                	addi	a0,sp,4
    2436:	872a                	mv	a4,a0
    2438:	03078893          	addi	a7,a5,48
    243c:	0007a803          	lw	a6,0(a5)
    2440:	43cc                	lw	a1,4(a5)
    2442:	4790                	lw	a2,8(a5)
    2444:	47d4                	lw	a3,12(a5)
    2446:	01072023          	sw	a6,0(a4)
    244a:	c34c                	sw	a1,4(a4)
    244c:	c710                	sw	a2,8(a4)
    244e:	c754                	sw	a3,12(a4)
    2450:	07c1                	addi	a5,a5,16
    2452:	0741                	addi	a4,a4,16
    2454:	ff1794e3          	bne	a5,a7,243c <handler.c.0b49bfed+0x6>
    2458:	b7d9                	j	241e <handler_exception+0x7a>
  const char fault_msg[] =
    245a:	000807b7          	lui	a5,0x80
    245e:	1ec78793          	addi	a5,a5,492 # 801ec <no_exception_handler_msg+0x157>
    2462:	0048                	addi	a0,sp,4
    2464:	872a                	mv	a4,a0
    2466:	03c78313          	addi	t1,a5,60
    246a:	0007a883          	lw	a7,0(a5)
    246e:	0047a803          	lw	a6,4(a5)
    2472:	478c                	lw	a1,8(a5)
    2474:	47d0                	lw	a2,12(a5)
    2476:	4b94                	lw	a3,16(a5)
    2478:	01172023          	sw	a7,0(a4)
    247c:	01072223          	sw	a6,4(a4)
    2480:	c70c                	sw	a1,8(a4)
    2482:	c750                	sw	a2,12(a4)
    2484:	cb14                	sw	a3,16(a4)
    2486:	07d1                	addi	a5,a5,20
    2488:	0751                	addi	a4,a4,20
    248a:	fe6790e3          	bne	a5,t1,246a <handler.c.0b49bfed+0x34>
  print_exc_msg(exc_msg);
    248e:	3bf9                	jal	226c <print_exc_msg>
  const char exc_msg[] =
    2490:	000807b7          	lui	a5,0x80
    2494:	22878793          	addi	a5,a5,552 # 80228 <no_exception_handler_msg+0x193>
    2498:	0048                	addi	a0,sp,4
    249a:	872a                	mv	a4,a0
    249c:	03078893          	addi	a7,a5,48
    24a0:	0007a803          	lw	a6,0(a5)
    24a4:	43cc                	lw	a1,4(a5)
    24a6:	4790                	lw	a2,8(a5)
    24a8:	47d4                	lw	a3,12(a5)
    24aa:	01072023          	sw	a6,0(a4)
    24ae:	c34c                	sw	a1,4(a4)
    24b0:	c710                	sw	a2,8(a4)
    24b2:	c754                	sw	a3,12(a4)
    24b4:	07c1                	addi	a5,a5,16
    24b6:	0741                	addi	a4,a4,16
    24b8:	ff1794e3          	bne	a5,a7,24a0 <handler.c.0b49bfed+0x6a>
    24bc:	4390                	lw	a2,0(a5)
    24be:	43d4                	lw	a3,4(a5)
    24c0:	0087c783          	lbu	a5,8(a5)
    24c4:	c310                	sw	a2,0(a4)
    24c6:	c354                	sw	a3,4(a4)
    24c8:	00f70423          	sb	a5,8(a4)
  print_exc_msg(exc_msg);
    24cc:	3345                	jal	226c <print_exc_msg>
  const char exc_msg[] = "Load/Store fault, mtval shows the fault address\n";
    24ce:	000807b7          	lui	a5,0x80
    24d2:	26478793          	addi	a5,a5,612 # 80264 <no_exception_handler_msg+0x1cf>
    24d6:	0048                	addi	a0,sp,4
    24d8:	872a                	mv	a4,a0
    24da:	03078893          	addi	a7,a5,48
    24de:	0007a803          	lw	a6,0(a5)
    24e2:	43cc                	lw	a1,4(a5)
    24e4:	4790                	lw	a2,8(a5)
    24e6:	47d4                	lw	a3,12(a5)
    24e8:	01072023          	sw	a6,0(a4)
    24ec:	c34c                	sw	a1,4(a4)
    24ee:	c710                	sw	a2,8(a4)
    24f0:	c754                	sw	a3,12(a4)
    24f2:	07c1                	addi	a5,a5,16
    24f4:	0741                	addi	a4,a4,16
    24f6:	ff1794e3          	bne	a5,a7,24de <handler.c.0b49bfed+0xa8>
    24fa:	0007c783          	lbu	a5,0(a5)
    24fe:	00f70023          	sb	a5,0(a4)
    2502:	b771                	j	248e <handler.c.0b49bfed+0x58>
    2504:	000807b7          	lui	a5,0x80
    2508:	26478793          	addi	a5,a5,612 # 80264 <no_exception_handler_msg+0x1cf>
    250c:	0048                	addi	a0,sp,4
    250e:	872a                	mv	a4,a0
    2510:	03078893          	addi	a7,a5,48
    2514:	0007a803          	lw	a6,0(a5)
    2518:	43cc                	lw	a1,4(a5)
    251a:	4790                	lw	a2,8(a5)
    251c:	47d4                	lw	a3,12(a5)
    251e:	01072023          	sw	a6,0(a4)
    2522:	c34c                	sw	a1,4(a4)
    2524:	c710                	sw	a2,8(a4)
    2526:	c754                	sw	a3,12(a4)
    2528:	07c1                	addi	a5,a5,16
    252a:	0741                	addi	a4,a4,16
    252c:	ff1794e3          	bne	a5,a7,2514 <handler.c.0b49bfed+0xde>
    2530:	b7e9                	j	24fa <handler.c.0b49bfed+0xc4>
	...

00002534 <handler_irq_software>:
__attribute__((weak)) void handler_irq_software(void) {
    2534:	7139                	addi	sp,sp,-64
    2536:	d62a                	sw	a0,44(sp)
  printf("Software IRQ triggered!\n");
    2538:	00080537          	lui	a0,0x80
    253c:	2c850513          	addi	a0,a0,712 # 802c8 <no_exception_handler_msg+0x233>
__attribute__((weak)) void handler_irq_software(void) {
    2540:	de06                	sw	ra,60(sp)
    2542:	dc16                	sw	t0,56(sp)
    2544:	da1a                	sw	t1,52(sp)
    2546:	d81e                	sw	t2,48(sp)
    2548:	d42e                	sw	a1,40(sp)
    254a:	d232                	sw	a2,36(sp)
    254c:	d036                	sw	a3,32(sp)
    254e:	ce3a                	sw	a4,28(sp)
    2550:	cc3e                	sw	a5,24(sp)
    2552:	ca42                	sw	a6,20(sp)
    2554:	c846                	sw	a7,16(sp)
    2556:	c672                	sw	t3,12(sp)
    2558:	c476                	sw	t4,8(sp)
    255a:	c27a                	sw	t5,4(sp)
    255c:	c07e                	sw	t6,0(sp)
  printf("Software IRQ triggered!\n");
    255e:	2de1                	jal	2c36 <puts>
  while (1) {
    2560:	a001                	j	2560 <handler_irq_software+0x2c>
	...

00002564 <handler_irq_timer>:
__attribute__((weak)) void handler_irq_timer(void) {
    2564:	7139                	addi	sp,sp,-64
    2566:	d62a                	sw	a0,44(sp)
  printf("Timer IRQ triggered!\n");
    2568:	00080537          	lui	a0,0x80
    256c:	2e050513          	addi	a0,a0,736 # 802e0 <no_exception_handler_msg+0x24b>
__attribute__((weak)) void handler_irq_timer(void) {
    2570:	de06                	sw	ra,60(sp)
    2572:	dc16                	sw	t0,56(sp)
    2574:	da1a                	sw	t1,52(sp)
    2576:	d81e                	sw	t2,48(sp)
    2578:	d42e                	sw	a1,40(sp)
    257a:	d232                	sw	a2,36(sp)
    257c:	d036                	sw	a3,32(sp)
    257e:	ce3a                	sw	a4,28(sp)
    2580:	cc3e                	sw	a5,24(sp)
    2582:	ca42                	sw	a6,20(sp)
    2584:	c846                	sw	a7,16(sp)
    2586:	c672                	sw	t3,12(sp)
    2588:	c476                	sw	t4,8(sp)
    258a:	c27a                	sw	t5,4(sp)
    258c:	c07e                	sw	t6,0(sp)
  printf("Timer IRQ triggered!\n");
    258e:	2565                	jal	2c36 <puts>
  while (1) {
    2590:	a001                	j	2590 <handler_irq_timer+0x2c>
	...

00002594 <handler_irq_external>:
{
    2594:	715d                	addi	sp,sp,-80
    2596:	cc4a                	sw	s2,24(sp)
  *claim_data = rv_plic_peri->CC0;
    2598:	30000937          	lui	s2,0x30000
{
    259c:	de26                	sw	s1,60(sp)
  *claim_data = rv_plic_peri->CC0;
    259e:	20c92483          	lw	s1,524(s2) # 3000020c <_sp+0x2ff1f79c>
{
    25a2:	d23e                	sw	a5,36(sp)
    handlers[int_id](int_id);
    25a4:	000817b7          	lui	a5,0x81
{
    25a8:	d43a                	sw	a4,40(sp)
    handlers[int_id](int_id);
    25aa:	8e078793          	addi	a5,a5,-1824 # 808e0 <handlers>
    25ae:	00249713          	slli	a4,s1,0x2
    25b2:	97ba                	add	a5,a5,a4
    25b4:	439c                	lw	a5,0(a5)
{
    25b6:	dc2a                	sw	a0,56(sp)
    25b8:	c686                	sw	ra,76(sp)
    25ba:	c496                	sw	t0,72(sp)
    25bc:	c29a                	sw	t1,68(sp)
    25be:	c09e                	sw	t2,64(sp)
    25c0:	da2e                	sw	a1,52(sp)
    25c2:	d832                	sw	a2,48(sp)
    25c4:	d636                	sw	a3,44(sp)
    25c6:	d042                	sw	a6,32(sp)
    25c8:	ce46                	sw	a7,28(sp)
    25ca:	ca72                	sw	t3,20(sp)
    25cc:	c876                	sw	t4,16(sp)
    25ce:	c67a                	sw	t5,12(sp)
    25d0:	c47e                	sw	t6,8(sp)
    handlers[int_id](int_id);
    25d2:	8526                	mv	a0,s1
    25d4:	9782                	jalr	a5
    plic_intr_flag = 1;
    25d6:	000807b7          	lui	a5,0x80
    25da:	4705                	li	a4,1
    25dc:	66e78423          	sb	a4,1640(a5) # 80668 <plic_intr_flag>
  rv_plic_peri->CC0 = *complete_data;
    25e0:	20992623          	sw	s1,524(s2)
}
    25e4:	40b6                	lw	ra,76(sp)
    25e6:	42a6                	lw	t0,72(sp)
    25e8:	4316                	lw	t1,68(sp)
    25ea:	4386                	lw	t2,64(sp)
    25ec:	54f2                	lw	s1,60(sp)
    25ee:	5562                	lw	a0,56(sp)
    25f0:	55d2                	lw	a1,52(sp)
    25f2:	5642                	lw	a2,48(sp)
    25f4:	56b2                	lw	a3,44(sp)
    25f6:	5722                	lw	a4,40(sp)
    25f8:	5792                	lw	a5,36(sp)
    25fa:	5802                	lw	a6,32(sp)
    25fc:	48f2                	lw	a7,28(sp)
    25fe:	4962                	lw	s2,24(sp)
    2600:	4e52                	lw	t3,20(sp)
    2602:	4ec2                	lw	t4,16(sp)
    2604:	4f32                	lw	t5,12(sp)
    2606:	4fa2                	lw	t6,8(sp)
    2608:	6161                	addi	sp,sp,80
    260a:	30200073          	mret

0000260e <fic_irq_dma>:
    dma_cb.intrFlag = 1;
    260e:	000817b7          	lui	a5,0x81
    2612:	4705                	li	a4,1
    2614:	8ce78c23          	sb	a4,-1832(a5) # 808d8 <dma_cb+0x4>
}
    2618:	8082                	ret
	...

0000261c <handler_irq_fast_dma>:
    // call the weak fic handler
    fic_irq_timer_3();
}

void handler_irq_fast_dma(void)
{
    261c:	1141                	addi	sp,sp,-16
    261e:	c63a                	sw	a4,12(sp)
    2620:	c43e                	sw	a5,8(sp)
    fast_intr_ctrl_peri->FAST_INTR_CLEAR = reg;
    2622:	4721                	li	a4,8
    2624:	200707b7          	lui	a5,0x20070
    2628:	c3d8                	sw	a4,4(a5)
    dma_cb.intrFlag = 1;
    262a:	000817b7          	lui	a5,0x81
    262e:	4705                	li	a4,1
    2630:	8ce78c23          	sb	a4,-1832(a5) # 808d8 <dma_cb+0x4>
    // The interrupt is cleared.
    clear_fast_interrupt(kDma_fic_e);
    // call the weak fic handler
    fic_irq_dma();
}
    2634:	4732                	lw	a4,12(sp)
    2636:	47a2                	lw	a5,8(sp)
    2638:	0141                	addi	sp,sp,16
    263a:	30200073          	mret
	...

00002640 <handler_irq_fast_timer_1>:
{
    2640:	7139                	addi	sp,sp,-64
    2642:	ce3a                	sw	a4,28(sp)
    2644:	cc3e                	sw	a5,24(sp)
    2646:	de06                	sw	ra,60(sp)
    2648:	dc16                	sw	t0,56(sp)
    264a:	da1a                	sw	t1,52(sp)
    264c:	d81e                	sw	t2,48(sp)
    264e:	d62a                	sw	a0,44(sp)
    2650:	d42e                	sw	a1,40(sp)
    2652:	d232                	sw	a2,36(sp)
    2654:	d036                	sw	a3,32(sp)
    2656:	ca42                	sw	a6,20(sp)
    2658:	c846                	sw	a7,16(sp)
    265a:	c672                	sw	t3,12(sp)
    265c:	c476                	sw	t4,8(sp)
    265e:	c27a                	sw	t5,4(sp)
    2660:	c07e                	sw	t6,0(sp)
    fast_intr_ctrl_peri->FAST_INTR_CLEAR = reg;
    2662:	200707b7          	lui	a5,0x20070
    2666:	4705                	li	a4,1
    2668:	c3d8                	sw	a4,4(a5)
    fic_irq_timer_1();
    266a:	3631                	jal	2176 <fic_irq_timer_1>
}
    266c:	50f2                	lw	ra,60(sp)
    266e:	52e2                	lw	t0,56(sp)
    2670:	5352                	lw	t1,52(sp)
    2672:	53c2                	lw	t2,48(sp)
    2674:	5532                	lw	a0,44(sp)
    2676:	55a2                	lw	a1,40(sp)
    2678:	5612                	lw	a2,36(sp)
    267a:	5682                	lw	a3,32(sp)
    267c:	4772                	lw	a4,28(sp)
    267e:	47e2                	lw	a5,24(sp)
    2680:	4852                	lw	a6,20(sp)
    2682:	48c2                	lw	a7,16(sp)
    2684:	4e32                	lw	t3,12(sp)
    2686:	4ea2                	lw	t4,8(sp)
    2688:	4f12                	lw	t5,4(sp)
    268a:	4f82                	lw	t6,0(sp)
    268c:	6121                	addi	sp,sp,64
    268e:	30200073          	mret
	...

00002694 <handler_irq_fast_timer_2>:
{
    2694:	7139                	addi	sp,sp,-64
    2696:	ce3a                	sw	a4,28(sp)
    2698:	cc3e                	sw	a5,24(sp)
    269a:	de06                	sw	ra,60(sp)
    269c:	dc16                	sw	t0,56(sp)
    269e:	da1a                	sw	t1,52(sp)
    26a0:	d81e                	sw	t2,48(sp)
    26a2:	d62a                	sw	a0,44(sp)
    26a4:	d42e                	sw	a1,40(sp)
    26a6:	d232                	sw	a2,36(sp)
    26a8:	d036                	sw	a3,32(sp)
    26aa:	ca42                	sw	a6,20(sp)
    26ac:	c846                	sw	a7,16(sp)
    26ae:	c672                	sw	t3,12(sp)
    26b0:	c476                	sw	t4,8(sp)
    26b2:	c27a                	sw	t5,4(sp)
    26b4:	c07e                	sw	t6,0(sp)
    fast_intr_ctrl_peri->FAST_INTR_CLEAR = reg;
    26b6:	200707b7          	lui	a5,0x20070
    26ba:	4709                	li	a4,2
    26bc:	c3d8                	sw	a4,4(a5)
    fic_irq_timer_2();
    26be:	3c65                	jal	2176 <fic_irq_timer_1>
}
    26c0:	50f2                	lw	ra,60(sp)
    26c2:	52e2                	lw	t0,56(sp)
    26c4:	5352                	lw	t1,52(sp)
    26c6:	53c2                	lw	t2,48(sp)
    26c8:	5532                	lw	a0,44(sp)
    26ca:	55a2                	lw	a1,40(sp)
    26cc:	5612                	lw	a2,36(sp)
    26ce:	5682                	lw	a3,32(sp)
    26d0:	4772                	lw	a4,28(sp)
    26d2:	47e2                	lw	a5,24(sp)
    26d4:	4852                	lw	a6,20(sp)
    26d6:	48c2                	lw	a7,16(sp)
    26d8:	4e32                	lw	t3,12(sp)
    26da:	4ea2                	lw	t4,8(sp)
    26dc:	4f12                	lw	t5,4(sp)
    26de:	4f82                	lw	t6,0(sp)
    26e0:	6121                	addi	sp,sp,64
    26e2:	30200073          	mret
	...

000026e8 <handler_irq_fast_timer_3>:
{
    26e8:	7139                	addi	sp,sp,-64
    26ea:	ce3a                	sw	a4,28(sp)
    26ec:	cc3e                	sw	a5,24(sp)
    26ee:	de06                	sw	ra,60(sp)
    26f0:	dc16                	sw	t0,56(sp)
    26f2:	da1a                	sw	t1,52(sp)
    26f4:	d81e                	sw	t2,48(sp)
    26f6:	d62a                	sw	a0,44(sp)
    26f8:	d42e                	sw	a1,40(sp)
    26fa:	d232                	sw	a2,36(sp)
    26fc:	d036                	sw	a3,32(sp)
    26fe:	ca42                	sw	a6,20(sp)
    2700:	c846                	sw	a7,16(sp)
    2702:	c672                	sw	t3,12(sp)
    2704:	c476                	sw	t4,8(sp)
    2706:	c27a                	sw	t5,4(sp)
    2708:	c07e                	sw	t6,0(sp)
    fast_intr_ctrl_peri->FAST_INTR_CLEAR = reg;
    270a:	200707b7          	lui	a5,0x20070
    270e:	4711                	li	a4,4
    2710:	c3d8                	sw	a4,4(a5)
    fic_irq_timer_3();
    2712:	3495                	jal	2176 <fic_irq_timer_1>
}
    2714:	50f2                	lw	ra,60(sp)
    2716:	52e2                	lw	t0,56(sp)
    2718:	5352                	lw	t1,52(sp)
    271a:	53c2                	lw	t2,48(sp)
    271c:	5532                	lw	a0,44(sp)
    271e:	55a2                	lw	a1,40(sp)
    2720:	5612                	lw	a2,36(sp)
    2722:	5682                	lw	a3,32(sp)
    2724:	4772                	lw	a4,28(sp)
    2726:	47e2                	lw	a5,24(sp)
    2728:	4852                	lw	a6,20(sp)
    272a:	48c2                	lw	a7,16(sp)
    272c:	4e32                	lw	t3,12(sp)
    272e:	4ea2                	lw	t4,8(sp)
    2730:	4f12                	lw	t5,4(sp)
    2732:	4f82                	lw	t6,0(sp)
    2734:	6121                	addi	sp,sp,64
    2736:	30200073          	mret
	...

0000273c <handler_irq_fast_spi>:

void handler_irq_fast_spi(void)
{
    273c:	7139                	addi	sp,sp,-64
    273e:	ce3a                	sw	a4,28(sp)
    2740:	cc3e                	sw	a5,24(sp)
    2742:	de06                	sw	ra,60(sp)
    2744:	dc16                	sw	t0,56(sp)
    2746:	da1a                	sw	t1,52(sp)
    2748:	d81e                	sw	t2,48(sp)
    274a:	d62a                	sw	a0,44(sp)
    274c:	d42e                	sw	a1,40(sp)
    274e:	d232                	sw	a2,36(sp)
    2750:	d036                	sw	a3,32(sp)
    2752:	ca42                	sw	a6,20(sp)
    2754:	c846                	sw	a7,16(sp)
    2756:	c672                	sw	t3,12(sp)
    2758:	c476                	sw	t4,8(sp)
    275a:	c27a                	sw	t5,4(sp)
    275c:	c07e                	sw	t6,0(sp)
    fast_intr_ctrl_peri->FAST_INTR_CLEAR = reg;
    275e:	200707b7          	lui	a5,0x20070
    2762:	4741                	li	a4,16
    2764:	c3d8                	sw	a4,4(a5)
    // The interrupt is cleared.
    clear_fast_interrupt(kSpi_fic_e);
    // call the weak fic handler
    fic_irq_spi();
    2766:	3c01                	jal	2176 <fic_irq_timer_1>
}
    2768:	50f2                	lw	ra,60(sp)
    276a:	52e2                	lw	t0,56(sp)
    276c:	5352                	lw	t1,52(sp)
    276e:	53c2                	lw	t2,48(sp)
    2770:	5532                	lw	a0,44(sp)
    2772:	55a2                	lw	a1,40(sp)
    2774:	5612                	lw	a2,36(sp)
    2776:	5682                	lw	a3,32(sp)
    2778:	4772                	lw	a4,28(sp)
    277a:	47e2                	lw	a5,24(sp)
    277c:	4852                	lw	a6,20(sp)
    277e:	48c2                	lw	a7,16(sp)
    2780:	4e32                	lw	t3,12(sp)
    2782:	4ea2                	lw	t4,8(sp)
    2784:	4f12                	lw	t5,4(sp)
    2786:	4f82                	lw	t6,0(sp)
    2788:	6121                	addi	sp,sp,64
    278a:	30200073          	mret
	...

00002790 <handler_irq_fast_spi_flash>:

void handler_irq_fast_spi_flash(void)
{
    2790:	7139                	addi	sp,sp,-64
    2792:	ce3a                	sw	a4,28(sp)
    2794:	cc3e                	sw	a5,24(sp)
    2796:	de06                	sw	ra,60(sp)
    2798:	dc16                	sw	t0,56(sp)
    279a:	da1a                	sw	t1,52(sp)
    279c:	d81e                	sw	t2,48(sp)
    279e:	d62a                	sw	a0,44(sp)
    27a0:	d42e                	sw	a1,40(sp)
    27a2:	d232                	sw	a2,36(sp)
    27a4:	d036                	sw	a3,32(sp)
    27a6:	ca42                	sw	a6,20(sp)
    27a8:	c846                	sw	a7,16(sp)
    27aa:	c672                	sw	t3,12(sp)
    27ac:	c476                	sw	t4,8(sp)
    27ae:	c27a                	sw	t5,4(sp)
    27b0:	c07e                	sw	t6,0(sp)
    fast_intr_ctrl_peri->FAST_INTR_CLEAR = reg;
    27b2:	200707b7          	lui	a5,0x20070
    27b6:	02000713          	li	a4,32
    27ba:	c3d8                	sw	a4,4(a5)
    // The interrupt is cleared.
    clear_fast_interrupt(kSpiFlash_fic_e);
    // call the weak fic handler
    fic_irq_spi_flash();
    27bc:	3a6d                	jal	2176 <fic_irq_timer_1>
}
    27be:	50f2                	lw	ra,60(sp)
    27c0:	52e2                	lw	t0,56(sp)
    27c2:	5352                	lw	t1,52(sp)
    27c4:	53c2                	lw	t2,48(sp)
    27c6:	5532                	lw	a0,44(sp)
    27c8:	55a2                	lw	a1,40(sp)
    27ca:	5612                	lw	a2,36(sp)
    27cc:	5682                	lw	a3,32(sp)
    27ce:	4772                	lw	a4,28(sp)
    27d0:	47e2                	lw	a5,24(sp)
    27d2:	4852                	lw	a6,20(sp)
    27d4:	48c2                	lw	a7,16(sp)
    27d6:	4e32                	lw	t3,12(sp)
    27d8:	4ea2                	lw	t4,8(sp)
    27da:	4f12                	lw	t5,4(sp)
    27dc:	4f82                	lw	t6,0(sp)
    27de:	6121                	addi	sp,sp,64
    27e0:	30200073          	mret

000027e4 <handler_irq_fast_gpio_0>:

void handler_irq_fast_gpio_0(void)
{
    27e4:	7139                	addi	sp,sp,-64
    27e6:	ce3a                	sw	a4,28(sp)
    27e8:	cc3e                	sw	a5,24(sp)
    27ea:	de06                	sw	ra,60(sp)
    27ec:	dc16                	sw	t0,56(sp)
    27ee:	da1a                	sw	t1,52(sp)
    27f0:	d81e                	sw	t2,48(sp)
    27f2:	d62a                	sw	a0,44(sp)
    27f4:	d42e                	sw	a1,40(sp)
    27f6:	d232                	sw	a2,36(sp)
    27f8:	d036                	sw	a3,32(sp)
    27fa:	ca42                	sw	a6,20(sp)
    27fc:	c846                	sw	a7,16(sp)
    27fe:	c672                	sw	t3,12(sp)
    2800:	c476                	sw	t4,8(sp)
    2802:	c27a                	sw	t5,4(sp)
    2804:	c07e                	sw	t6,0(sp)
    fast_intr_ctrl_peri->FAST_INTR_CLEAR = reg;
    2806:	200707b7          	lui	a5,0x20070
    280a:	04000713          	li	a4,64
    280e:	c3d8                	sw	a4,4(a5)
    // The interrupt is cleared.
    clear_fast_interrupt(kGpio_0_fic_e);
    // call the weak fic handler
    fic_irq_gpio_0();
    2810:	329d                	jal	2176 <fic_irq_timer_1>
}
    2812:	50f2                	lw	ra,60(sp)
    2814:	52e2                	lw	t0,56(sp)
    2816:	5352                	lw	t1,52(sp)
    2818:	53c2                	lw	t2,48(sp)
    281a:	5532                	lw	a0,44(sp)
    281c:	55a2                	lw	a1,40(sp)
    281e:	5612                	lw	a2,36(sp)
    2820:	5682                	lw	a3,32(sp)
    2822:	4772                	lw	a4,28(sp)
    2824:	47e2                	lw	a5,24(sp)
    2826:	4852                	lw	a6,20(sp)
    2828:	48c2                	lw	a7,16(sp)
    282a:	4e32                	lw	t3,12(sp)
    282c:	4ea2                	lw	t4,8(sp)
    282e:	4f12                	lw	t5,4(sp)
    2830:	4f82                	lw	t6,0(sp)
    2832:	6121                	addi	sp,sp,64
    2834:	30200073          	mret

00002838 <handler_irq_fast_gpio_1>:

void handler_irq_fast_gpio_1(void)
{
    2838:	7139                	addi	sp,sp,-64
    283a:	ce3a                	sw	a4,28(sp)
    283c:	cc3e                	sw	a5,24(sp)
    283e:	de06                	sw	ra,60(sp)
    2840:	dc16                	sw	t0,56(sp)
    2842:	da1a                	sw	t1,52(sp)
    2844:	d81e                	sw	t2,48(sp)
    2846:	d62a                	sw	a0,44(sp)
    2848:	d42e                	sw	a1,40(sp)
    284a:	d232                	sw	a2,36(sp)
    284c:	d036                	sw	a3,32(sp)
    284e:	ca42                	sw	a6,20(sp)
    2850:	c846                	sw	a7,16(sp)
    2852:	c672                	sw	t3,12(sp)
    2854:	c476                	sw	t4,8(sp)
    2856:	c27a                	sw	t5,4(sp)
    2858:	c07e                	sw	t6,0(sp)
    fast_intr_ctrl_peri->FAST_INTR_CLEAR = reg;
    285a:	200707b7          	lui	a5,0x20070
    285e:	08000713          	li	a4,128
    2862:	c3d8                	sw	a4,4(a5)
    // The interrupt is cleared.
    clear_fast_interrupt(kGpio_1_fic_e);
    // call the weak fic handler
    fic_irq_gpio_1();
    2864:	3a09                	jal	2176 <fic_irq_timer_1>
}
    2866:	50f2                	lw	ra,60(sp)
    2868:	52e2                	lw	t0,56(sp)
    286a:	5352                	lw	t1,52(sp)
    286c:	53c2                	lw	t2,48(sp)
    286e:	5532                	lw	a0,44(sp)
    2870:	55a2                	lw	a1,40(sp)
    2872:	5612                	lw	a2,36(sp)
    2874:	5682                	lw	a3,32(sp)
    2876:	4772                	lw	a4,28(sp)
    2878:	47e2                	lw	a5,24(sp)
    287a:	4852                	lw	a6,20(sp)
    287c:	48c2                	lw	a7,16(sp)
    287e:	4e32                	lw	t3,12(sp)
    2880:	4ea2                	lw	t4,8(sp)
    2882:	4f12                	lw	t5,4(sp)
    2884:	4f82                	lw	t6,0(sp)
    2886:	6121                	addi	sp,sp,64
    2888:	30200073          	mret

0000288c <handler_irq_fast_gpio_2>:

void handler_irq_fast_gpio_2(void)
{
    288c:	7139                	addi	sp,sp,-64
    288e:	ce3a                	sw	a4,28(sp)
    2890:	cc3e                	sw	a5,24(sp)
    2892:	de06                	sw	ra,60(sp)
    2894:	dc16                	sw	t0,56(sp)
    2896:	da1a                	sw	t1,52(sp)
    2898:	d81e                	sw	t2,48(sp)
    289a:	d62a                	sw	a0,44(sp)
    289c:	d42e                	sw	a1,40(sp)
    289e:	d232                	sw	a2,36(sp)
    28a0:	d036                	sw	a3,32(sp)
    28a2:	ca42                	sw	a6,20(sp)
    28a4:	c846                	sw	a7,16(sp)
    28a6:	c672                	sw	t3,12(sp)
    28a8:	c476                	sw	t4,8(sp)
    28aa:	c27a                	sw	t5,4(sp)
    28ac:	c07e                	sw	t6,0(sp)
    fast_intr_ctrl_peri->FAST_INTR_CLEAR = reg;
    28ae:	200707b7          	lui	a5,0x20070
    28b2:	10000713          	li	a4,256
    28b6:	c3d8                	sw	a4,4(a5)
    // The interrupt is cleared.
    clear_fast_interrupt(kGpio_2_fic_e);
    // call the weak fic handler
    fic_irq_gpio_2();
    28b8:	8bfff0ef          	jal	ra,2176 <fic_irq_timer_1>
}
    28bc:	50f2                	lw	ra,60(sp)
    28be:	52e2                	lw	t0,56(sp)
    28c0:	5352                	lw	t1,52(sp)
    28c2:	53c2                	lw	t2,48(sp)
    28c4:	5532                	lw	a0,44(sp)
    28c6:	55a2                	lw	a1,40(sp)
    28c8:	5612                	lw	a2,36(sp)
    28ca:	5682                	lw	a3,32(sp)
    28cc:	4772                	lw	a4,28(sp)
    28ce:	47e2                	lw	a5,24(sp)
    28d0:	4852                	lw	a6,20(sp)
    28d2:	48c2                	lw	a7,16(sp)
    28d4:	4e32                	lw	t3,12(sp)
    28d6:	4ea2                	lw	t4,8(sp)
    28d8:	4f12                	lw	t5,4(sp)
    28da:	4f82                	lw	t6,0(sp)
    28dc:	6121                	addi	sp,sp,64
    28de:	30200073          	mret
	...

000028e4 <handler_irq_fast_gpio_3>:

void handler_irq_fast_gpio_3(void)
{
    28e4:	7139                	addi	sp,sp,-64
    28e6:	ce3a                	sw	a4,28(sp)
    28e8:	cc3e                	sw	a5,24(sp)
    28ea:	de06                	sw	ra,60(sp)
    28ec:	dc16                	sw	t0,56(sp)
    28ee:	da1a                	sw	t1,52(sp)
    28f0:	d81e                	sw	t2,48(sp)
    28f2:	d62a                	sw	a0,44(sp)
    28f4:	d42e                	sw	a1,40(sp)
    28f6:	d232                	sw	a2,36(sp)
    28f8:	d036                	sw	a3,32(sp)
    28fa:	ca42                	sw	a6,20(sp)
    28fc:	c846                	sw	a7,16(sp)
    28fe:	c672                	sw	t3,12(sp)
    2900:	c476                	sw	t4,8(sp)
    2902:	c27a                	sw	t5,4(sp)
    2904:	c07e                	sw	t6,0(sp)
    fast_intr_ctrl_peri->FAST_INTR_CLEAR = reg;
    2906:	200707b7          	lui	a5,0x20070
    290a:	20000713          	li	a4,512
    290e:	c3d8                	sw	a4,4(a5)
    // The interrupt is cleared.
    clear_fast_interrupt(kGpio_3_fic_e);
    // call the weak fic handler
    fic_irq_gpio_3();
    2910:	867ff0ef          	jal	ra,2176 <fic_irq_timer_1>
}
    2914:	50f2                	lw	ra,60(sp)
    2916:	52e2                	lw	t0,56(sp)
    2918:	5352                	lw	t1,52(sp)
    291a:	53c2                	lw	t2,48(sp)
    291c:	5532                	lw	a0,44(sp)
    291e:	55a2                	lw	a1,40(sp)
    2920:	5612                	lw	a2,36(sp)
    2922:	5682                	lw	a3,32(sp)
    2924:	4772                	lw	a4,28(sp)
    2926:	47e2                	lw	a5,24(sp)
    2928:	4852                	lw	a6,20(sp)
    292a:	48c2                	lw	a7,16(sp)
    292c:	4e32                	lw	t3,12(sp)
    292e:	4ea2                	lw	t4,8(sp)
    2930:	4f12                	lw	t5,4(sp)
    2932:	4f82                	lw	t6,0(sp)
    2934:	6121                	addi	sp,sp,64
    2936:	30200073          	mret
	...

0000293c <handler_irq_fast_gpio_4>:

void handler_irq_fast_gpio_4(void)
{
    293c:	7139                	addi	sp,sp,-64
    293e:	ce3a                	sw	a4,28(sp)
    2940:	cc3e                	sw	a5,24(sp)
    2942:	de06                	sw	ra,60(sp)
    2944:	dc16                	sw	t0,56(sp)
    2946:	da1a                	sw	t1,52(sp)
    2948:	d81e                	sw	t2,48(sp)
    294a:	d62a                	sw	a0,44(sp)
    294c:	d42e                	sw	a1,40(sp)
    294e:	d232                	sw	a2,36(sp)
    2950:	d036                	sw	a3,32(sp)
    2952:	ca42                	sw	a6,20(sp)
    2954:	c846                	sw	a7,16(sp)
    2956:	c672                	sw	t3,12(sp)
    2958:	c476                	sw	t4,8(sp)
    295a:	c27a                	sw	t5,4(sp)
    295c:	c07e                	sw	t6,0(sp)
    fast_intr_ctrl_peri->FAST_INTR_CLEAR = reg;
    295e:	200707b7          	lui	a5,0x20070
    2962:	40000713          	li	a4,1024
    2966:	c3d8                	sw	a4,4(a5)
    // The interrupt is cleared.
    clear_fast_interrupt(kGpio_4_fic_e);
    // call the weak fic handler
    fic_irq_gpio_4();
    2968:	80fff0ef          	jal	ra,2176 <fic_irq_timer_1>
}
    296c:	50f2                	lw	ra,60(sp)
    296e:	52e2                	lw	t0,56(sp)
    2970:	5352                	lw	t1,52(sp)
    2972:	53c2                	lw	t2,48(sp)
    2974:	5532                	lw	a0,44(sp)
    2976:	55a2                	lw	a1,40(sp)
    2978:	5612                	lw	a2,36(sp)
    297a:	5682                	lw	a3,32(sp)
    297c:	4772                	lw	a4,28(sp)
    297e:	47e2                	lw	a5,24(sp)
    2980:	4852                	lw	a6,20(sp)
    2982:	48c2                	lw	a7,16(sp)
    2984:	4e32                	lw	t3,12(sp)
    2986:	4ea2                	lw	t4,8(sp)
    2988:	4f12                	lw	t5,4(sp)
    298a:	4f82                	lw	t6,0(sp)
    298c:	6121                	addi	sp,sp,64
    298e:	30200073          	mret
	...

00002994 <handler_irq_fast_gpio_5>:

void handler_irq_fast_gpio_5(void)
{
    2994:	7139                	addi	sp,sp,-64
    2996:	cc3e                	sw	a5,24(sp)
    fast_intr_ctrl_peri->FAST_INTR_CLEAR = reg;
    2998:	6785                	lui	a5,0x1
{
    299a:	ce3a                	sw	a4,28(sp)
    299c:	de06                	sw	ra,60(sp)
    299e:	dc16                	sw	t0,56(sp)
    29a0:	da1a                	sw	t1,52(sp)
    29a2:	d81e                	sw	t2,48(sp)
    29a4:	d62a                	sw	a0,44(sp)
    29a6:	d42e                	sw	a1,40(sp)
    29a8:	d232                	sw	a2,36(sp)
    29aa:	d036                	sw	a3,32(sp)
    29ac:	ca42                	sw	a6,20(sp)
    29ae:	c846                	sw	a7,16(sp)
    29b0:	c672                	sw	t3,12(sp)
    29b2:	c476                	sw	t4,8(sp)
    29b4:	c27a                	sw	t5,4(sp)
    29b6:	c07e                	sw	t6,0(sp)
    fast_intr_ctrl_peri->FAST_INTR_CLEAR = reg;
    29b8:	20070737          	lui	a4,0x20070
    29bc:	80078793          	addi	a5,a5,-2048 # 800 <main+0x5ea>
    29c0:	c35c                	sw	a5,4(a4)
    // The interrupt is cleared.
    clear_fast_interrupt(kGpio_5_fic_e);
    // call the weak fic handler
    fic_irq_gpio_5();
    29c2:	fb4ff0ef          	jal	ra,2176 <fic_irq_timer_1>
}
    29c6:	50f2                	lw	ra,60(sp)
    29c8:	52e2                	lw	t0,56(sp)
    29ca:	5352                	lw	t1,52(sp)
    29cc:	53c2                	lw	t2,48(sp)
    29ce:	5532                	lw	a0,44(sp)
    29d0:	55a2                	lw	a1,40(sp)
    29d2:	5612                	lw	a2,36(sp)
    29d4:	5682                	lw	a3,32(sp)
    29d6:	4772                	lw	a4,28(sp)
    29d8:	47e2                	lw	a5,24(sp)
    29da:	4852                	lw	a6,20(sp)
    29dc:	48c2                	lw	a7,16(sp)
    29de:	4e32                	lw	t3,12(sp)
    29e0:	4ea2                	lw	t4,8(sp)
    29e2:	4f12                	lw	t5,4(sp)
    29e4:	4f82                	lw	t6,0(sp)
    29e6:	6121                	addi	sp,sp,64
    29e8:	30200073          	mret
    29ec:	0000                	unimp
	...

000029f0 <handler_irq_fast_gpio_6>:

void handler_irq_fast_gpio_6(void)
{
    29f0:	7139                	addi	sp,sp,-64
    29f2:	ce3a                	sw	a4,28(sp)
    29f4:	cc3e                	sw	a5,24(sp)
    29f6:	de06                	sw	ra,60(sp)
    29f8:	dc16                	sw	t0,56(sp)
    29fa:	da1a                	sw	t1,52(sp)
    29fc:	d81e                	sw	t2,48(sp)
    29fe:	d62a                	sw	a0,44(sp)
    2a00:	d42e                	sw	a1,40(sp)
    2a02:	d232                	sw	a2,36(sp)
    2a04:	d036                	sw	a3,32(sp)
    2a06:	ca42                	sw	a6,20(sp)
    2a08:	c846                	sw	a7,16(sp)
    2a0a:	c672                	sw	t3,12(sp)
    2a0c:	c476                	sw	t4,8(sp)
    2a0e:	c27a                	sw	t5,4(sp)
    2a10:	c07e                	sw	t6,0(sp)
    fast_intr_ctrl_peri->FAST_INTR_CLEAR = reg;
    2a12:	200707b7          	lui	a5,0x20070
    2a16:	6705                	lui	a4,0x1
    2a18:	c3d8                	sw	a4,4(a5)
    // The interrupt is cleared.
    clear_fast_interrupt(kGpio_6_fic_e);
    // call the weak fic handler
    fic_irq_gpio_6();
    2a1a:	f5cff0ef          	jal	ra,2176 <fic_irq_timer_1>
}
    2a1e:	50f2                	lw	ra,60(sp)
    2a20:	52e2                	lw	t0,56(sp)
    2a22:	5352                	lw	t1,52(sp)
    2a24:	53c2                	lw	t2,48(sp)
    2a26:	5532                	lw	a0,44(sp)
    2a28:	55a2                	lw	a1,40(sp)
    2a2a:	5612                	lw	a2,36(sp)
    2a2c:	5682                	lw	a3,32(sp)
    2a2e:	4772                	lw	a4,28(sp)
    2a30:	47e2                	lw	a5,24(sp)
    2a32:	4852                	lw	a6,20(sp)
    2a34:	48c2                	lw	a7,16(sp)
    2a36:	4e32                	lw	t3,12(sp)
    2a38:	4ea2                	lw	t4,8(sp)
    2a3a:	4f12                	lw	t5,4(sp)
    2a3c:	4f82                	lw	t6,0(sp)
    2a3e:	6121                	addi	sp,sp,64
    2a40:	30200073          	mret
    2a44:	0000                	unimp
	...

00002a48 <handler_irq_fast_gpio_7>:

void handler_irq_fast_gpio_7(void)
{
    2a48:	7139                	addi	sp,sp,-64
    2a4a:	ce3a                	sw	a4,28(sp)
    2a4c:	cc3e                	sw	a5,24(sp)
    2a4e:	de06                	sw	ra,60(sp)
    2a50:	dc16                	sw	t0,56(sp)
    2a52:	da1a                	sw	t1,52(sp)
    2a54:	d81e                	sw	t2,48(sp)
    2a56:	d62a                	sw	a0,44(sp)
    2a58:	d42e                	sw	a1,40(sp)
    2a5a:	d232                	sw	a2,36(sp)
    2a5c:	d036                	sw	a3,32(sp)
    2a5e:	ca42                	sw	a6,20(sp)
    2a60:	c846                	sw	a7,16(sp)
    2a62:	c672                	sw	t3,12(sp)
    2a64:	c476                	sw	t4,8(sp)
    2a66:	c27a                	sw	t5,4(sp)
    2a68:	c07e                	sw	t6,0(sp)
    fast_intr_ctrl_peri->FAST_INTR_CLEAR = reg;
    2a6a:	200707b7          	lui	a5,0x20070
    2a6e:	6709                	lui	a4,0x2
    2a70:	c3d8                	sw	a4,4(a5)
    // The interrupt is cleared.
    clear_fast_interrupt(kGpio_7_fic_e);
    // call the weak fic handler
    fic_irq_gpio_7();
    2a72:	f04ff0ef          	jal	ra,2176 <fic_irq_timer_1>
}
    2a76:	50f2                	lw	ra,60(sp)
    2a78:	52e2                	lw	t0,56(sp)
    2a7a:	5352                	lw	t1,52(sp)
    2a7c:	53c2                	lw	t2,48(sp)
    2a7e:	5532                	lw	a0,44(sp)
    2a80:	55a2                	lw	a1,40(sp)
    2a82:	5612                	lw	a2,36(sp)
    2a84:	5682                	lw	a3,32(sp)
    2a86:	4772                	lw	a4,28(sp)
    2a88:	47e2                	lw	a5,24(sp)
    2a8a:	4852                	lw	a6,20(sp)
    2a8c:	48c2                	lw	a7,16(sp)
    2a8e:	4e32                	lw	t3,12(sp)
    2a90:	4ea2                	lw	t4,8(sp)
    2a92:	4f12                	lw	t5,4(sp)
    2a94:	4f82                	lw	t6,0(sp)
    2a96:	6121                	addi	sp,sp,64
    2a98:	30200073          	mret
	...

00002a9e <atexit>:
    2a9e:	85aa                	mv	a1,a0
    2aa0:	4681                	li	a3,0
    2aa2:	4601                	li	a2,0
    2aa4:	4501                	li	a0,0
    2aa6:	a985                	j	2f16 <__register_exitproc>

00002aa8 <__libc_fini_array>:
    2aa8:	1141                	addi	sp,sp,-16
    2aaa:	000807b7          	lui	a5,0x80
    2aae:	c422                	sw	s0,8(sp)
    2ab0:	00080437          	lui	s0,0x80
    2ab4:	5ac78713          	addi	a4,a5,1452 # 805ac <impure_data>
    2ab8:	5ac40413          	addi	s0,s0,1452 # 805ac <impure_data>
    2abc:	8c19                	sub	s0,s0,a4
    2abe:	c226                	sw	s1,4(sp)
    2ac0:	c606                	sw	ra,12(sp)
    2ac2:	8409                	srai	s0,s0,0x2
    2ac4:	5ac78493          	addi	s1,a5,1452
    2ac8:	e411                	bnez	s0,2ad4 <__libc_fini_array+0x2c>
    2aca:	40b2                	lw	ra,12(sp)
    2acc:	4422                	lw	s0,8(sp)
    2ace:	4492                	lw	s1,4(sp)
    2ad0:	0141                	addi	sp,sp,16
    2ad2:	8082                	ret
    2ad4:	147d                	addi	s0,s0,-1
    2ad6:	00241793          	slli	a5,s0,0x2
    2ada:	97a6                	add	a5,a5,s1
    2adc:	439c                	lw	a5,0(a5)
    2ade:	9782                	jalr	a5
    2ae0:	b7e5                	j	2ac8 <__libc_fini_array+0x20>

00002ae2 <__libc_init_array>:
    2ae2:	1141                	addi	sp,sp,-16
    2ae4:	c422                	sw	s0,8(sp)
    2ae6:	c226                	sw	s1,4(sp)
    2ae8:	00080437          	lui	s0,0x80
    2aec:	000804b7          	lui	s1,0x80
    2af0:	5ac48793          	addi	a5,s1,1452 # 805ac <impure_data>
    2af4:	5ac40413          	addi	s0,s0,1452 # 805ac <impure_data>
    2af8:	8c1d                	sub	s0,s0,a5
    2afa:	c04a                	sw	s2,0(sp)
    2afc:	c606                	sw	ra,12(sp)
    2afe:	8409                	srai	s0,s0,0x2
    2b00:	5ac48493          	addi	s1,s1,1452
    2b04:	4901                	li	s2,0
    2b06:	02891763          	bne	s2,s0,2b34 <__libc_init_array+0x52>
    2b0a:	000804b7          	lui	s1,0x80
    2b0e:	00080437          	lui	s0,0x80
    2b12:	5ac48793          	addi	a5,s1,1452 # 805ac <impure_data>
    2b16:	5ac40413          	addi	s0,s0,1452 # 805ac <impure_data>
    2b1a:	8c1d                	sub	s0,s0,a5
    2b1c:	8409                	srai	s0,s0,0x2
    2b1e:	5ac48493          	addi	s1,s1,1452
    2b22:	4901                	li	s2,0
    2b24:	00891d63          	bne	s2,s0,2b3e <__libc_init_array+0x5c>
    2b28:	40b2                	lw	ra,12(sp)
    2b2a:	4422                	lw	s0,8(sp)
    2b2c:	4492                	lw	s1,4(sp)
    2b2e:	4902                	lw	s2,0(sp)
    2b30:	0141                	addi	sp,sp,16
    2b32:	8082                	ret
    2b34:	409c                	lw	a5,0(s1)
    2b36:	0905                	addi	s2,s2,1
    2b38:	0491                	addi	s1,s1,4
    2b3a:	9782                	jalr	a5
    2b3c:	b7e9                	j	2b06 <__libc_init_array+0x24>
    2b3e:	409c                	lw	a5,0(s1)
    2b40:	0905                	addi	s2,s2,1
    2b42:	0491                	addi	s1,s1,4
    2b44:	9782                	jalr	a5
    2b46:	bff9                	j	2b24 <__libc_init_array+0x42>

00002b48 <memset>:
    2b48:	832a                	mv	t1,a0
    2b4a:	c611                	beqz	a2,2b56 <memset+0xe>
    2b4c:	00b30023          	sb	a1,0(t1)
    2b50:	167d                	addi	a2,a2,-1
    2b52:	0305                	addi	t1,t1,1
    2b54:	fe65                	bnez	a2,2b4c <memset+0x4>
    2b56:	8082                	ret

00002b58 <_puts_r>:
    2b58:	1101                	addi	sp,sp,-32
    2b5a:	ca26                	sw	s1,20(sp)
    2b5c:	c84a                	sw	s2,16(sp)
    2b5e:	ce06                	sw	ra,28(sp)
    2b60:	cc22                	sw	s0,24(sp)
    2b62:	c64e                	sw	s3,12(sp)
    2b64:	c452                	sw	s4,8(sp)
    2b66:	84aa                	mv	s1,a0
    2b68:	892e                	mv	s2,a1
    2b6a:	c509                	beqz	a0,2b74 <_puts_r+0x1c>
    2b6c:	4d1c                	lw	a5,24(a0)
    2b6e:	e399                	bnez	a5,2b74 <_puts_r+0x1c>
    2b70:	77c000ef          	jal	ra,32ec <__sinit>
    2b74:	4c9c                	lw	a5,24(s1)
    2b76:	4480                	lw	s0,8(s1)
    2b78:	e781                	bnez	a5,2b80 <_puts_r+0x28>
    2b7a:	8526                	mv	a0,s1
    2b7c:	770000ef          	jal	ra,32ec <__sinit>
    2b80:	000807b7          	lui	a5,0x80
    2b84:	3d878793          	addi	a5,a5,984 # 803d8 <__sf_fake_stdin>
    2b88:	02f41c63          	bne	s0,a5,2bc0 <_puts_r+0x68>
    2b8c:	40c0                	lw	s0,4(s1)
    2b8e:	00c45783          	lhu	a5,12(s0)
    2b92:	8ba1                	andi	a5,a5,8
    2b94:	c7b1                	beqz	a5,2be0 <_puts_r+0x88>
    2b96:	481c                	lw	a5,16(s0)
    2b98:	c7a1                	beqz	a5,2be0 <_puts_r+0x88>
    2b9a:	59fd                	li	s3,-1
    2b9c:	4a29                	li	s4,10
    2b9e:	441c                	lw	a5,8(s0)
    2ba0:	00094583          	lbu	a1,0(s2)
    2ba4:	17fd                	addi	a5,a5,-1
    2ba6:	e9b1                	bnez	a1,2bfa <_puts_r+0xa2>
    2ba8:	c41c                	sw	a5,8(s0)
    2baa:	0607de63          	bgez	a5,2c26 <_puts_r+0xce>
    2bae:	8622                	mv	a2,s0
    2bb0:	45a9                	li	a1,10
    2bb2:	8526                	mv	a0,s1
    2bb4:	2261                	jal	2d3c <__swbuf_r>
    2bb6:	57fd                	li	a5,-1
    2bb8:	02f50863          	beq	a0,a5,2be8 <_puts_r+0x90>
    2bbc:	4529                	li	a0,10
    2bbe:	a035                	j	2bea <_puts_r+0x92>
    2bc0:	000807b7          	lui	a5,0x80
    2bc4:	3f878793          	addi	a5,a5,1016 # 803f8 <__sf_fake_stdout>
    2bc8:	00f41463          	bne	s0,a5,2bd0 <_puts_r+0x78>
    2bcc:	4480                	lw	s0,8(s1)
    2bce:	b7c1                	j	2b8e <_puts_r+0x36>
    2bd0:	000807b7          	lui	a5,0x80
    2bd4:	3b878793          	addi	a5,a5,952 # 803b8 <__sf_fake_stderr>
    2bd8:	faf41be3          	bne	s0,a5,2b8e <_puts_r+0x36>
    2bdc:	44c0                	lw	s0,12(s1)
    2bde:	bf45                	j	2b8e <_puts_r+0x36>
    2be0:	85a2                	mv	a1,s0
    2be2:	8526                	mv	a0,s1
    2be4:	241d                	jal	2e0a <__swsetup_r>
    2be6:	d955                	beqz	a0,2b9a <_puts_r+0x42>
    2be8:	557d                	li	a0,-1
    2bea:	40f2                	lw	ra,28(sp)
    2bec:	4462                	lw	s0,24(sp)
    2bee:	44d2                	lw	s1,20(sp)
    2bf0:	4942                	lw	s2,16(sp)
    2bf2:	49b2                	lw	s3,12(sp)
    2bf4:	4a22                	lw	s4,8(sp)
    2bf6:	6105                	addi	sp,sp,32
    2bf8:	8082                	ret
    2bfa:	c41c                	sw	a5,8(s0)
    2bfc:	0905                	addi	s2,s2,1
    2bfe:	0007d763          	bgez	a5,2c0c <_puts_r+0xb4>
    2c02:	4c18                	lw	a4,24(s0)
    2c04:	00e7cb63          	blt	a5,a4,2c1a <_puts_r+0xc2>
    2c08:	01458963          	beq	a1,s4,2c1a <_puts_r+0xc2>
    2c0c:	401c                	lw	a5,0(s0)
    2c0e:	00178713          	addi	a4,a5,1
    2c12:	c018                	sw	a4,0(s0)
    2c14:	00b78023          	sb	a1,0(a5)
    2c18:	b759                	j	2b9e <_puts_r+0x46>
    2c1a:	8622                	mv	a2,s0
    2c1c:	8526                	mv	a0,s1
    2c1e:	2a39                	jal	2d3c <__swbuf_r>
    2c20:	f7351fe3          	bne	a0,s3,2b9e <_puts_r+0x46>
    2c24:	b7d1                	j	2be8 <_puts_r+0x90>
    2c26:	401c                	lw	a5,0(s0)
    2c28:	00178713          	addi	a4,a5,1
    2c2c:	c018                	sw	a4,0(s0)
    2c2e:	4729                	li	a4,10
    2c30:	00e78023          	sb	a4,0(a5)
    2c34:	b761                	j	2bbc <_puts_r+0x64>

00002c36 <puts>:
    2c36:	000807b7          	lui	a5,0x80
    2c3a:	85aa                	mv	a1,a0
    2c3c:	6607a503          	lw	a0,1632(a5) # 80660 <_impure_ptr>
    2c40:	bf21                	j	2b58 <_puts_r>

00002c42 <cleanup_glue>:
    2c42:	1141                	addi	sp,sp,-16
    2c44:	c422                	sw	s0,8(sp)
    2c46:	842e                	mv	s0,a1
    2c48:	418c                	lw	a1,0(a1)
    2c4a:	c226                	sw	s1,4(sp)
    2c4c:	c606                	sw	ra,12(sp)
    2c4e:	84aa                	mv	s1,a0
    2c50:	c191                	beqz	a1,2c54 <cleanup_glue+0x12>
    2c52:	3fc5                	jal	2c42 <cleanup_glue>
    2c54:	85a2                	mv	a1,s0
    2c56:	4422                	lw	s0,8(sp)
    2c58:	40b2                	lw	ra,12(sp)
    2c5a:	8526                	mv	a0,s1
    2c5c:	4492                	lw	s1,4(sp)
    2c5e:	0141                	addi	sp,sp,16
    2c60:	17d0006f          	j	35dc <_free_r>

00002c64 <_reclaim_reent>:
    2c64:	000807b7          	lui	a5,0x80
    2c68:	6607a783          	lw	a5,1632(a5) # 80660 <_impure_ptr>
    2c6c:	0ca78763          	beq	a5,a0,2d3a <_reclaim_reent+0xd6>
    2c70:	515c                	lw	a5,36(a0)
    2c72:	1101                	addi	sp,sp,-32
    2c74:	cc22                	sw	s0,24(sp)
    2c76:	ce06                	sw	ra,28(sp)
    2c78:	ca26                	sw	s1,20(sp)
    2c7a:	c84a                	sw	s2,16(sp)
    2c7c:	c64e                	sw	s3,12(sp)
    2c7e:	842a                	mv	s0,a0
    2c80:	cf81                	beqz	a5,2c98 <_reclaim_reent+0x34>
    2c82:	47dc                	lw	a5,12(a5)
    2c84:	4481                	li	s1,0
    2c86:	08000913          	li	s2,128
    2c8a:	e3d1                	bnez	a5,2d0e <_reclaim_reent+0xaa>
    2c8c:	505c                	lw	a5,36(s0)
    2c8e:	438c                	lw	a1,0(a5)
    2c90:	c581                	beqz	a1,2c98 <_reclaim_reent+0x34>
    2c92:	8522                	mv	a0,s0
    2c94:	149000ef          	jal	ra,35dc <_free_r>
    2c98:	484c                	lw	a1,20(s0)
    2c9a:	c581                	beqz	a1,2ca2 <_reclaim_reent+0x3e>
    2c9c:	8522                	mv	a0,s0
    2c9e:	13f000ef          	jal	ra,35dc <_free_r>
    2ca2:	504c                	lw	a1,36(s0)
    2ca4:	c581                	beqz	a1,2cac <_reclaim_reent+0x48>
    2ca6:	8522                	mv	a0,s0
    2ca8:	135000ef          	jal	ra,35dc <_free_r>
    2cac:	5c0c                	lw	a1,56(s0)
    2cae:	c581                	beqz	a1,2cb6 <_reclaim_reent+0x52>
    2cb0:	8522                	mv	a0,s0
    2cb2:	12b000ef          	jal	ra,35dc <_free_r>
    2cb6:	5c4c                	lw	a1,60(s0)
    2cb8:	c581                	beqz	a1,2cc0 <_reclaim_reent+0x5c>
    2cba:	8522                	mv	a0,s0
    2cbc:	121000ef          	jal	ra,35dc <_free_r>
    2cc0:	402c                	lw	a1,64(s0)
    2cc2:	c581                	beqz	a1,2cca <_reclaim_reent+0x66>
    2cc4:	8522                	mv	a0,s0
    2cc6:	117000ef          	jal	ra,35dc <_free_r>
    2cca:	4c6c                	lw	a1,92(s0)
    2ccc:	c581                	beqz	a1,2cd4 <_reclaim_reent+0x70>
    2cce:	8522                	mv	a0,s0
    2cd0:	10d000ef          	jal	ra,35dc <_free_r>
    2cd4:	4c2c                	lw	a1,88(s0)
    2cd6:	c581                	beqz	a1,2cde <_reclaim_reent+0x7a>
    2cd8:	8522                	mv	a0,s0
    2cda:	103000ef          	jal	ra,35dc <_free_r>
    2cde:	584c                	lw	a1,52(s0)
    2ce0:	c581                	beqz	a1,2ce8 <_reclaim_reent+0x84>
    2ce2:	8522                	mv	a0,s0
    2ce4:	0f9000ef          	jal	ra,35dc <_free_r>
    2ce8:	4c1c                	lw	a5,24(s0)
    2cea:	c3a9                	beqz	a5,2d2c <_reclaim_reent+0xc8>
    2cec:	541c                	lw	a5,40(s0)
    2cee:	8522                	mv	a0,s0
    2cf0:	9782                	jalr	a5
    2cf2:	442c                	lw	a1,72(s0)
    2cf4:	cd85                	beqz	a1,2d2c <_reclaim_reent+0xc8>
    2cf6:	8522                	mv	a0,s0
    2cf8:	4462                	lw	s0,24(sp)
    2cfa:	40f2                	lw	ra,28(sp)
    2cfc:	44d2                	lw	s1,20(sp)
    2cfe:	4942                	lw	s2,16(sp)
    2d00:	49b2                	lw	s3,12(sp)
    2d02:	6105                	addi	sp,sp,32
    2d04:	bf3d                	j	2c42 <cleanup_glue>
    2d06:	95a6                	add	a1,a1,s1
    2d08:	418c                	lw	a1,0(a1)
    2d0a:	e991                	bnez	a1,2d1e <_reclaim_reent+0xba>
    2d0c:	0491                	addi	s1,s1,4
    2d0e:	505c                	lw	a5,36(s0)
    2d10:	47cc                	lw	a1,12(a5)
    2d12:	ff249ae3          	bne	s1,s2,2d06 <_reclaim_reent+0xa2>
    2d16:	8522                	mv	a0,s0
    2d18:	0c5000ef          	jal	ra,35dc <_free_r>
    2d1c:	bf85                	j	2c8c <_reclaim_reent+0x28>
    2d1e:	0005a983          	lw	s3,0(a1)
    2d22:	8522                	mv	a0,s0
    2d24:	0b9000ef          	jal	ra,35dc <_free_r>
    2d28:	85ce                	mv	a1,s3
    2d2a:	b7c5                	j	2d0a <_reclaim_reent+0xa6>
    2d2c:	40f2                	lw	ra,28(sp)
    2d2e:	4462                	lw	s0,24(sp)
    2d30:	44d2                	lw	s1,20(sp)
    2d32:	4942                	lw	s2,16(sp)
    2d34:	49b2                	lw	s3,12(sp)
    2d36:	6105                	addi	sp,sp,32
    2d38:	8082                	ret
    2d3a:	8082                	ret

00002d3c <__swbuf_r>:
    2d3c:	1101                	addi	sp,sp,-32
    2d3e:	cc22                	sw	s0,24(sp)
    2d40:	ca26                	sw	s1,20(sp)
    2d42:	c84a                	sw	s2,16(sp)
    2d44:	ce06                	sw	ra,28(sp)
    2d46:	c64e                	sw	s3,12(sp)
    2d48:	84aa                	mv	s1,a0
    2d4a:	892e                	mv	s2,a1
    2d4c:	8432                	mv	s0,a2
    2d4e:	c501                	beqz	a0,2d56 <bitfield.c.ab41fd61+0xf>
    2d50:	4d1c                	lw	a5,24(a0)
    2d52:	e391                	bnez	a5,2d56 <bitfield.c.ab41fd61+0xf>
    2d54:	2b61                	jal	32ec <__sinit>
    2d56:	000807b7          	lui	a5,0x80
    2d5a:	3d878793          	addi	a5,a5,984 # 803d8 <__sf_fake_stdin>
    2d5e:	06f41963          	bne	s0,a5,2dd0 <bitfield.c.ab41fd61+0x89>
    2d62:	40c0                	lw	s0,4(s1)
    2d64:	4c1c                	lw	a5,24(s0)
    2d66:	c41c                	sw	a5,8(s0)
    2d68:	00c45783          	lhu	a5,12(s0)
    2d6c:	8ba1                	andi	a5,a5,8
    2d6e:	c3c9                	beqz	a5,2df0 <bitfield.c.ab41fd61+0xa9>
    2d70:	481c                	lw	a5,16(s0)
    2d72:	cfbd                	beqz	a5,2df0 <bitfield.c.ab41fd61+0xa9>
    2d74:	481c                	lw	a5,16(s0)
    2d76:	4008                	lw	a0,0(s0)
    2d78:	0ff97993          	zext.b	s3,s2
    2d7c:	0ff97913          	zext.b	s2,s2
    2d80:	8d1d                	sub	a0,a0,a5
    2d82:	485c                	lw	a5,20(s0)
    2d84:	00f54663          	blt	a0,a5,2d90 <bitfield.c.ab41fd61+0x49>
    2d88:	85a2                	mv	a1,s0
    2d8a:	8526                	mv	a0,s1
    2d8c:	2931                	jal	31a8 <_fflush_r>
    2d8e:	e52d                	bnez	a0,2df8 <bitfield.c.ab41fd61+0xb1>
    2d90:	441c                	lw	a5,8(s0)
    2d92:	0505                	addi	a0,a0,1
    2d94:	17fd                	addi	a5,a5,-1
    2d96:	c41c                	sw	a5,8(s0)
    2d98:	401c                	lw	a5,0(s0)
    2d9a:	00178713          	addi	a4,a5,1
    2d9e:	c018                	sw	a4,0(s0)
    2da0:	01378023          	sb	s3,0(a5)
    2da4:	485c                	lw	a5,20(s0)
    2da6:	00a78963          	beq	a5,a0,2db8 <bitfield.c.ab41fd61+0x71>
    2daa:	00c45783          	lhu	a5,12(s0)
    2dae:	8b85                	andi	a5,a5,1
    2db0:	cb81                	beqz	a5,2dc0 <bitfield.c.ab41fd61+0x79>
    2db2:	47a9                	li	a5,10
    2db4:	00f91663          	bne	s2,a5,2dc0 <bitfield.c.ab41fd61+0x79>
    2db8:	85a2                	mv	a1,s0
    2dba:	8526                	mv	a0,s1
    2dbc:	26f5                	jal	31a8 <_fflush_r>
    2dbe:	ed0d                	bnez	a0,2df8 <bitfield.c.ab41fd61+0xb1>
    2dc0:	40f2                	lw	ra,28(sp)
    2dc2:	4462                	lw	s0,24(sp)
    2dc4:	44d2                	lw	s1,20(sp)
    2dc6:	49b2                	lw	s3,12(sp)
    2dc8:	854a                	mv	a0,s2
    2dca:	4942                	lw	s2,16(sp)
    2dcc:	6105                	addi	sp,sp,32
    2dce:	8082                	ret
    2dd0:	000807b7          	lui	a5,0x80
    2dd4:	3f878793          	addi	a5,a5,1016 # 803f8 <__sf_fake_stdout>
    2dd8:	00f41463          	bne	s0,a5,2de0 <bitfield.c.ab41fd61+0x99>
    2ddc:	4480                	lw	s0,8(s1)
    2dde:	b759                	j	2d64 <bitfield.c.ab41fd61+0x1d>
    2de0:	000807b7          	lui	a5,0x80
    2de4:	3b878793          	addi	a5,a5,952 # 803b8 <__sf_fake_stderr>
    2de8:	f6f41ee3          	bne	s0,a5,2d64 <bitfield.c.ab41fd61+0x1d>
    2dec:	44c0                	lw	s0,12(s1)
    2dee:	bf9d                	j	2d64 <bitfield.c.ab41fd61+0x1d>
    2df0:	85a2                	mv	a1,s0
    2df2:	8526                	mv	a0,s1
    2df4:	2819                	jal	2e0a <__swsetup_r>
    2df6:	dd3d                	beqz	a0,2d74 <bitfield.c.ab41fd61+0x2d>
    2df8:	597d                	li	s2,-1
    2dfa:	b7d9                	j	2dc0 <bitfield.c.ab41fd61+0x79>

00002dfc <__swbuf>:
    2dfc:	000807b7          	lui	a5,0x80
    2e00:	862e                	mv	a2,a1
    2e02:	85aa                	mv	a1,a0
    2e04:	6607a503          	lw	a0,1632(a5) # 80660 <_impure_ptr>
    2e08:	bf15                	j	2d3c <__swbuf_r>

00002e0a <__swsetup_r>:
    2e0a:	1141                	addi	sp,sp,-16
    2e0c:	000807b7          	lui	a5,0x80
    2e10:	c226                	sw	s1,4(sp)
    2e12:	6607a483          	lw	s1,1632(a5) # 80660 <_impure_ptr>
    2e16:	c422                	sw	s0,8(sp)
    2e18:	c04a                	sw	s2,0(sp)
    2e1a:	c606                	sw	ra,12(sp)
    2e1c:	892a                	mv	s2,a0
    2e1e:	842e                	mv	s0,a1
    2e20:	c489                	beqz	s1,2e2a <__swsetup_r+0x20>
    2e22:	4c9c                	lw	a5,24(s1)
    2e24:	e399                	bnez	a5,2e2a <__swsetup_r+0x20>
    2e26:	8526                	mv	a0,s1
    2e28:	21d1                	jal	32ec <__sinit>
    2e2a:	000807b7          	lui	a5,0x80
    2e2e:	3d878793          	addi	a5,a5,984 # 803d8 <__sf_fake_stdin>
    2e32:	02f41763          	bne	s0,a5,2e60 <__swsetup_r+0x56>
    2e36:	40c0                	lw	s0,4(s1)
    2e38:	00c41783          	lh	a5,12(s0)
    2e3c:	01079713          	slli	a4,a5,0x10
    2e40:	0087f693          	andi	a3,a5,8
    2e44:	8341                	srli	a4,a4,0x10
    2e46:	eab5                	bnez	a3,2eba <__swsetup_r+0xb0>
    2e48:	01077693          	andi	a3,a4,16
    2e4c:	ea95                	bnez	a3,2e80 <__swsetup_r+0x76>
    2e4e:	4725                	li	a4,9
    2e50:	00e92023          	sw	a4,0(s2)
    2e54:	0407e793          	ori	a5,a5,64
    2e58:	00f41623          	sh	a5,12(s0)
    2e5c:	557d                	li	a0,-1
    2e5e:	a879                	j	2efc <__swsetup_r+0xf2>
    2e60:	000807b7          	lui	a5,0x80
    2e64:	3f878793          	addi	a5,a5,1016 # 803f8 <__sf_fake_stdout>
    2e68:	00f41463          	bne	s0,a5,2e70 <__swsetup_r+0x66>
    2e6c:	4480                	lw	s0,8(s1)
    2e6e:	b7e9                	j	2e38 <__swsetup_r+0x2e>
    2e70:	000807b7          	lui	a5,0x80
    2e74:	3b878793          	addi	a5,a5,952 # 803b8 <__sf_fake_stderr>
    2e78:	fcf410e3          	bne	s0,a5,2e38 <__swsetup_r+0x2e>
    2e7c:	44c0                	lw	s0,12(s1)
    2e7e:	bf6d                	j	2e38 <__swsetup_r+0x2e>
    2e80:	8b11                	andi	a4,a4,4
    2e82:	c715                	beqz	a4,2eae <__swsetup_r+0xa4>
    2e84:	584c                	lw	a1,52(s0)
    2e86:	c991                	beqz	a1,2e9a <__swsetup_r+0x90>
    2e88:	04440793          	addi	a5,s0,68
    2e8c:	00f58563          	beq	a1,a5,2e96 <__swsetup_r+0x8c>
    2e90:	854a                	mv	a0,s2
    2e92:	74a000ef          	jal	ra,35dc <_free_r>
    2e96:	02042a23          	sw	zero,52(s0)
    2e9a:	00c45783          	lhu	a5,12(s0)
    2e9e:	00042223          	sw	zero,4(s0)
    2ea2:	fdb7f793          	andi	a5,a5,-37
    2ea6:	00f41623          	sh	a5,12(s0)
    2eaa:	481c                	lw	a5,16(s0)
    2eac:	c01c                	sw	a5,0(s0)
    2eae:	00c45783          	lhu	a5,12(s0)
    2eb2:	0087e793          	ori	a5,a5,8
    2eb6:	00f41623          	sh	a5,12(s0)
    2eba:	481c                	lw	a5,16(s0)
    2ebc:	ef81                	bnez	a5,2ed4 <__swsetup_r+0xca>
    2ebe:	00c45783          	lhu	a5,12(s0)
    2ec2:	20000713          	li	a4,512
    2ec6:	2807f793          	andi	a5,a5,640
    2eca:	00e78563          	beq	a5,a4,2ed4 <__swsetup_r+0xca>
    2ece:	85a2                	mv	a1,s0
    2ed0:	854a                	mv	a0,s2
    2ed2:	2d85                	jal	3542 <__smakebuf_r>
    2ed4:	00c41783          	lh	a5,12(s0)
    2ed8:	01079713          	slli	a4,a5,0x10
    2edc:	0017f693          	andi	a3,a5,1
    2ee0:	8341                	srli	a4,a4,0x10
    2ee2:	c29d                	beqz	a3,2f08 <__swsetup_r+0xfe>
    2ee4:	4854                	lw	a3,20(s0)
    2ee6:	00042423          	sw	zero,8(s0)
    2eea:	40d006b3          	neg	a3,a3
    2eee:	cc14                	sw	a3,24(s0)
    2ef0:	4814                	lw	a3,16(s0)
    2ef2:	4501                	li	a0,0
    2ef4:	e681                	bnez	a3,2efc <__swsetup_r+0xf2>
    2ef6:	08077713          	andi	a4,a4,128
    2efa:	ff29                	bnez	a4,2e54 <__swsetup_r+0x4a>
    2efc:	40b2                	lw	ra,12(sp)
    2efe:	4422                	lw	s0,8(sp)
    2f00:	4492                	lw	s1,4(sp)
    2f02:	4902                	lw	s2,0(sp)
    2f04:	0141                	addi	sp,sp,16
    2f06:	8082                	ret
    2f08:	00277693          	andi	a3,a4,2
    2f0c:	4601                	li	a2,0
    2f0e:	e291                	bnez	a3,2f12 <__swsetup_r+0x108>
    2f10:	4850                	lw	a2,20(s0)
    2f12:	c410                	sw	a2,8(s0)
    2f14:	bff1                	j	2ef0 <__swsetup_r+0xe6>

00002f16 <__register_exitproc>:
    2f16:	00080837          	lui	a6,0x80
    2f1a:	67082783          	lw	a5,1648(a6) # 80670 <_global_atexit>
    2f1e:	88aa                	mv	a7,a0
    2f20:	e39d                	bnez	a5,2f46 <__register_exitproc+0x30>
    2f22:	00081737          	lui	a4,0x81
    2f26:	9e070513          	addi	a0,a4,-1568 # 809e0 <_global_atexit0>
    2f2a:	66a82823          	sw	a0,1648(a6)
    2f2e:	00000313          	li	t1,0
    2f32:	9e070793          	addi	a5,a4,-1568
    2f36:	00030863          	beqz	t1,2f46 <__register_exitproc+0x30>
    2f3a:	00002783          	lw	a5,0(zero) # 0 <__vector_start>
    2f3e:	08f52423          	sw	a5,136(a0)
    2f42:	9e070793          	addi	a5,a4,-1568
    2f46:	43d8                	lw	a4,4(a5)
    2f48:	487d                	li	a6,31
    2f4a:	557d                	li	a0,-1
    2f4c:	04e84663          	blt	a6,a4,2f98 <memory.c.f6d1f22a+0x9>
    2f50:	02088d63          	beqz	a7,2f8a <__register_exitproc+0x74>
    2f54:	0887a803          	lw	a6,136(a5)
    2f58:	04080063          	beqz	a6,2f98 <memory.c.f6d1f22a+0x9>
    2f5c:	00271513          	slli	a0,a4,0x2
    2f60:	9542                	add	a0,a0,a6
    2f62:	c110                	sw	a2,0(a0)
    2f64:	10082303          	lw	t1,256(a6)
    2f68:	4605                	li	a2,1
    2f6a:	00e61633          	sll	a2,a2,a4
    2f6e:	00c36333          	or	t1,t1,a2
    2f72:	10682023          	sw	t1,256(a6)
    2f76:	08d52023          	sw	a3,128(a0)
    2f7a:	4689                	li	a3,2
    2f7c:	00d89763          	bne	a7,a3,2f8a <__register_exitproc+0x74>
    2f80:	10482683          	lw	a3,260(a6)
    2f84:	8ed1                	or	a3,a3,a2
    2f86:	10d82223          	sw	a3,260(a6)
    2f8a:	00170693          	addi	a3,a4,1
    2f8e:	070a                	slli	a4,a4,0x2
    2f90:	c3d4                	sw	a3,4(a5)
    2f92:	97ba                	add	a5,a5,a4
    2f94:	c78c                	sw	a1,8(a5)
    2f96:	4501                	li	a0,0
    2f98:	8082                	ret

00002f9a <__call_exitprocs>:
    2f9a:	7179                	addi	sp,sp,-48
    2f9c:	c85a                	sw	s6,16(sp)
    2f9e:	00080b37          	lui	s6,0x80
    2fa2:	ca56                	sw	s5,20(sp)
    2fa4:	c65e                	sw	s7,12(sp)
    2fa6:	c462                	sw	s8,8(sp)
    2fa8:	d606                	sw	ra,44(sp)
    2faa:	d422                	sw	s0,40(sp)
    2fac:	d226                	sw	s1,36(sp)
    2fae:	d04a                	sw	s2,32(sp)
    2fb0:	ce4e                	sw	s3,28(sp)
    2fb2:	cc52                	sw	s4,24(sp)
    2fb4:	c266                	sw	s9,4(sp)
    2fb6:	8baa                	mv	s7,a0
    2fb8:	8aae                	mv	s5,a1
    2fba:	670b0b13          	addi	s6,s6,1648 # 80670 <_global_atexit>
    2fbe:	4c05                	li	s8,1
    2fc0:	000b2483          	lw	s1,0(s6)
    2fc4:	cc81                	beqz	s1,2fdc <__call_exitprocs+0x42>
    2fc6:	40c0                	lw	s0,4(s1)
    2fc8:	0884a983          	lw	s3,136(s1)
    2fcc:	fff40913          	addi	s2,s0,-1
    2fd0:	040a                	slli	s0,s0,0x2
    2fd2:	00898a33          	add	s4,s3,s0
    2fd6:	9426                	add	s0,s0,s1
    2fd8:	00095f63          	bgez	s2,2ff6 <__call_exitprocs+0x5c>
    2fdc:	50b2                	lw	ra,44(sp)
    2fde:	5422                	lw	s0,40(sp)
    2fe0:	5492                	lw	s1,36(sp)
    2fe2:	5902                	lw	s2,32(sp)
    2fe4:	49f2                	lw	s3,28(sp)
    2fe6:	4a62                	lw	s4,24(sp)
    2fe8:	4ad2                	lw	s5,20(sp)
    2fea:	4b42                	lw	s6,16(sp)
    2fec:	4bb2                	lw	s7,12(sp)
    2fee:	4c22                	lw	s8,8(sp)
    2ff0:	4c92                	lw	s9,4(sp)
    2ff2:	6145                	addi	sp,sp,48
    2ff4:	8082                	ret
    2ff6:	000a8c63          	beqz	s5,300e <__call_exitprocs+0x74>
    2ffa:	00099663          	bnez	s3,3006 <__call_exitprocs+0x6c>
    2ffe:	197d                	addi	s2,s2,-1
    3000:	1a71                	addi	s4,s4,-4
    3002:	1471                	addi	s0,s0,-4
    3004:	bfd1                	j	2fd8 <__call_exitprocs+0x3e>
    3006:	07ca2783          	lw	a5,124(s4)
    300a:	ff579ae3          	bne	a5,s5,2ffe <__call_exitprocs+0x64>
    300e:	40d8                	lw	a4,4(s1)
    3010:	405c                	lw	a5,4(s0)
    3012:	177d                	addi	a4,a4,-1
    3014:	03271863          	bne	a4,s2,3044 <__call_exitprocs+0xaa>
    3018:	0124a223          	sw	s2,4(s1)
    301c:	d3ed                	beqz	a5,2ffe <__call_exitprocs+0x64>
    301e:	0044ac83          	lw	s9,4(s1)
    3022:	00098863          	beqz	s3,3032 <__call_exitprocs+0x98>
    3026:	1009a683          	lw	a3,256(s3)
    302a:	012c1733          	sll	a4,s8,s2
    302e:	8ef9                	and	a3,a3,a4
    3030:	ee89                	bnez	a3,304a <__call_exitprocs+0xb0>
    3032:	9782                	jalr	a5
    3034:	40d8                	lw	a4,4(s1)
    3036:	000b2783          	lw	a5,0(s6)
    303a:	f99713e3          	bne	a4,s9,2fc0 <__call_exitprocs+0x26>
    303e:	fcf480e3          	beq	s1,a5,2ffe <__call_exitprocs+0x64>
    3042:	bfbd                	j	2fc0 <__call_exitprocs+0x26>
    3044:	00042223          	sw	zero,4(s0)
    3048:	bfd1                	j	301c <__call_exitprocs+0x82>
    304a:	1049a683          	lw	a3,260(s3)
    304e:	ffca2583          	lw	a1,-4(s4)
    3052:	8f75                	and	a4,a4,a3
    3054:	e701                	bnez	a4,305c <__call_exitprocs+0xc2>
    3056:	855e                	mv	a0,s7
    3058:	9782                	jalr	a5
    305a:	bfe9                	j	3034 <__call_exitprocs+0x9a>
    305c:	852e                	mv	a0,a1
    305e:	9782                	jalr	a5
    3060:	bfd1                	j	3034 <__call_exitprocs+0x9a>

00003062 <__sflush_r>:
    3062:	00c5d783          	lhu	a5,12(a1)
    3066:	1101                	addi	sp,sp,-32
    3068:	cc22                	sw	s0,24(sp)
    306a:	ca26                	sw	s1,20(sp)
    306c:	ce06                	sw	ra,28(sp)
    306e:	c84a                	sw	s2,16(sp)
    3070:	c64e                	sw	s3,12(sp)
    3072:	0087f713          	andi	a4,a5,8
    3076:	84aa                	mv	s1,a0
    3078:	842e                	mv	s0,a1
    307a:	e375                	bnez	a4,315e <soc_ctrl.c.866c9c8a+0x6b>
    307c:	41d8                	lw	a4,4(a1)
    307e:	00e04763          	bgtz	a4,308c <__sflush_r+0x2a>
    3082:	41b8                	lw	a4,64(a1)
    3084:	00e04463          	bgtz	a4,308c <__sflush_r+0x2a>
    3088:	4501                	li	a0,0
    308a:	a875                	j	3146 <soc_ctrl.c.866c9c8a+0x53>
    308c:	5458                	lw	a4,44(s0)
    308e:	df6d                	beqz	a4,3088 <__sflush_r+0x26>
    3090:	6685                	lui	a3,0x1
    3092:	0004a903          	lw	s2,0(s1)
    3096:	8ff5                	and	a5,a5,a3
    3098:	0004a023          	sw	zero,0(s1)
    309c:	500c                	lw	a1,32(s0)
    309e:	cfa5                	beqz	a5,3116 <soc_ctrl.c.866c9c8a+0x23>
    30a0:	4868                	lw	a0,84(s0)
    30a2:	00c45783          	lhu	a5,12(s0)
    30a6:	8b91                	andi	a5,a5,4
    30a8:	c799                	beqz	a5,30b6 <__sflush_r+0x54>
    30aa:	405c                	lw	a5,4(s0)
    30ac:	8d1d                	sub	a0,a0,a5
    30ae:	585c                	lw	a5,52(s0)
    30b0:	c399                	beqz	a5,30b6 <__sflush_r+0x54>
    30b2:	403c                	lw	a5,64(s0)
    30b4:	8d1d                	sub	a0,a0,a5
    30b6:	545c                	lw	a5,44(s0)
    30b8:	500c                	lw	a1,32(s0)
    30ba:	862a                	mv	a2,a0
    30bc:	4681                	li	a3,0
    30be:	8526                	mv	a0,s1
    30c0:	9782                	jalr	a5
    30c2:	57fd                	li	a5,-1
    30c4:	00c45703          	lhu	a4,12(s0)
    30c8:	00f51d63          	bne	a0,a5,30e2 <__sflush_r+0x80>
    30cc:	4094                	lw	a3,0(s1)
    30ce:	47f5                	li	a5,29
    30d0:	08d7e263          	bltu	a5,a3,3154 <soc_ctrl.c.866c9c8a+0x61>
    30d4:	dfc007b7          	lui	a5,0xdfc00
    30d8:	17f9                	addi	a5,a5,-2
    30da:	40d7d7b3          	sra	a5,a5,a3
    30de:	8b85                	andi	a5,a5,1
    30e0:	ebb5                	bnez	a5,3154 <soc_ctrl.c.866c9c8a+0x61>
    30e2:	481c                	lw	a5,16(s0)
    30e4:	00042223          	sw	zero,4(s0)
    30e8:	c01c                	sw	a5,0(s0)
    30ea:	6785                	lui	a5,0x1
    30ec:	8f7d                	and	a4,a4,a5
    30ee:	c719                	beqz	a4,30fc <soc_ctrl.c.866c9c8a+0x9>
    30f0:	57fd                	li	a5,-1
    30f2:	00f51463          	bne	a0,a5,30fa <soc_ctrl.c.866c9c8a+0x7>
    30f6:	409c                	lw	a5,0(s1)
    30f8:	e391                	bnez	a5,30fc <soc_ctrl.c.866c9c8a+0x9>
    30fa:	c868                	sw	a0,84(s0)
    30fc:	584c                	lw	a1,52(s0)
    30fe:	0124a023          	sw	s2,0(s1)
    3102:	d1d9                	beqz	a1,3088 <__sflush_r+0x26>
    3104:	04440793          	addi	a5,s0,68
    3108:	00f58463          	beq	a1,a5,3110 <soc_ctrl.c.866c9c8a+0x1d>
    310c:	8526                	mv	a0,s1
    310e:	21f9                	jal	35dc <_free_r>
    3110:	02042a23          	sw	zero,52(s0)
    3114:	bf95                	j	3088 <__sflush_r+0x26>
    3116:	4685                	li	a3,1
    3118:	4601                	li	a2,0
    311a:	8526                	mv	a0,s1
    311c:	9702                	jalr	a4
    311e:	57fd                	li	a5,-1
    3120:	f8f511e3          	bne	a0,a5,30a2 <__sflush_r+0x40>
    3124:	409c                	lw	a5,0(s1)
    3126:	dfb5                	beqz	a5,30a2 <__sflush_r+0x40>
    3128:	4775                	li	a4,29
    312a:	00e78563          	beq	a5,a4,3134 <soc_ctrl.c.866c9c8a+0x41>
    312e:	4759                	li	a4,22
    3130:	00e79563          	bne	a5,a4,313a <soc_ctrl.c.866c9c8a+0x47>
    3134:	0124a023          	sw	s2,0(s1)
    3138:	bf81                	j	3088 <__sflush_r+0x26>
    313a:	00c45783          	lhu	a5,12(s0)
    313e:	0407e793          	ori	a5,a5,64
    3142:	00f41623          	sh	a5,12(s0)
    3146:	40f2                	lw	ra,28(sp)
    3148:	4462                	lw	s0,24(sp)
    314a:	44d2                	lw	s1,20(sp)
    314c:	4942                	lw	s2,16(sp)
    314e:	49b2                	lw	s3,12(sp)
    3150:	6105                	addi	sp,sp,32
    3152:	8082                	ret
    3154:	04076713          	ori	a4,a4,64
    3158:	00e41623          	sh	a4,12(s0)
    315c:	b7ed                	j	3146 <soc_ctrl.c.866c9c8a+0x53>
    315e:	0105a983          	lw	s3,16(a1)
    3162:	f20983e3          	beqz	s3,3088 <__sflush_r+0x26>
    3166:	0005a903          	lw	s2,0(a1)
    316a:	8b8d                	andi	a5,a5,3
    316c:	0135a023          	sw	s3,0(a1)
    3170:	41390933          	sub	s2,s2,s3
    3174:	4701                	li	a4,0
    3176:	e391                	bnez	a5,317a <soc_ctrl.c.866c9c8a+0x87>
    3178:	49d8                	lw	a4,20(a1)
    317a:	c418                	sw	a4,8(s0)
    317c:	f12056e3          	blez	s2,3088 <__sflush_r+0x26>
    3180:	541c                	lw	a5,40(s0)
    3182:	500c                	lw	a1,32(s0)
    3184:	86ca                	mv	a3,s2
    3186:	864e                	mv	a2,s3
    3188:	8526                	mv	a0,s1
    318a:	9782                	jalr	a5
    318c:	00a04a63          	bgtz	a0,31a0 <soc_ctrl.c.866c9c8a+0xad>
    3190:	00c45783          	lhu	a5,12(s0)
    3194:	557d                	li	a0,-1
    3196:	0407e793          	ori	a5,a5,64
    319a:	00f41623          	sh	a5,12(s0)
    319e:	b765                	j	3146 <soc_ctrl.c.866c9c8a+0x53>
    31a0:	99aa                	add	s3,s3,a0
    31a2:	40a90933          	sub	s2,s2,a0
    31a6:	bfd9                	j	317c <soc_ctrl.c.866c9c8a+0x89>

000031a8 <_fflush_r>:
    31a8:	499c                	lw	a5,16(a1)
    31aa:	cfb9                	beqz	a5,3208 <_fflush_r+0x60>
    31ac:	1101                	addi	sp,sp,-32
    31ae:	cc22                	sw	s0,24(sp)
    31b0:	ce06                	sw	ra,28(sp)
    31b2:	842a                	mv	s0,a0
    31b4:	c511                	beqz	a0,31c0 <_fflush_r+0x18>
    31b6:	4d1c                	lw	a5,24(a0)
    31b8:	e781                	bnez	a5,31c0 <_fflush_r+0x18>
    31ba:	c62e                	sw	a1,12(sp)
    31bc:	2a05                	jal	32ec <__sinit>
    31be:	45b2                	lw	a1,12(sp)
    31c0:	000807b7          	lui	a5,0x80
    31c4:	3d878793          	addi	a5,a5,984 # 803d8 <__sf_fake_stdin>
    31c8:	00f59b63          	bne	a1,a5,31de <_fflush_r+0x36>
    31cc:	404c                	lw	a1,4(s0)
    31ce:	00c59783          	lh	a5,12(a1)
    31d2:	c795                	beqz	a5,31fe <_fflush_r+0x56>
    31d4:	8522                	mv	a0,s0
    31d6:	4462                	lw	s0,24(sp)
    31d8:	40f2                	lw	ra,28(sp)
    31da:	6105                	addi	sp,sp,32
    31dc:	b559                	j	3062 <__sflush_r>
    31de:	000807b7          	lui	a5,0x80
    31e2:	3f878793          	addi	a5,a5,1016 # 803f8 <__sf_fake_stdout>
    31e6:	00f59463          	bne	a1,a5,31ee <_fflush_r+0x46>
    31ea:	440c                	lw	a1,8(s0)
    31ec:	b7cd                	j	31ce <_fflush_r+0x26>
    31ee:	000807b7          	lui	a5,0x80
    31f2:	3b878793          	addi	a5,a5,952 # 803b8 <__sf_fake_stderr>
    31f6:	fcf59ce3          	bne	a1,a5,31ce <_fflush_r+0x26>
    31fa:	444c                	lw	a1,12(s0)
    31fc:	bfc9                	j	31ce <_fflush_r+0x26>
    31fe:	40f2                	lw	ra,28(sp)
    3200:	4462                	lw	s0,24(sp)
    3202:	4501                	li	a0,0
    3204:	6105                	addi	sp,sp,32
    3206:	8082                	ret
    3208:	4501                	li	a0,0
    320a:	8082                	ret

0000320c <fflush>:
    320c:	85aa                	mv	a1,a0
    320e:	e909                	bnez	a0,3220 <fflush+0x14>
    3210:	000807b7          	lui	a5,0x80
    3214:	6587a503          	lw	a0,1624(a5) # 80658 <_global_impure_ptr>
    3218:	658d                	lui	a1,0x3
    321a:	1a858593          	addi	a1,a1,424 # 31a8 <_fflush_r>
    321e:	acb9                	j	347c <_fwalk_reent>
    3220:	000807b7          	lui	a5,0x80
    3224:	6607a503          	lw	a0,1632(a5) # 80660 <_impure_ptr>
    3228:	b741                	j	31a8 <_fflush_r>

0000322a <__fp_lock>:
    322a:	4501                	li	a0,0
    322c:	8082                	ret

0000322e <std>:
    322e:	1141                	addi	sp,sp,-16
    3230:	c422                	sw	s0,8(sp)
    3232:	c606                	sw	ra,12(sp)
    3234:	842a                	mv	s0,a0
    3236:	00b51623          	sh	a1,12(a0)
    323a:	00c51723          	sh	a2,14(a0)
    323e:	00052023          	sw	zero,0(a0)
    3242:	00052223          	sw	zero,4(a0)
    3246:	00052423          	sw	zero,8(a0)
    324a:	06052223          	sw	zero,100(a0)
    324e:	00052823          	sw	zero,16(a0)
    3252:	00052a23          	sw	zero,20(a0)
    3256:	00052c23          	sw	zero,24(a0)
    325a:	4621                	li	a2,8
    325c:	4581                	li	a1,0
    325e:	05c50513          	addi	a0,a0,92
    3262:	8e7ff0ef          	jal	ra,2b48 <memset>
    3266:	678d                	lui	a5,0x3
    3268:	78a78793          	addi	a5,a5,1930 # 378a <__sread>
    326c:	d05c                	sw	a5,36(s0)
    326e:	678d                	lui	a5,0x3
    3270:	7be78793          	addi	a5,a5,1982 # 37be <__swrite>
    3274:	d41c                	sw	a5,40(s0)
    3276:	6791                	lui	a5,0x4
    3278:	80c78793          	addi	a5,a5,-2036 # 380c <__sseek>
    327c:	d45c                	sw	a5,44(s0)
    327e:	6791                	lui	a5,0x4
    3280:	84278793          	addi	a5,a5,-1982 # 3842 <__sclose>
    3284:	40b2                	lw	ra,12(sp)
    3286:	d000                	sw	s0,32(s0)
    3288:	d81c                	sw	a5,48(s0)
    328a:	4422                	lw	s0,8(sp)
    328c:	0141                	addi	sp,sp,16
    328e:	8082                	ret

00003290 <_cleanup_r>:
    3290:	658d                	lui	a1,0x3
    3292:	1a858593          	addi	a1,a1,424 # 31a8 <_fflush_r>
    3296:	a2dd                	j	347c <_fwalk_reent>

00003298 <__fp_unlock>:
    3298:	4501                	li	a0,0
    329a:	8082                	ret

0000329c <__sfmoreglue>:
    329c:	1141                	addi	sp,sp,-16
    329e:	c226                	sw	s1,4(sp)
    32a0:	06800793          	li	a5,104
    32a4:	fff58493          	addi	s1,a1,-1
    32a8:	02f484b3          	mul	s1,s1,a5
    32ac:	c04a                	sw	s2,0(sp)
    32ae:	892e                	mv	s2,a1
    32b0:	c422                	sw	s0,8(sp)
    32b2:	c606                	sw	ra,12(sp)
    32b4:	07448593          	addi	a1,s1,116
    32b8:	26d9                	jal	367e <_malloc_r>
    32ba:	842a                	mv	s0,a0
    32bc:	cd01                	beqz	a0,32d4 <__sfmoreglue+0x38>
    32be:	00052023          	sw	zero,0(a0)
    32c2:	01252223          	sw	s2,4(a0)
    32c6:	0531                	addi	a0,a0,12
    32c8:	c408                	sw	a0,8(s0)
    32ca:	06848613          	addi	a2,s1,104
    32ce:	4581                	li	a1,0
    32d0:	879ff0ef          	jal	ra,2b48 <memset>
    32d4:	40b2                	lw	ra,12(sp)
    32d6:	8522                	mv	a0,s0
    32d8:	4422                	lw	s0,8(sp)
    32da:	4492                	lw	s1,4(sp)
    32dc:	4902                	lw	s2,0(sp)
    32de:	0141                	addi	sp,sp,16
    32e0:	8082                	ret

000032e2 <_cleanup>:
    32e2:	000807b7          	lui	a5,0x80
    32e6:	6587a503          	lw	a0,1624(a5) # 80658 <_global_impure_ptr>
    32ea:	b75d                	j	3290 <_cleanup_r>

000032ec <__sinit>:
    32ec:	4d1c                	lw	a5,24(a0)
    32ee:	e3b5                	bnez	a5,3352 <uart.c.04492fba+0x1>
    32f0:	1141                	addi	sp,sp,-16
    32f2:	678d                	lui	a5,0x3
    32f4:	c422                	sw	s0,8(sp)
    32f6:	c606                	sw	ra,12(sp)
    32f8:	29078793          	addi	a5,a5,656 # 3290 <_cleanup_r>
    32fc:	d51c                	sw	a5,40(a0)
    32fe:	000807b7          	lui	a5,0x80
    3302:	6587a783          	lw	a5,1624(a5) # 80658 <_global_impure_ptr>
    3306:	04052423          	sw	zero,72(a0)
    330a:	04052623          	sw	zero,76(a0)
    330e:	04052823          	sw	zero,80(a0)
    3312:	842a                	mv	s0,a0
    3314:	00f51463          	bne	a0,a5,331c <__sinit+0x30>
    3318:	4785                	li	a5,1
    331a:	cd1c                	sw	a5,24(a0)
    331c:	8522                	mv	a0,s0
    331e:	281d                	jal	3354 <__sfp>
    3320:	c048                	sw	a0,4(s0)
    3322:	8522                	mv	a0,s0
    3324:	2805                	jal	3354 <__sfp>
    3326:	c408                	sw	a0,8(s0)
    3328:	8522                	mv	a0,s0
    332a:	202d                	jal	3354 <__sfp>
    332c:	c448                	sw	a0,12(s0)
    332e:	4048                	lw	a0,4(s0)
    3330:	4601                	li	a2,0
    3332:	4591                	li	a1,4
    3334:	3ded                	jal	322e <std>
    3336:	4408                	lw	a0,8(s0)
    3338:	4605                	li	a2,1
    333a:	45a5                	li	a1,9
    333c:	3dcd                	jal	322e <std>
    333e:	4448                	lw	a0,12(s0)
    3340:	4609                	li	a2,2
    3342:	45c9                	li	a1,18
    3344:	35ed                	jal	322e <std>
    3346:	4785                	li	a5,1
    3348:	40b2                	lw	ra,12(sp)
    334a:	cc1c                	sw	a5,24(s0)
    334c:	4422                	lw	s0,8(sp)
    334e:	0141                	addi	sp,sp,16
    3350:	8082                	ret
    3352:	8082                	ret

00003354 <__sfp>:
    3354:	1141                	addi	sp,sp,-16
    3356:	000807b7          	lui	a5,0x80
    335a:	c226                	sw	s1,4(sp)
    335c:	6587a483          	lw	s1,1624(a5) # 80658 <_global_impure_ptr>
    3360:	c04a                	sw	s2,0(sp)
    3362:	c606                	sw	ra,12(sp)
    3364:	4c9c                	lw	a5,24(s1)
    3366:	c422                	sw	s0,8(sp)
    3368:	892a                	mv	s2,a0
    336a:	e399                	bnez	a5,3370 <__sfp+0x1c>
    336c:	8526                	mv	a0,s1
    336e:	3fbd                	jal	32ec <__sinit>
    3370:	04848493          	addi	s1,s1,72
    3374:	4480                	lw	s0,8(s1)
    3376:	40dc                	lw	a5,4(s1)
    3378:	17fd                	addi	a5,a5,-1
    337a:	0007d663          	bgez	a5,3386 <__sfp+0x32>
    337e:	409c                	lw	a5,0(s1)
    3380:	cfb9                	beqz	a5,33de <__sfp+0x8a>
    3382:	4084                	lw	s1,0(s1)
    3384:	bfc5                	j	3374 <__sfp+0x20>
    3386:	00c41703          	lh	a4,12(s0)
    338a:	e739                	bnez	a4,33d8 <__sfp+0x84>
    338c:	77c1                	lui	a5,0xffff0
    338e:	0785                	addi	a5,a5,1
    3390:	06042223          	sw	zero,100(s0)
    3394:	00042023          	sw	zero,0(s0)
    3398:	00042223          	sw	zero,4(s0)
    339c:	00042423          	sw	zero,8(s0)
    33a0:	c45c                	sw	a5,12(s0)
    33a2:	00042823          	sw	zero,16(s0)
    33a6:	00042a23          	sw	zero,20(s0)
    33aa:	00042c23          	sw	zero,24(s0)
    33ae:	4621                	li	a2,8
    33b0:	4581                	li	a1,0
    33b2:	05c40513          	addi	a0,s0,92
    33b6:	f92ff0ef          	jal	ra,2b48 <memset>
    33ba:	02042a23          	sw	zero,52(s0)
    33be:	02042c23          	sw	zero,56(s0)
    33c2:	04042423          	sw	zero,72(s0)
    33c6:	04042623          	sw	zero,76(s0)
    33ca:	40b2                	lw	ra,12(sp)
    33cc:	8522                	mv	a0,s0
    33ce:	4422                	lw	s0,8(sp)
    33d0:	4492                	lw	s1,4(sp)
    33d2:	4902                	lw	s2,0(sp)
    33d4:	0141                	addi	sp,sp,16
    33d6:	8082                	ret
    33d8:	06840413          	addi	s0,s0,104
    33dc:	bf71                	j	3378 <__sfp+0x24>
    33de:	4591                	li	a1,4
    33e0:	854a                	mv	a0,s2
    33e2:	3d6d                	jal	329c <__sfmoreglue>
    33e4:	c088                	sw	a0,0(s1)
    33e6:	842a                	mv	s0,a0
    33e8:	fd49                	bnez	a0,3382 <__sfp+0x2e>
    33ea:	47b1                	li	a5,12
    33ec:	00f92023          	sw	a5,0(s2)
    33f0:	bfe9                	j	33ca <__sfp+0x76>

000033f2 <__sfp_lock_acquire>:
    33f2:	8082                	ret

000033f4 <__sfp_lock_release>:
    33f4:	8082                	ret

000033f6 <__sinit_lock_acquire>:
    33f6:	8082                	ret

000033f8 <__sinit_lock_release>:
    33f8:	8082                	ret

000033fa <__fp_lock_all>:
    33fa:	000807b7          	lui	a5,0x80
    33fe:	6607a503          	lw	a0,1632(a5) # 80660 <_impure_ptr>
    3402:	658d                	lui	a1,0x3
    3404:	22a58593          	addi	a1,a1,554 # 322a <__fp_lock>
    3408:	a809                	j	341a <_fwalk>

0000340a <__fp_unlock_all>:
    340a:	000807b7          	lui	a5,0x80
    340e:	6607a503          	lw	a0,1632(a5) # 80660 <_impure_ptr>
    3412:	658d                	lui	a1,0x3
    3414:	29858593          	addi	a1,a1,664 # 3298 <__fp_unlock>
    3418:	a009                	j	341a <_fwalk>

0000341a <_fwalk>:
    341a:	1101                	addi	sp,sp,-32
    341c:	cc22                	sw	s0,24(sp)
    341e:	c84a                	sw	s2,16(sp)
    3420:	c64e                	sw	s3,12(sp)
    3422:	c256                	sw	s5,4(sp)
    3424:	c05a                	sw	s6,0(sp)
    3426:	ce06                	sw	ra,28(sp)
    3428:	ca26                	sw	s1,20(sp)
    342a:	c452                	sw	s4,8(sp)
    342c:	89ae                	mv	s3,a1
    342e:	04850413          	addi	s0,a0,72
    3432:	4901                	li	s2,0
    3434:	4a85                	li	s5,1
    3436:	5b7d                	li	s6,-1
    3438:	4404                	lw	s1,8(s0)
    343a:	00442a03          	lw	s4,4(s0)
    343e:	1a7d                	addi	s4,s4,-1
    3440:	000a5f63          	bgez	s4,345e <_fwalk+0x44>
    3444:	4000                	lw	s0,0(s0)
    3446:	f86d                	bnez	s0,3438 <_fwalk+0x1e>
    3448:	40f2                	lw	ra,28(sp)
    344a:	4462                	lw	s0,24(sp)
    344c:	44d2                	lw	s1,20(sp)
    344e:	49b2                	lw	s3,12(sp)
    3450:	4a22                	lw	s4,8(sp)
    3452:	4a92                	lw	s5,4(sp)
    3454:	4b02                	lw	s6,0(sp)
    3456:	854a                	mv	a0,s2
    3458:	4942                	lw	s2,16(sp)
    345a:	6105                	addi	sp,sp,32
    345c:	8082                	ret
    345e:	00c4d783          	lhu	a5,12(s1)
    3462:	00fafa63          	bgeu	s5,a5,3476 <_fwalk+0x5c>
    3466:	00e49783          	lh	a5,14(s1)
    346a:	01678663          	beq	a5,s6,3476 <_fwalk+0x5c>
    346e:	8526                	mv	a0,s1
    3470:	9982                	jalr	s3
    3472:	00a96933          	or	s2,s2,a0
    3476:	06848493          	addi	s1,s1,104
    347a:	b7d1                	j	343e <_fwalk+0x24>

0000347c <_fwalk_reent>:
    347c:	7179                	addi	sp,sp,-48
    347e:	d422                	sw	s0,40(sp)
    3480:	d04a                	sw	s2,32(sp)
    3482:	ce4e                	sw	s3,28(sp)
    3484:	cc52                	sw	s4,24(sp)
    3486:	c85a                	sw	s6,16(sp)
    3488:	c65e                	sw	s7,12(sp)
    348a:	d606                	sw	ra,44(sp)
    348c:	d226                	sw	s1,36(sp)
    348e:	ca56                	sw	s5,20(sp)
    3490:	892a                	mv	s2,a0
    3492:	8a2e                	mv	s4,a1
    3494:	04850413          	addi	s0,a0,72
    3498:	4981                	li	s3,0
    349a:	4b05                	li	s6,1
    349c:	5bfd                	li	s7,-1
    349e:	4404                	lw	s1,8(s0)
    34a0:	00442a83          	lw	s5,4(s0)
    34a4:	1afd                	addi	s5,s5,-1
    34a6:	020ad063          	bgez	s5,34c6 <_fwalk_reent+0x4a>
    34aa:	4000                	lw	s0,0(s0)
    34ac:	f86d                	bnez	s0,349e <_fwalk_reent+0x22>
    34ae:	50b2                	lw	ra,44(sp)
    34b0:	5422                	lw	s0,40(sp)
    34b2:	5492                	lw	s1,36(sp)
    34b4:	5902                	lw	s2,32(sp)
    34b6:	4a62                	lw	s4,24(sp)
    34b8:	4ad2                	lw	s5,20(sp)
    34ba:	4b42                	lw	s6,16(sp)
    34bc:	4bb2                	lw	s7,12(sp)
    34be:	854e                	mv	a0,s3
    34c0:	49f2                	lw	s3,28(sp)
    34c2:	6145                	addi	sp,sp,48
    34c4:	8082                	ret
    34c6:	00c4d783          	lhu	a5,12(s1)
    34ca:	00fb7b63          	bgeu	s6,a5,34e0 <_fwalk_reent+0x64>
    34ce:	00e49783          	lh	a5,14(s1)
    34d2:	01778763          	beq	a5,s7,34e0 <_fwalk_reent+0x64>
    34d6:	85a6                	mv	a1,s1
    34d8:	854a                	mv	a0,s2
    34da:	9a02                	jalr	s4
    34dc:	00a9e9b3          	or	s3,s3,a0
    34e0:	06848493          	addi	s1,s1,104
    34e4:	b7c1                	j	34a4 <_fwalk_reent+0x28>

000034e6 <__swhatbuf_r>:
    34e6:	7159                	addi	sp,sp,-112
    34e8:	d4a2                	sw	s0,104(sp)
    34ea:	842e                	mv	s0,a1
    34ec:	00e59583          	lh	a1,14(a1)
    34f0:	d2a6                	sw	s1,100(sp)
    34f2:	d0ca                	sw	s2,96(sp)
    34f4:	d686                	sw	ra,108(sp)
    34f6:	84b2                	mv	s1,a2
    34f8:	8936                	mv	s2,a3
    34fa:	0205d463          	bgez	a1,3522 <__swhatbuf_r+0x3c>
    34fe:	00c45783          	lhu	a5,12(s0)
    3502:	0807f793          	andi	a5,a5,128
    3506:	cf85                	beqz	a5,353e <__swhatbuf_r+0x58>
    3508:	4781                	li	a5,0
    350a:	04000713          	li	a4,64
    350e:	50b6                	lw	ra,108(sp)
    3510:	5426                	lw	s0,104(sp)
    3512:	00f92023          	sw	a5,0(s2)
    3516:	c098                	sw	a4,0(s1)
    3518:	5906                	lw	s2,96(sp)
    351a:	5496                	lw	s1,100(sp)
    351c:	4501                	li	a0,0
    351e:	6165                	addi	sp,sp,112
    3520:	8082                	ret
    3522:	0030                	addi	a2,sp,8
    3524:	2661                	jal	38ac <_fstat_r>
    3526:	fc054ce3          	bltz	a0,34fe <__swhatbuf_r+0x18>
    352a:	4732                	lw	a4,12(sp)
    352c:	67bd                	lui	a5,0xf
    352e:	8ff9                	and	a5,a5,a4
    3530:	7779                	lui	a4,0xffffe
    3532:	97ba                	add	a5,a5,a4
    3534:	0017b793          	seqz	a5,a5
    3538:	40000713          	li	a4,1024
    353c:	bfc9                	j	350e <__swhatbuf_r+0x28>
    353e:	4781                	li	a5,0
    3540:	bfe5                	j	3538 <__swhatbuf_r+0x52>

00003542 <__smakebuf_r>:
    3542:	00c5d783          	lhu	a5,12(a1)
    3546:	1101                	addi	sp,sp,-32
    3548:	cc22                	sw	s0,24(sp)
    354a:	ce06                	sw	ra,28(sp)
    354c:	ca26                	sw	s1,20(sp)
    354e:	c84a                	sw	s2,16(sp)
    3550:	8b89                	andi	a5,a5,2
    3552:	842e                	mv	s0,a1
    3554:	cf89                	beqz	a5,356e <__smakebuf_r+0x2c>
    3556:	04740793          	addi	a5,s0,71
    355a:	c01c                	sw	a5,0(s0)
    355c:	c81c                	sw	a5,16(s0)
    355e:	4785                	li	a5,1
    3560:	c85c                	sw	a5,20(s0)
    3562:	40f2                	lw	ra,28(sp)
    3564:	4462                	lw	s0,24(sp)
    3566:	44d2                	lw	s1,20(sp)
    3568:	4942                	lw	s2,16(sp)
    356a:	6105                	addi	sp,sp,32
    356c:	8082                	ret
    356e:	0074                	addi	a3,sp,12
    3570:	0030                	addi	a2,sp,8
    3572:	84aa                	mv	s1,a0
    3574:	3f8d                	jal	34e6 <__swhatbuf_r>
    3576:	45a2                	lw	a1,8(sp)
    3578:	892a                	mv	s2,a0
    357a:	8526                	mv	a0,s1
    357c:	2209                	jal	367e <_malloc_r>
    357e:	ed01                	bnez	a0,3596 <__smakebuf_r+0x54>
    3580:	00c41783          	lh	a5,12(s0)
    3584:	2007f713          	andi	a4,a5,512
    3588:	ff69                	bnez	a4,3562 <__smakebuf_r+0x20>
    358a:	9bf1                	andi	a5,a5,-4
    358c:	0027e793          	ori	a5,a5,2
    3590:	00f41623          	sh	a5,12(s0)
    3594:	b7c9                	j	3556 <__smakebuf_r+0x14>
    3596:	678d                	lui	a5,0x3
    3598:	29078793          	addi	a5,a5,656 # 3290 <_cleanup_r>
    359c:	d49c                	sw	a5,40(s1)
    359e:	00c45783          	lhu	a5,12(s0)
    35a2:	c008                	sw	a0,0(s0)
    35a4:	c808                	sw	a0,16(s0)
    35a6:	0807e793          	ori	a5,a5,128
    35aa:	00f41623          	sh	a5,12(s0)
    35ae:	47a2                	lw	a5,8(sp)
    35b0:	c85c                	sw	a5,20(s0)
    35b2:	47b2                	lw	a5,12(sp)
    35b4:	cf89                	beqz	a5,35ce <__smakebuf_r+0x8c>
    35b6:	00e41583          	lh	a1,14(s0)
    35ba:	8526                	mv	a0,s1
    35bc:	260d                	jal	38de <_isatty_r>
    35be:	c901                	beqz	a0,35ce <__smakebuf_r+0x8c>
    35c0:	00c45783          	lhu	a5,12(s0)
    35c4:	9bf1                	andi	a5,a5,-4
    35c6:	0017e793          	ori	a5,a5,1
    35ca:	00f41623          	sh	a5,12(s0)
    35ce:	00c45783          	lhu	a5,12(s0)
    35d2:	0127e533          	or	a0,a5,s2
    35d6:	00a41623          	sh	a0,12(s0)
    35da:	b761                	j	3562 <__smakebuf_r+0x20>

000035dc <_free_r>:
    35dc:	c1c5                	beqz	a1,367c <_free_r+0xa0>
    35de:	ffc5a783          	lw	a5,-4(a1)
    35e2:	1101                	addi	sp,sp,-32
    35e4:	cc22                	sw	s0,24(sp)
    35e6:	ce06                	sw	ra,28(sp)
    35e8:	ffc58413          	addi	s0,a1,-4
    35ec:	0007d363          	bgez	a5,35f2 <_free_r+0x16>
    35f0:	943e                	add	s0,s0,a5
    35f2:	c62a                	sw	a0,12(sp)
    35f4:	26b9                	jal	3942 <__malloc_lock>
    35f6:	00080737          	lui	a4,0x80
    35fa:	67472783          	lw	a5,1652(a4) # 80674 <__malloc_free_list>
    35fe:	4532                	lw	a0,12(sp)
    3600:	eb89                	bnez	a5,3612 <_free_r+0x36>
    3602:	00042223          	sw	zero,4(s0)
    3606:	66872a23          	sw	s0,1652(a4)
    360a:	4462                	lw	s0,24(sp)
    360c:	40f2                	lw	ra,28(sp)
    360e:	6105                	addi	sp,sp,32
    3610:	ae15                	j	3944 <__malloc_unlock>
    3612:	00f47d63          	bgeu	s0,a5,362c <_free_r+0x50>
    3616:	4010                	lw	a2,0(s0)
    3618:	00c406b3          	add	a3,s0,a2
    361c:	00d79663          	bne	a5,a3,3628 <_free_r+0x4c>
    3620:	4394                	lw	a3,0(a5)
    3622:	43dc                	lw	a5,4(a5)
    3624:	96b2                	add	a3,a3,a2
    3626:	c014                	sw	a3,0(s0)
    3628:	c05c                	sw	a5,4(s0)
    362a:	bff1                	j	3606 <_free_r+0x2a>
    362c:	873e                	mv	a4,a5
    362e:	43dc                	lw	a5,4(a5)
    3630:	c399                	beqz	a5,3636 <_free_r+0x5a>
    3632:	fef47de3          	bgeu	s0,a5,362c <_free_r+0x50>
    3636:	4314                	lw	a3,0(a4)
    3638:	00d70633          	add	a2,a4,a3
    363c:	00861f63          	bne	a2,s0,365a <_free_r+0x7e>
    3640:	4010                	lw	a2,0(s0)
    3642:	96b2                	add	a3,a3,a2
    3644:	c314                	sw	a3,0(a4)
    3646:	00d70633          	add	a2,a4,a3
    364a:	fcc790e3          	bne	a5,a2,360a <_free_r+0x2e>
    364e:	4390                	lw	a2,0(a5)
    3650:	43dc                	lw	a5,4(a5)
    3652:	96b2                	add	a3,a3,a2
    3654:	c314                	sw	a3,0(a4)
    3656:	c35c                	sw	a5,4(a4)
    3658:	bf4d                	j	360a <_free_r+0x2e>
    365a:	00c47563          	bgeu	s0,a2,3664 <_free_r+0x88>
    365e:	47b1                	li	a5,12
    3660:	c11c                	sw	a5,0(a0)
    3662:	b765                	j	360a <_free_r+0x2e>
    3664:	4010                	lw	a2,0(s0)
    3666:	00c406b3          	add	a3,s0,a2
    366a:	00d79663          	bne	a5,a3,3676 <_free_r+0x9a>
    366e:	4394                	lw	a3,0(a5)
    3670:	43dc                	lw	a5,4(a5)
    3672:	96b2                	add	a3,a3,a2
    3674:	c014                	sw	a3,0(s0)
    3676:	c05c                	sw	a5,4(s0)
    3678:	c340                	sw	s0,4(a4)
    367a:	bf41                	j	360a <_free_r+0x2e>
    367c:	8082                	ret

0000367e <_malloc_r>:
    367e:	1101                	addi	sp,sp,-32
    3680:	ca26                	sw	s1,20(sp)
    3682:	00358493          	addi	s1,a1,3
    3686:	98f1                	andi	s1,s1,-4
    3688:	c84a                	sw	s2,16(sp)
    368a:	ce06                	sw	ra,28(sp)
    368c:	cc22                	sw	s0,24(sp)
    368e:	c64e                	sw	s3,12(sp)
    3690:	04a1                	addi	s1,s1,8
    3692:	47b1                	li	a5,12
    3694:	892a                	mv	s2,a0
    3696:	04f4f663          	bgeu	s1,a5,36e2 <_malloc_r+0x64>
    369a:	44b1                	li	s1,12
    369c:	04b4e563          	bltu	s1,a1,36e6 <_malloc_r+0x68>
    36a0:	854a                	mv	a0,s2
    36a2:	2445                	jal	3942 <__malloc_lock>
    36a4:	000807b7          	lui	a5,0x80
    36a8:	67478713          	addi	a4,a5,1652 # 80674 <__malloc_free_list>
    36ac:	4318                	lw	a4,0(a4)
    36ae:	67478693          	addi	a3,a5,1652
    36b2:	843a                	mv	s0,a4
    36b4:	e421                	bnez	s0,36fc <_malloc_r+0x7e>
    36b6:	00080437          	lui	s0,0x80
    36ba:	67840413          	addi	s0,s0,1656 # 80678 <__malloc_sbrk_start>
    36be:	401c                	lw	a5,0(s0)
    36c0:	e789                	bnez	a5,36ca <_malloc_r+0x4c>
    36c2:	4581                	li	a1,0
    36c4:	854a                	mv	a0,s2
    36c6:	2851                	jal	375a <_sbrk_r>
    36c8:	c008                	sw	a0,0(s0)
    36ca:	85a6                	mv	a1,s1
    36cc:	854a                	mv	a0,s2
    36ce:	2071                	jal	375a <_sbrk_r>
    36d0:	59fd                	li	s3,-1
    36d2:	07351863          	bne	a0,s3,3742 <_malloc_r+0xc4>
    36d6:	47b1                	li	a5,12
    36d8:	00f92023          	sw	a5,0(s2)
    36dc:	854a                	mv	a0,s2
    36de:	249d                	jal	3944 <__malloc_unlock>
    36e0:	a031                	j	36ec <_malloc_r+0x6e>
    36e2:	fa04dde3          	bgez	s1,369c <_malloc_r+0x1e>
    36e6:	47b1                	li	a5,12
    36e8:	00f92023          	sw	a5,0(s2)
    36ec:	4501                	li	a0,0
    36ee:	40f2                	lw	ra,28(sp)
    36f0:	4462                	lw	s0,24(sp)
    36f2:	44d2                	lw	s1,20(sp)
    36f4:	4942                	lw	s2,16(sp)
    36f6:	49b2                	lw	s3,12(sp)
    36f8:	6105                	addi	sp,sp,32
    36fa:	8082                	ret
    36fc:	401c                	lw	a5,0(s0)
    36fe:	8f85                	sub	a5,a5,s1
    3700:	0207ce63          	bltz	a5,373c <_malloc_r+0xbe>
    3704:	462d                	li	a2,11
    3706:	00f67663          	bgeu	a2,a5,3712 <_malloc_r+0x94>
    370a:	c01c                	sw	a5,0(s0)
    370c:	943e                	add	s0,s0,a5
    370e:	c004                	sw	s1,0(s0)
    3710:	a029                	j	371a <_malloc_r+0x9c>
    3712:	405c                	lw	a5,4(s0)
    3714:	02871263          	bne	a4,s0,3738 <_malloc_r+0xba>
    3718:	c29c                	sw	a5,0(a3)
    371a:	854a                	mv	a0,s2
    371c:	2425                	jal	3944 <__malloc_unlock>
    371e:	00b40513          	addi	a0,s0,11
    3722:	00440793          	addi	a5,s0,4
    3726:	9961                	andi	a0,a0,-8
    3728:	40f50733          	sub	a4,a0,a5
    372c:	fcf501e3          	beq	a0,a5,36ee <_malloc_r+0x70>
    3730:	943a                	add	s0,s0,a4
    3732:	8f89                	sub	a5,a5,a0
    3734:	c01c                	sw	a5,0(s0)
    3736:	bf65                	j	36ee <_malloc_r+0x70>
    3738:	c35c                	sw	a5,4(a4)
    373a:	b7c5                	j	371a <_malloc_r+0x9c>
    373c:	8722                	mv	a4,s0
    373e:	4040                	lw	s0,4(s0)
    3740:	bf95                	j	36b4 <_malloc_r+0x36>
    3742:	00350413          	addi	s0,a0,3
    3746:	9871                	andi	s0,s0,-4
    3748:	fc8503e3          	beq	a0,s0,370e <_malloc_r+0x90>
    374c:	40a405b3          	sub	a1,s0,a0
    3750:	854a                	mv	a0,s2
    3752:	2021                	jal	375a <_sbrk_r>
    3754:	fb351de3          	bne	a0,s3,370e <_malloc_r+0x90>
    3758:	bfbd                	j	36d6 <_malloc_r+0x58>

0000375a <_sbrk_r>:
    375a:	1141                	addi	sp,sp,-16
    375c:	c422                	sw	s0,8(sp)
    375e:	c226                	sw	s1,4(sp)
    3760:	842a                	mv	s0,a0
    3762:	000804b7          	lui	s1,0x80
    3766:	852e                	mv	a0,a1
    3768:	c606                	sw	ra,12(sp)
    376a:	6604a623          	sw	zero,1644(s1) # 8066c <errno>
    376e:	bfffe0ef          	jal	ra,236c <_sbrk>
    3772:	57fd                	li	a5,-1
    3774:	00f51663          	bne	a0,a5,3780 <_sbrk_r+0x26>
    3778:	66c4a783          	lw	a5,1644(s1)
    377c:	c391                	beqz	a5,3780 <_sbrk_r+0x26>
    377e:	c01c                	sw	a5,0(s0)
    3780:	40b2                	lw	ra,12(sp)
    3782:	4422                	lw	s0,8(sp)
    3784:	4492                	lw	s1,4(sp)
    3786:	0141                	addi	sp,sp,16
    3788:	8082                	ret

0000378a <__sread>:
    378a:	1141                	addi	sp,sp,-16
    378c:	c422                	sw	s0,8(sp)
    378e:	842e                	mv	s0,a1
    3790:	00e59583          	lh	a1,14(a1)
    3794:	c606                	sw	ra,12(sp)
    3796:	2a45                	jal	3946 <_read_r>
    3798:	00054963          	bltz	a0,37aa <__sread+0x20>
    379c:	487c                	lw	a5,84(s0)
    379e:	97aa                	add	a5,a5,a0
    37a0:	c87c                	sw	a5,84(s0)
    37a2:	40b2                	lw	ra,12(sp)
    37a4:	4422                	lw	s0,8(sp)
    37a6:	0141                	addi	sp,sp,16
    37a8:	8082                	ret
    37aa:	00c45783          	lhu	a5,12(s0)
    37ae:	777d                	lui	a4,0xfffff
    37b0:	177d                	addi	a4,a4,-1
    37b2:	8ff9                	and	a5,a5,a4
    37b4:	00f41623          	sh	a5,12(s0)
    37b8:	b7ed                	j	37a2 <__sread+0x18>

000037ba <__seofread>:
    37ba:	4501                	li	a0,0
    37bc:	8082                	ret

000037be <__swrite>:
    37be:	00c5d783          	lhu	a5,12(a1)
    37c2:	1101                	addi	sp,sp,-32
    37c4:	cc22                	sw	s0,24(sp)
    37c6:	ca26                	sw	s1,20(sp)
    37c8:	c84a                	sw	s2,16(sp)
    37ca:	c64e                	sw	s3,12(sp)
    37cc:	ce06                	sw	ra,28(sp)
    37ce:	1007f793          	andi	a5,a5,256
    37d2:	84aa                	mv	s1,a0
    37d4:	842e                	mv	s0,a1
    37d6:	8932                	mv	s2,a2
    37d8:	89b6                	mv	s3,a3
    37da:	c791                	beqz	a5,37e6 <__swrite+0x28>
    37dc:	00e59583          	lh	a1,14(a1)
    37e0:	4689                	li	a3,2
    37e2:	4601                	li	a2,0
    37e4:	222d                	jal	390e <_lseek_r>
    37e6:	00c45783          	lhu	a5,12(s0)
    37ea:	777d                	lui	a4,0xfffff
    37ec:	177d                	addi	a4,a4,-1
    37ee:	8ff9                	and	a5,a5,a4
    37f0:	00e41583          	lh	a1,14(s0)
    37f4:	00f41623          	sh	a5,12(s0)
    37f8:	4462                	lw	s0,24(sp)
    37fa:	40f2                	lw	ra,28(sp)
    37fc:	86ce                	mv	a3,s3
    37fe:	864a                	mv	a2,s2
    3800:	49b2                	lw	s3,12(sp)
    3802:	4942                	lw	s2,16(sp)
    3804:	8526                	mv	a0,s1
    3806:	44d2                	lw	s1,20(sp)
    3808:	6105                	addi	sp,sp,32
    380a:	a83d                	j	3848 <_write_r>

0000380c <__sseek>:
    380c:	1141                	addi	sp,sp,-16
    380e:	c422                	sw	s0,8(sp)
    3810:	842e                	mv	s0,a1
    3812:	00e59583          	lh	a1,14(a1)
    3816:	c606                	sw	ra,12(sp)
    3818:	28dd                	jal	390e <_lseek_r>
    381a:	577d                	li	a4,-1
    381c:	00c45783          	lhu	a5,12(s0)
    3820:	00e51b63          	bne	a0,a4,3836 <__sseek+0x2a>
    3824:	777d                	lui	a4,0xfffff
    3826:	177d                	addi	a4,a4,-1
    3828:	8ff9                	and	a5,a5,a4
    382a:	00f41623          	sh	a5,12(s0)
    382e:	40b2                	lw	ra,12(sp)
    3830:	4422                	lw	s0,8(sp)
    3832:	0141                	addi	sp,sp,16
    3834:	8082                	ret
    3836:	6705                	lui	a4,0x1
    3838:	8fd9                	or	a5,a5,a4
    383a:	00f41623          	sh	a5,12(s0)
    383e:	c868                	sw	a0,84(s0)
    3840:	b7fd                	j	382e <__sseek+0x22>

00003842 <__sclose>:
    3842:	00e59583          	lh	a1,14(a1)
    3846:	a81d                	j	387c <_close_r>

00003848 <_write_r>:
    3848:	1141                	addi	sp,sp,-16
    384a:	c422                	sw	s0,8(sp)
    384c:	c226                	sw	s1,4(sp)
    384e:	842a                	mv	s0,a0
    3850:	000804b7          	lui	s1,0x80
    3854:	852e                	mv	a0,a1
    3856:	85b2                	mv	a1,a2
    3858:	8636                	mv	a2,a3
    385a:	c606                	sw	ra,12(sp)
    385c:	6604a623          	sw	zero,1644(s1) # 8066c <errno>
    3860:	a61fe0ef          	jal	ra,22c0 <_write>
    3864:	57fd                	li	a5,-1
    3866:	00f51663          	bne	a0,a5,3872 <_write_r+0x2a>
    386a:	66c4a783          	lw	a5,1644(s1)
    386e:	c391                	beqz	a5,3872 <_write_r+0x2a>
    3870:	c01c                	sw	a5,0(s0)
    3872:	40b2                	lw	ra,12(sp)
    3874:	4422                	lw	s0,8(sp)
    3876:	4492                	lw	s1,4(sp)
    3878:	0141                	addi	sp,sp,16
    387a:	8082                	ret

0000387c <_close_r>:
    387c:	1141                	addi	sp,sp,-16
    387e:	c422                	sw	s0,8(sp)
    3880:	c226                	sw	s1,4(sp)
    3882:	842a                	mv	s0,a0
    3884:	000804b7          	lui	s1,0x80
    3888:	852e                	mv	a0,a1
    388a:	c606                	sw	ra,12(sp)
    388c:	6604a623          	sw	zero,1644(s1) # 8066c <errno>
    3890:	a05fe0ef          	jal	ra,2294 <_close>
    3894:	57fd                	li	a5,-1
    3896:	00f51663          	bne	a0,a5,38a2 <rv_plic.c.e296d9ea+0xd>
    389a:	66c4a783          	lw	a5,1644(s1)
    389e:	c391                	beqz	a5,38a2 <rv_plic.c.e296d9ea+0xd>
    38a0:	c01c                	sw	a5,0(s0)
    38a2:	40b2                	lw	ra,12(sp)
    38a4:	4422                	lw	s0,8(sp)
    38a6:	4492                	lw	s1,4(sp)
    38a8:	0141                	addi	sp,sp,16
    38aa:	8082                	ret

000038ac <_fstat_r>:
    38ac:	1141                	addi	sp,sp,-16
    38ae:	c422                	sw	s0,8(sp)
    38b0:	c226                	sw	s1,4(sp)
    38b2:	842a                	mv	s0,a0
    38b4:	000804b7          	lui	s1,0x80
    38b8:	852e                	mv	a0,a1
    38ba:	85b2                	mv	a1,a2
    38bc:	c606                	sw	ra,12(sp)
    38be:	6604a623          	sw	zero,1644(s1) # 8066c <errno>
    38c2:	9e7fe0ef          	jal	ra,22a8 <_fstat>
    38c6:	57fd                	li	a5,-1
    38c8:	00f51663          	bne	a0,a5,38d4 <_fstat_r+0x28>
    38cc:	66c4a783          	lw	a5,1644(s1)
    38d0:	c391                	beqz	a5,38d4 <_fstat_r+0x28>
    38d2:	c01c                	sw	a5,0(s0)
    38d4:	40b2                	lw	ra,12(sp)
    38d6:	4422                	lw	s0,8(sp)
    38d8:	4492                	lw	s1,4(sp)
    38da:	0141                	addi	sp,sp,16
    38dc:	8082                	ret

000038de <_isatty_r>:
    38de:	1141                	addi	sp,sp,-16
    38e0:	c422                	sw	s0,8(sp)
    38e2:	c226                	sw	s1,4(sp)
    38e4:	842a                	mv	s0,a0
    38e6:	000804b7          	lui	s1,0x80
    38ea:	852e                	mv	a0,a1
    38ec:	c606                	sw	ra,12(sp)
    38ee:	6604a623          	sw	zero,1644(s1) # 8066c <errno>
    38f2:	9bffe0ef          	jal	ra,22b0 <_isatty>
    38f6:	57fd                	li	a5,-1
    38f8:	00f51663          	bne	a0,a5,3904 <_isatty_r+0x26>
    38fc:	66c4a783          	lw	a5,1644(s1)
    3900:	c391                	beqz	a5,3904 <_isatty_r+0x26>
    3902:	c01c                	sw	a5,0(s0)
    3904:	40b2                	lw	ra,12(sp)
    3906:	4422                	lw	s0,8(sp)
    3908:	4492                	lw	s1,4(sp)
    390a:	0141                	addi	sp,sp,16
    390c:	8082                	ret

0000390e <_lseek_r>:
    390e:	1141                	addi	sp,sp,-16
    3910:	c422                	sw	s0,8(sp)
    3912:	c226                	sw	s1,4(sp)
    3914:	842a                	mv	s0,a0
    3916:	000804b7          	lui	s1,0x80
    391a:	852e                	mv	a0,a1
    391c:	85b2                	mv	a1,a2
    391e:	8636                	mv	a2,a3
    3920:	c606                	sw	ra,12(sp)
    3922:	6604a623          	sw	zero,1644(s1) # 8066c <errno>
    3926:	993fe0ef          	jal	ra,22b8 <_lseek>
    392a:	57fd                	li	a5,-1
    392c:	00f51663          	bne	a0,a5,3938 <_lseek_r+0x2a>
    3930:	66c4a783          	lw	a5,1644(s1)
    3934:	c391                	beqz	a5,3938 <_lseek_r+0x2a>
    3936:	c01c                	sw	a5,0(s0)
    3938:	40b2                	lw	ra,12(sp)
    393a:	4422                	lw	s0,8(sp)
    393c:	4492                	lw	s1,4(sp)
    393e:	0141                	addi	sp,sp,16
    3940:	8082                	ret

00003942 <__malloc_lock>:
    3942:	8082                	ret

00003944 <__malloc_unlock>:
    3944:	8082                	ret

00003946 <_read_r>:
    3946:	1141                	addi	sp,sp,-16
    3948:	c422                	sw	s0,8(sp)
    394a:	c226                	sw	s1,4(sp)
    394c:	842a                	mv	s0,a0
    394e:	000804b7          	lui	s1,0x80
    3952:	852e                	mv	a0,a1
    3954:	85b2                	mv	a1,a2
    3956:	8636                	mv	a2,a3
    3958:	c606                	sw	ra,12(sp)
    395a:	6604a623          	sw	zero,1644(s1) # 8066c <errno>
    395e:	95ffe0ef          	jal	ra,22bc <_read>
    3962:	57fd                	li	a5,-1
    3964:	00f51663          	bne	a0,a5,3970 <_read_r+0x2a>
    3968:	66c4a783          	lw	a5,1644(s1)
    396c:	c391                	beqz	a5,3970 <_read_r+0x2a>
    396e:	c01c                	sw	a5,0(s0)
    3970:	40b2                	lw	ra,12(sp)
    3972:	4422                	lw	s0,8(sp)
    3974:	4492                	lw	s1,4(sp)
    3976:	0141                	addi	sp,sp,16
    3978:	8082                	ret

0000397a <_iprintf_r>:
    397a:	7139                	addi	sp,sp,-64
    397c:	cc22                	sw	s0,24(sp)
    397e:	ca26                	sw	s1,20(sp)
    3980:	ce06                	sw	ra,28(sp)
    3982:	d432                	sw	a2,40(sp)
    3984:	d636                	sw	a3,44(sp)
    3986:	d83a                	sw	a4,48(sp)
    3988:	da3e                	sw	a5,52(sp)
    398a:	dc42                	sw	a6,56(sp)
    398c:	de46                	sw	a7,60(sp)
    398e:	842a                	mv	s0,a0
    3990:	84ae                	mv	s1,a1
    3992:	c509                	beqz	a0,399c <_iprintf_r+0x22>
    3994:	4d1c                	lw	a5,24(a0)
    3996:	e399                	bnez	a5,399c <_iprintf_r+0x22>
    3998:	955ff0ef          	jal	ra,32ec <__sinit>
    399c:	440c                	lw	a1,8(s0)
    399e:	1034                	addi	a3,sp,40
    39a0:	8626                	mv	a2,s1
    39a2:	8522                	mv	a0,s0
    39a4:	c636                	sw	a3,12(sp)
    39a6:	28e1                	jal	3a7e <_vfiprintf_r>
    39a8:	40f2                	lw	ra,28(sp)
    39aa:	4462                	lw	s0,24(sp)
    39ac:	44d2                	lw	s1,20(sp)
    39ae:	6121                	addi	sp,sp,64
    39b0:	8082                	ret

000039b2 <iprintf>:
    39b2:	715d                	addi	sp,sp,-80
    39b4:	c2be                	sw	a5,68(sp)
    39b6:	000807b7          	lui	a5,0x80
    39ba:	d422                	sw	s0,40(sp)
    39bc:	842a                	mv	s0,a0
    39be:	6607a503          	lw	a0,1632(a5) # 80660 <_impure_ptr>
    39c2:	d606                	sw	ra,44(sp)
    39c4:	da2e                	sw	a1,52(sp)
    39c6:	dc32                	sw	a2,56(sp)
    39c8:	de36                	sw	a3,60(sp)
    39ca:	c0ba                	sw	a4,64(sp)
    39cc:	c4c2                	sw	a6,72(sp)
    39ce:	c6c6                	sw	a7,76(sp)
    39d0:	c519                	beqz	a0,39de <iprintf+0x2c>
    39d2:	4d1c                	lw	a5,24(a0)
    39d4:	e789                	bnez	a5,39de <iprintf+0x2c>
    39d6:	c62a                	sw	a0,12(sp)
    39d8:	915ff0ef          	jal	ra,32ec <__sinit>
    39dc:	4532                	lw	a0,12(sp)
    39de:	450c                	lw	a1,8(a0)
    39e0:	1854                	addi	a3,sp,52
    39e2:	8622                	mv	a2,s0
    39e4:	ce36                	sw	a3,28(sp)
    39e6:	2861                	jal	3a7e <_vfiprintf_r>
    39e8:	50b2                	lw	ra,44(sp)
    39ea:	5422                	lw	s0,40(sp)
    39ec:	6161                	addi	sp,sp,80
    39ee:	8082                	ret

000039f0 <__sfputc_r>:
    39f0:	461c                	lw	a5,8(a2)
    39f2:	17fd                	addi	a5,a5,-1
    39f4:	c61c                	sw	a5,8(a2)
    39f6:	0007da63          	bgez	a5,3a0a <__sfputc_r+0x1a>
    39fa:	4e18                	lw	a4,24(a2)
    39fc:	00e7c563          	blt	a5,a4,3a06 <__sfputc_r+0x16>
    3a00:	47a9                	li	a5,10
    3a02:	00f59463          	bne	a1,a5,3a0a <__sfputc_r+0x1a>
    3a06:	b36ff06f          	j	2d3c <__swbuf_r>
    3a0a:	421c                	lw	a5,0(a2)
    3a0c:	852e                	mv	a0,a1
    3a0e:	00178713          	addi	a4,a5,1
    3a12:	c218                	sw	a4,0(a2)
    3a14:	00b78023          	sb	a1,0(a5)
    3a18:	8082                	ret

00003a1a <__sfputs_r>:
    3a1a:	1101                	addi	sp,sp,-32
    3a1c:	cc22                	sw	s0,24(sp)
    3a1e:	ca26                	sw	s1,20(sp)
    3a20:	c84a                	sw	s2,16(sp)
    3a22:	c64e                	sw	s3,12(sp)
    3a24:	c452                	sw	s4,8(sp)
    3a26:	ce06                	sw	ra,28(sp)
    3a28:	892a                	mv	s2,a0
    3a2a:	89ae                	mv	s3,a1
    3a2c:	8432                	mv	s0,a2
    3a2e:	00d604b3          	add	s1,a2,a3
    3a32:	5a7d                	li	s4,-1
    3a34:	00941463          	bne	s0,s1,3a3c <__sfputs_r+0x22>
    3a38:	4501                	li	a0,0
    3a3a:	a809                	j	3a4c <__sfputs_r+0x32>
    3a3c:	00044583          	lbu	a1,0(s0)
    3a40:	864e                	mv	a2,s3
    3a42:	854a                	mv	a0,s2
    3a44:	3775                	jal	39f0 <__sfputc_r>
    3a46:	0405                	addi	s0,s0,1
    3a48:	ff4516e3          	bne	a0,s4,3a34 <__sfputs_r+0x1a>
    3a4c:	40f2                	lw	ra,28(sp)
    3a4e:	4462                	lw	s0,24(sp)
    3a50:	44d2                	lw	s1,20(sp)
    3a52:	4942                	lw	s2,16(sp)
    3a54:	49b2                	lw	s3,12(sp)
    3a56:	4a22                	lw	s4,8(sp)
    3a58:	6105                	addi	sp,sp,32
    3a5a:	8082                	ret

00003a5c <__sprint_r>:
    3a5c:	461c                	lw	a5,8(a2)
    3a5e:	1141                	addi	sp,sp,-16
    3a60:	c422                	sw	s0,8(sp)
    3a62:	c606                	sw	ra,12(sp)
    3a64:	8432                	mv	s0,a2
    3a66:	cb91                	beqz	a5,3a7a <__sprint_r+0x1e>
    3a68:	24d1                	jal	3d2c <__sfvwrite_r>
    3a6a:	00042423          	sw	zero,8(s0)
    3a6e:	40b2                	lw	ra,12(sp)
    3a70:	00042223          	sw	zero,4(s0)
    3a74:	4422                	lw	s0,8(sp)
    3a76:	0141                	addi	sp,sp,16
    3a78:	8082                	ret
    3a7a:	4501                	li	a0,0
    3a7c:	bfcd                	j	3a6e <__sprint_r+0x12>

00003a7e <_vfiprintf_r>:
    3a7e:	7171                	addi	sp,sp,-176
    3a80:	d522                	sw	s0,168(sp)
    3a82:	d326                	sw	s1,164(sp)
    3a84:	d14a                	sw	s2,160(sp)
    3a86:	cf4e                	sw	s3,156(sp)
    3a88:	d706                	sw	ra,172(sp)
    3a8a:	cd52                	sw	s4,152(sp)
    3a8c:	cb56                	sw	s5,148(sp)
    3a8e:	c95a                	sw	s6,144(sp)
    3a90:	c75e                	sw	s7,140(sp)
    3a92:	c562                	sw	s8,136(sp)
    3a94:	c366                	sw	s9,132(sp)
    3a96:	c16a                	sw	s10,128(sp)
    3a98:	deee                	sw	s11,124(sp)
    3a9a:	89aa                	mv	s3,a0
    3a9c:	84ae                	mv	s1,a1
    3a9e:	8932                	mv	s2,a2
    3aa0:	8436                	mv	s0,a3
    3aa2:	c509                	beqz	a0,3aac <_vfiprintf_r+0x2e>
    3aa4:	4d1c                	lw	a5,24(a0)
    3aa6:	e399                	bnez	a5,3aac <_vfiprintf_r+0x2e>
    3aa8:	845ff0ef          	jal	ra,32ec <__sinit>
    3aac:	000807b7          	lui	a5,0x80
    3ab0:	3d878793          	addi	a5,a5,984 # 803d8 <__sf_fake_stdin>
    3ab4:	0ef49363          	bne	s1,a5,3b9a <_vfiprintf_r+0x11c>
    3ab8:	0049a483          	lw	s1,4(s3)
    3abc:	00c4d783          	lhu	a5,12(s1)
    3ac0:	8ba1                	andi	a5,a5,8
    3ac2:	0e078e63          	beqz	a5,3bbe <_vfiprintf_r+0x140>
    3ac6:	489c                	lw	a5,16(s1)
    3ac8:	0e078b63          	beqz	a5,3bbe <_vfiprintf_r+0x140>
    3acc:	02000793          	li	a5,32
    3ad0:	02f104a3          	sb	a5,41(sp)
    3ad4:	03000793          	li	a5,48
    3ad8:	d202                	sw	zero,36(sp)
    3ada:	02f10523          	sb	a5,42(sp)
    3ade:	c622                	sw	s0,12(sp)
    3ae0:	02500c93          	li	s9,37
    3ae4:	00080b37          	lui	s6,0x80
    3ae8:	00080bb7          	lui	s7,0x80
    3aec:	00080d37          	lui	s10,0x80
    3af0:	6c11                	lui	s8,0x4
    3af2:	00000a93          	li	s5,0
    3af6:	844a                	mv	s0,s2
    3af8:	00044783          	lbu	a5,0(s0)
    3afc:	c399                	beqz	a5,3b02 <_vfiprintf_r+0x84>
    3afe:	0f979663          	bne	a5,s9,3bea <_vfiprintf_r+0x16c>
    3b02:	41240db3          	sub	s11,s0,s2
    3b06:	01240d63          	beq	s0,s2,3b20 <_vfiprintf_r+0xa2>
    3b0a:	86ee                	mv	a3,s11
    3b0c:	864a                	mv	a2,s2
    3b0e:	85a6                	mv	a1,s1
    3b10:	854e                	mv	a0,s3
    3b12:	3721                	jal	3a1a <__sfputs_r>
    3b14:	57fd                	li	a5,-1
    3b16:	1ef50363          	beq	a0,a5,3cfc <_vfiprintf_r+0x27e>
    3b1a:	5792                	lw	a5,36(sp)
    3b1c:	97ee                	add	a5,a5,s11
    3b1e:	d23e                	sw	a5,36(sp)
    3b20:	00044783          	lbu	a5,0(s0)
    3b24:	1c078c63          	beqz	a5,3cfc <_vfiprintf_r+0x27e>
    3b28:	57fd                	li	a5,-1
    3b2a:	00140913          	addi	s2,s0,1
    3b2e:	c802                	sw	zero,16(sp)
    3b30:	ce02                	sw	zero,28(sp)
    3b32:	ca3e                	sw	a5,20(sp)
    3b34:	cc02                	sw	zero,24(sp)
    3b36:	040109a3          	sb	zero,83(sp)
    3b3a:	d482                	sw	zero,104(sp)
    3b3c:	4d85                	li	s11,1
    3b3e:	00094583          	lbu	a1,0(s2)
    3b42:	4615                	li	a2,5
    3b44:	418b0513          	addi	a0,s6,1048 # 80418 <__sf_fake_stdout+0x20>
    3b48:	217d                	jal	3ff6 <memchr>
    3b4a:	47c2                	lw	a5,16(sp)
    3b4c:	00190413          	addi	s0,s2,1
    3b50:	ed59                	bnez	a0,3bee <_vfiprintf_r+0x170>
    3b52:	0107f713          	andi	a4,a5,16
    3b56:	c709                	beqz	a4,3b60 <_vfiprintf_r+0xe2>
    3b58:	02000713          	li	a4,32
    3b5c:	04e109a3          	sb	a4,83(sp)
    3b60:	0087f713          	andi	a4,a5,8
    3b64:	c709                	beqz	a4,3b6e <_vfiprintf_r+0xf0>
    3b66:	02b00713          	li	a4,43
    3b6a:	04e109a3          	sb	a4,83(sp)
    3b6e:	00094683          	lbu	a3,0(s2)
    3b72:	02a00713          	li	a4,42
    3b76:	08e68563          	beq	a3,a4,3c00 <_vfiprintf_r+0x182>
    3b7a:	47f2                	lw	a5,28(sp)
    3b7c:	844a                	mv	s0,s2
    3b7e:	4681                	li	a3,0
    3b80:	4625                	li	a2,9
    3b82:	4529                	li	a0,10
    3b84:	00044703          	lbu	a4,0(s0)
    3b88:	00140593          	addi	a1,s0,1
    3b8c:	fd070713          	addi	a4,a4,-48 # fd0 <main+0xdba>
    3b90:	0ae67d63          	bgeu	a2,a4,3c4a <_vfiprintf_r+0x1cc>
    3b94:	ceb5                	beqz	a3,3c10 <_vfiprintf_r+0x192>
    3b96:	ce3e                	sw	a5,28(sp)
    3b98:	a8a5                	j	3c10 <_vfiprintf_r+0x192>
    3b9a:	000807b7          	lui	a5,0x80
    3b9e:	3f878793          	addi	a5,a5,1016 # 803f8 <__sf_fake_stdout>
    3ba2:	00f49563          	bne	s1,a5,3bac <_vfiprintf_r+0x12e>
    3ba6:	0089a483          	lw	s1,8(s3)
    3baa:	bf09                	j	3abc <_vfiprintf_r+0x3e>
    3bac:	000807b7          	lui	a5,0x80
    3bb0:	3b878793          	addi	a5,a5,952 # 803b8 <__sf_fake_stderr>
    3bb4:	f0f494e3          	bne	s1,a5,3abc <_vfiprintf_r+0x3e>
    3bb8:	00c9a483          	lw	s1,12(s3)
    3bbc:	b701                	j	3abc <_vfiprintf_r+0x3e>
    3bbe:	85a6                	mv	a1,s1
    3bc0:	854e                	mv	a0,s3
    3bc2:	a48ff0ef          	jal	ra,2e0a <__swsetup_r>
    3bc6:	f00503e3          	beqz	a0,3acc <_vfiprintf_r+0x4e>
    3bca:	557d                	li	a0,-1
    3bcc:	50ba                	lw	ra,172(sp)
    3bce:	542a                	lw	s0,168(sp)
    3bd0:	549a                	lw	s1,164(sp)
    3bd2:	590a                	lw	s2,160(sp)
    3bd4:	49fa                	lw	s3,156(sp)
    3bd6:	4a6a                	lw	s4,152(sp)
    3bd8:	4ada                	lw	s5,148(sp)
    3bda:	4b4a                	lw	s6,144(sp)
    3bdc:	4bba                	lw	s7,140(sp)
    3bde:	4c2a                	lw	s8,136(sp)
    3be0:	4c9a                	lw	s9,132(sp)
    3be2:	4d0a                	lw	s10,128(sp)
    3be4:	5df6                	lw	s11,124(sp)
    3be6:	614d                	addi	sp,sp,176
    3be8:	8082                	ret
    3bea:	0405                	addi	s0,s0,1
    3bec:	b731                	j	3af8 <_vfiprintf_r+0x7a>
    3bee:	418b0713          	addi	a4,s6,1048
    3bf2:	8d19                	sub	a0,a0,a4
    3bf4:	00ad9533          	sll	a0,s11,a0
    3bf8:	8fc9                	or	a5,a5,a0
    3bfa:	c83e                	sw	a5,16(sp)
    3bfc:	8922                	mv	s2,s0
    3bfe:	b781                	j	3b3e <_vfiprintf_r+0xc0>
    3c00:	4732                	lw	a4,12(sp)
    3c02:	00470693          	addi	a3,a4,4
    3c06:	4318                	lw	a4,0(a4)
    3c08:	c636                	sw	a3,12(sp)
    3c0a:	02074963          	bltz	a4,3c3c <_vfiprintf_r+0x1be>
    3c0e:	ce3a                	sw	a4,28(sp)
    3c10:	00044703          	lbu	a4,0(s0)
    3c14:	02e00793          	li	a5,46
    3c18:	06f71063          	bne	a4,a5,3c78 <_vfiprintf_r+0x1fa>
    3c1c:	00144703          	lbu	a4,1(s0)
    3c20:	02a00793          	li	a5,42
    3c24:	02f71b63          	bne	a4,a5,3c5a <_vfiprintf_r+0x1dc>
    3c28:	47b2                	lw	a5,12(sp)
    3c2a:	0409                	addi	s0,s0,2
    3c2c:	00478713          	addi	a4,a5,4
    3c30:	439c                	lw	a5,0(a5)
    3c32:	c63a                	sw	a4,12(sp)
    3c34:	0207c163          	bltz	a5,3c56 <_vfiprintf_r+0x1d8>
    3c38:	ca3e                	sw	a5,20(sp)
    3c3a:	a83d                	j	3c78 <_vfiprintf_r+0x1fa>
    3c3c:	40e00733          	neg	a4,a4
    3c40:	0027e793          	ori	a5,a5,2
    3c44:	ce3a                	sw	a4,28(sp)
    3c46:	c83e                	sw	a5,16(sp)
    3c48:	b7e1                	j	3c10 <_vfiprintf_r+0x192>
    3c4a:	02a787b3          	mul	a5,a5,a0
    3c4e:	842e                	mv	s0,a1
    3c50:	4685                	li	a3,1
    3c52:	97ba                	add	a5,a5,a4
    3c54:	bf05                	j	3b84 <_vfiprintf_r+0x106>
    3c56:	57fd                	li	a5,-1
    3c58:	b7c5                	j	3c38 <_vfiprintf_r+0x1ba>
    3c5a:	0405                	addi	s0,s0,1
    3c5c:	ca02                	sw	zero,20(sp)
    3c5e:	4681                	li	a3,0
    3c60:	4781                	li	a5,0
    3c62:	4625                	li	a2,9
    3c64:	4529                	li	a0,10
    3c66:	00044703          	lbu	a4,0(s0)
    3c6a:	00140593          	addi	a1,s0,1
    3c6e:	fd070713          	addi	a4,a4,-48
    3c72:	04e67d63          	bgeu	a2,a4,3ccc <_vfiprintf_r+0x24e>
    3c76:	f2e9                	bnez	a3,3c38 <_vfiprintf_r+0x1ba>
    3c78:	00044583          	lbu	a1,0(s0)
    3c7c:	460d                	li	a2,3
    3c7e:	420b8513          	addi	a0,s7,1056 # 80420 <__sf_fake_stdout+0x28>
    3c82:	2e95                	jal	3ff6 <memchr>
    3c84:	cd01                	beqz	a0,3c9c <_vfiprintf_r+0x21e>
    3c86:	420b8793          	addi	a5,s7,1056
    3c8a:	8d1d                	sub	a0,a0,a5
    3c8c:	47c2                	lw	a5,16(sp)
    3c8e:	04000713          	li	a4,64
    3c92:	00a71733          	sll	a4,a4,a0
    3c96:	8fd9                	or	a5,a5,a4
    3c98:	0405                	addi	s0,s0,1
    3c9a:	c83e                	sw	a5,16(sp)
    3c9c:	00044583          	lbu	a1,0(s0)
    3ca0:	4619                	li	a2,6
    3ca2:	424d0513          	addi	a0,s10,1060 # 80424 <__sf_fake_stdout+0x2c>
    3ca6:	00140913          	addi	s2,s0,1
    3caa:	02b10423          	sb	a1,40(sp)
    3cae:	26a1                	jal	3ff6 <memchr>
    3cb0:	cd31                	beqz	a0,3d0c <_vfiprintf_r+0x28e>
    3cb2:	020a9763          	bnez	s5,3ce0 <_vfiprintf_r+0x262>
    3cb6:	4742                	lw	a4,16(sp)
    3cb8:	47b2                	lw	a5,12(sp)
    3cba:	10077713          	andi	a4,a4,256
    3cbe:	cf09                	beqz	a4,3cd8 <_vfiprintf_r+0x25a>
    3cc0:	0791                	addi	a5,a5,4
    3cc2:	c63e                	sw	a5,12(sp)
    3cc4:	5792                	lw	a5,36(sp)
    3cc6:	97d2                	add	a5,a5,s4
    3cc8:	d23e                	sw	a5,36(sp)
    3cca:	b535                	j	3af6 <_vfiprintf_r+0x78>
    3ccc:	02a787b3          	mul	a5,a5,a0
    3cd0:	842e                	mv	s0,a1
    3cd2:	4685                	li	a3,1
    3cd4:	97ba                	add	a5,a5,a4
    3cd6:	bf41                	j	3c66 <_vfiprintf_r+0x1e8>
    3cd8:	079d                	addi	a5,a5,7
    3cda:	9be1                	andi	a5,a5,-8
    3cdc:	07a1                	addi	a5,a5,8
    3cde:	b7d5                	j	3cc2 <_vfiprintf_r+0x244>
    3ce0:	0078                	addi	a4,sp,12
    3ce2:	a1ac0693          	addi	a3,s8,-1510 # 3a1a <__sfputs_r>
    3ce6:	8626                	mv	a2,s1
    3ce8:	080c                	addi	a1,sp,16
    3cea:	854e                	mv	a0,s3
    3cec:	00000097          	auipc	ra,0x0
    3cf0:	000000e7          	jalr	zero # 0 <__vector_start>
    3cf4:	57fd                	li	a5,-1
    3cf6:	8a2a                	mv	s4,a0
    3cf8:	fcf516e3          	bne	a0,a5,3cc4 <_vfiprintf_r+0x246>
    3cfc:	00c4d783          	lhu	a5,12(s1)
    3d00:	0407f793          	andi	a5,a5,64
    3d04:	ec0793e3          	bnez	a5,3bca <_vfiprintf_r+0x14c>
    3d08:	5512                	lw	a0,36(sp)
    3d0a:	b5c9                	j	3bcc <_vfiprintf_r+0x14e>
    3d0c:	0078                	addi	a4,sp,12
    3d0e:	a1ac0693          	addi	a3,s8,-1510
    3d12:	8626                	mv	a2,s1
    3d14:	080c                	addi	a1,sp,16
    3d16:	854e                	mv	a0,s3
    3d18:	297d                	jal	41d6 <_printf_i>
    3d1a:	bfe9                	j	3cf4 <_vfiprintf_r+0x276>

00003d1c <vfiprintf>:
    3d1c:	000807b7          	lui	a5,0x80
    3d20:	86b2                	mv	a3,a2
    3d22:	862e                	mv	a2,a1
    3d24:	85aa                	mv	a1,a0
    3d26:	6607a503          	lw	a0,1632(a5) # 80660 <_impure_ptr>
    3d2a:	bb91                	j	3a7e <_vfiprintf_r>

00003d2c <__sfvwrite_r>:
    3d2c:	461c                	lw	a5,8(a2)
    3d2e:	e781                	bnez	a5,3d36 <__sfvwrite_r+0xa>
    3d30:	4781                	li	a5,0
    3d32:	853e                	mv	a0,a5
    3d34:	8082                	ret
    3d36:	00c5d783          	lhu	a5,12(a1)
    3d3a:	715d                	addi	sp,sp,-80
    3d3c:	c4a2                	sw	s0,72(sp)
    3d3e:	c0ca                	sw	s2,64(sp)
    3d40:	dc52                	sw	s4,56(sp)
    3d42:	c686                	sw	ra,76(sp)
    3d44:	c2a6                	sw	s1,68(sp)
    3d46:	de4e                	sw	s3,60(sp)
    3d48:	da56                	sw	s5,52(sp)
    3d4a:	d85a                	sw	s6,48(sp)
    3d4c:	d65e                	sw	s7,44(sp)
    3d4e:	d462                	sw	s8,40(sp)
    3d50:	d266                	sw	s9,36(sp)
    3d52:	d06a                	sw	s10,32(sp)
    3d54:	ce6e                	sw	s11,28(sp)
    3d56:	8ba1                	andi	a5,a5,8
    3d58:	892a                	mv	s2,a0
    3d5a:	842e                	mv	s0,a1
    3d5c:	8a32                	mv	s4,a2
    3d5e:	cbd9                	beqz	a5,3df4 <__sfvwrite_r+0xc8>
    3d60:	499c                	lw	a5,16(a1)
    3d62:	cbc9                	beqz	a5,3df4 <__sfvwrite_r+0xc8>
    3d64:	00c45783          	lhu	a5,12(s0)
    3d68:	000a2983          	lw	s3,0(s4)
    3d6c:	0027f713          	andi	a4,a5,2
    3d70:	e37d                	bnez	a4,3e56 <__sfvwrite_r+0x12a>
    3d72:	8b85                	andi	a5,a5,1
    3d74:	14078f63          	beqz	a5,3ed2 <__sfvwrite_r+0x1a6>
    3d78:	4b81                	li	s7,0
    3d7a:	4501                	li	a0,0
    3d7c:	4b01                	li	s6,0
    3d7e:	4a81                	li	s5,0
    3d80:	220a8d63          	beqz	s5,3fba <__sfvwrite_r+0x28e>
    3d84:	e919                	bnez	a0,3d9a <__sfvwrite_r+0x6e>
    3d86:	8656                	mv	a2,s5
    3d88:	45a9                	li	a1,10
    3d8a:	855a                	mv	a0,s6
    3d8c:	24ad                	jal	3ff6 <memchr>
    3d8e:	001a8b93          	addi	s7,s5,1
    3d92:	c501                	beqz	a0,3d9a <__sfvwrite_r+0x6e>
    3d94:	0505                	addi	a0,a0,1
    3d96:	41650bb3          	sub	s7,a0,s6
    3d9a:	8c5e                	mv	s8,s7
    3d9c:	017af363          	bgeu	s5,s7,3da2 <__sfvwrite_r+0x76>
    3da0:	8c56                	mv	s8,s5
    3da2:	4008                	lw	a0,0(s0)
    3da4:	481c                	lw	a5,16(s0)
    3da6:	4404                	lw	s1,8(s0)
    3da8:	4854                	lw	a3,20(s0)
    3daa:	20a7ff63          	bgeu	a5,a0,3fc8 <__sfvwrite_r+0x29c>
    3dae:	94b6                	add	s1,s1,a3
    3db0:	2184dc63          	bge	s1,s8,3fc8 <__sfvwrite_r+0x29c>
    3db4:	85da                	mv	a1,s6
    3db6:	8626                	mv	a2,s1
    3db8:	24bd                	jal	4026 <memmove>
    3dba:	401c                	lw	a5,0(s0)
    3dbc:	85a2                	mv	a1,s0
    3dbe:	854a                	mv	a0,s2
    3dc0:	97a6                	add	a5,a5,s1
    3dc2:	c01c                	sw	a5,0(s0)
    3dc4:	be4ff0ef          	jal	ra,31a8 <_fflush_r>
    3dc8:	0e051d63          	bnez	a0,3ec2 <__sfvwrite_r+0x196>
    3dcc:	409b8bb3          	sub	s7,s7,s1
    3dd0:	4505                	li	a0,1
    3dd2:	000b9763          	bnez	s7,3de0 <__sfvwrite_r+0xb4>
    3dd6:	85a2                	mv	a1,s0
    3dd8:	854a                	mv	a0,s2
    3dda:	bceff0ef          	jal	ra,31a8 <_fflush_r>
    3dde:	e175                	bnez	a0,3ec2 <__sfvwrite_r+0x196>
    3de0:	008a2783          	lw	a5,8(s4)
    3de4:	9b26                	add	s6,s6,s1
    3de6:	409a8ab3          	sub	s5,s5,s1
    3dea:	8f85                	sub	a5,a5,s1
    3dec:	00fa2423          	sw	a5,8(s4)
    3df0:	fbc1                	bnez	a5,3d80 <__sfvwrite_r+0x54>
    3df2:	a089                	j	3e34 <__sfvwrite_r+0x108>
    3df4:	85a2                	mv	a1,s0
    3df6:	854a                	mv	a0,s2
    3df8:	812ff0ef          	jal	ra,2e0a <__swsetup_r>
    3dfc:	57fd                	li	a5,-1
    3dfe:	d13d                	beqz	a0,3d64 <__sfvwrite_r+0x38>
    3e00:	a81d                	j	3e36 <__sfvwrite_r+0x10a>
    3e02:	0009aa83          	lw	s5,0(s3)
    3e06:	0049a483          	lw	s1,4(s3)
    3e0a:	09a1                	addi	s3,s3,8
    3e0c:	541c                	lw	a5,40(s0)
    3e0e:	500c                	lw	a1,32(s0)
    3e10:	d8ed                	beqz	s1,3e02 <__sfvwrite_r+0xd6>
    3e12:	86a6                	mv	a3,s1
    3e14:	009b7363          	bgeu	s6,s1,3e1a <__sfvwrite_r+0xee>
    3e18:	86da                	mv	a3,s6
    3e1a:	8656                	mv	a2,s5
    3e1c:	854a                	mv	a0,s2
    3e1e:	9782                	jalr	a5
    3e20:	0aa05163          	blez	a0,3ec2 <__sfvwrite_r+0x196>
    3e24:	008a2783          	lw	a5,8(s4)
    3e28:	9aaa                	add	s5,s5,a0
    3e2a:	8c89                	sub	s1,s1,a0
    3e2c:	8f89                	sub	a5,a5,a0
    3e2e:	00fa2423          	sw	a5,8(s4)
    3e32:	ffe9                	bnez	a5,3e0c <__sfvwrite_r+0xe0>
    3e34:	4781                	li	a5,0
    3e36:	40b6                	lw	ra,76(sp)
    3e38:	4426                	lw	s0,72(sp)
    3e3a:	4496                	lw	s1,68(sp)
    3e3c:	4906                	lw	s2,64(sp)
    3e3e:	59f2                	lw	s3,60(sp)
    3e40:	5a62                	lw	s4,56(sp)
    3e42:	5ad2                	lw	s5,52(sp)
    3e44:	5b42                	lw	s6,48(sp)
    3e46:	5bb2                	lw	s7,44(sp)
    3e48:	5c22                	lw	s8,40(sp)
    3e4a:	5c92                	lw	s9,36(sp)
    3e4c:	5d02                	lw	s10,32(sp)
    3e4e:	4df2                	lw	s11,28(sp)
    3e50:	853e                	mv	a0,a5
    3e52:	6161                	addi	sp,sp,80
    3e54:	8082                	ret
    3e56:	80000b37          	lui	s6,0x80000
    3e5a:	4a81                	li	s5,0
    3e5c:	4481                	li	s1,0
    3e5e:	c00b4b13          	xori	s6,s6,-1024
    3e62:	b76d                	j	3e0c <__sfvwrite_r+0xe0>
    3e64:	0009aa83          	lw	s5,0(s3)
    3e68:	0049ad03          	lw	s10,4(s3)
    3e6c:	09a1                	addi	s3,s3,8
    3e6e:	00c41703          	lh	a4,12(s0)
    3e72:	4008                	lw	a0,0(s0)
    3e74:	4410                	lw	a2,8(s0)
    3e76:	fe0d07e3          	beqz	s10,3e64 <__sfvwrite_r+0x138>
    3e7a:	01071793          	slli	a5,a4,0x10
    3e7e:	20077713          	andi	a4,a4,512
    3e82:	83c1                	srli	a5,a5,0x10
    3e84:	c365                	beqz	a4,3f64 <__sfvwrite_r+0x238>
    3e86:	08cd6663          	bltu	s10,a2,3f12 <__sfvwrite_r+0x1e6>
    3e8a:	4807f713          	andi	a4,a5,1152
    3e8e:	c351                	beqz	a4,3f12 <__sfvwrite_r+0x1e6>
    3e90:	4844                	lw	s1,20(s0)
    3e92:	480c                	lw	a1,16(s0)
    3e94:	029c04b3          	mul	s1,s8,s1
    3e98:	40b50db3          	sub	s11,a0,a1
    3e9c:	001d8713          	addi	a4,s11,1
    3ea0:	976a                	add	a4,a4,s10
    3ea2:	0394c4b3          	div	s1,s1,s9
    3ea6:	00e4f363          	bgeu	s1,a4,3eac <__sfvwrite_r+0x180>
    3eaa:	84ba                	mv	s1,a4
    3eac:	4007f793          	andi	a5,a5,1024
    3eb0:	cbd1                	beqz	a5,3f44 <__sfvwrite_r+0x218>
    3eb2:	85a6                	mv	a1,s1
    3eb4:	854a                	mv	a0,s2
    3eb6:	fc8ff0ef          	jal	ra,367e <_malloc_r>
    3eba:	e51d                	bnez	a0,3ee8 <__sfvwrite_r+0x1bc>
    3ebc:	47b1                	li	a5,12
    3ebe:	00f92023          	sw	a5,0(s2)
    3ec2:	00c45783          	lhu	a5,12(s0)
    3ec6:	0407e793          	ori	a5,a5,64
    3eca:	00f41623          	sh	a5,12(s0)
    3ece:	57fd                	li	a5,-1
    3ed0:	b79d                	j	3e36 <__sfvwrite_r+0x10a>
    3ed2:	80000b37          	lui	s6,0x80000
    3ed6:	ffeb4b93          	xori	s7,s6,-2
    3eda:	4a81                	li	s5,0
    3edc:	4d01                	li	s10,0
    3ede:	fffb4b13          	not	s6,s6
    3ee2:	4c0d                	li	s8,3
    3ee4:	4c89                	li	s9,2
    3ee6:	b761                	j	3e6e <__sfvwrite_r+0x142>
    3ee8:	480c                	lw	a1,16(s0)
    3eea:	866e                	mv	a2,s11
    3eec:	c62a                	sw	a0,12(sp)
    3eee:	220d                	jal	4010 <memcpy>
    3ef0:	00c45703          	lhu	a4,12(s0)
    3ef4:	47b2                	lw	a5,12(sp)
    3ef6:	b7f77713          	andi	a4,a4,-1153
    3efa:	08076713          	ori	a4,a4,128
    3efe:	00e41623          	sh	a4,12(s0)
    3f02:	c81c                	sw	a5,16(s0)
    3f04:	c844                	sw	s1,20(s0)
    3f06:	97ee                	add	a5,a5,s11
    3f08:	41b484b3          	sub	s1,s1,s11
    3f0c:	c01c                	sw	a5,0(s0)
    3f0e:	866a                	mv	a2,s10
    3f10:	c404                	sw	s1,8(s0)
    3f12:	84ea                	mv	s1,s10
    3f14:	00cd7363          	bgeu	s10,a2,3f1a <__sfvwrite_r+0x1ee>
    3f18:	866a                	mv	a2,s10
    3f1a:	4008                	lw	a0,0(s0)
    3f1c:	85d6                	mv	a1,s5
    3f1e:	c632                	sw	a2,12(sp)
    3f20:	2219                	jal	4026 <memmove>
    3f22:	441c                	lw	a5,8(s0)
    3f24:	4632                	lw	a2,12(sp)
    3f26:	8f91                	sub	a5,a5,a2
    3f28:	c41c                	sw	a5,8(s0)
    3f2a:	401c                	lw	a5,0(s0)
    3f2c:	97b2                	add	a5,a5,a2
    3f2e:	c01c                	sw	a5,0(s0)
    3f30:	008a2783          	lw	a5,8(s4)
    3f34:	9aa6                	add	s5,s5,s1
    3f36:	409d0d33          	sub	s10,s10,s1
    3f3a:	8f85                	sub	a5,a5,s1
    3f3c:	00fa2423          	sw	a5,8(s4)
    3f40:	f79d                	bnez	a5,3e6e <__sfvwrite_r+0x142>
    3f42:	bdcd                	j	3e34 <__sfvwrite_r+0x108>
    3f44:	8626                	mv	a2,s1
    3f46:	854a                	mv	a0,s2
    3f48:	2211                	jal	404c <_realloc_r>
    3f4a:	87aa                	mv	a5,a0
    3f4c:	f95d                	bnez	a0,3f02 <__sfvwrite_r+0x1d6>
    3f4e:	480c                	lw	a1,16(s0)
    3f50:	854a                	mv	a0,s2
    3f52:	e8aff0ef          	jal	ra,35dc <_free_r>
    3f56:	00c45783          	lhu	a5,12(s0)
    3f5a:	f7f7f793          	andi	a5,a5,-129
    3f5e:	00f41623          	sh	a5,12(s0)
    3f62:	bfa9                	j	3ebc <__sfvwrite_r+0x190>
    3f64:	481c                	lw	a5,16(s0)
    3f66:	00a7e563          	bltu	a5,a0,3f70 <__sfvwrite_r+0x244>
    3f6a:	4854                	lw	a3,20(s0)
    3f6c:	02dd7663          	bgeu	s10,a3,3f98 <__sfvwrite_r+0x26c>
    3f70:	84b2                	mv	s1,a2
    3f72:	00cd7363          	bgeu	s10,a2,3f78 <__sfvwrite_r+0x24c>
    3f76:	84ea                	mv	s1,s10
    3f78:	8626                	mv	a2,s1
    3f7a:	85d6                	mv	a1,s5
    3f7c:	206d                	jal	4026 <memmove>
    3f7e:	441c                	lw	a5,8(s0)
    3f80:	4018                	lw	a4,0(s0)
    3f82:	8f85                	sub	a5,a5,s1
    3f84:	9726                	add	a4,a4,s1
    3f86:	c41c                	sw	a5,8(s0)
    3f88:	c018                	sw	a4,0(s0)
    3f8a:	f3dd                	bnez	a5,3f30 <__sfvwrite_r+0x204>
    3f8c:	85a2                	mv	a1,s0
    3f8e:	854a                	mv	a0,s2
    3f90:	a18ff0ef          	jal	ra,31a8 <_fflush_r>
    3f94:	dd51                	beqz	a0,3f30 <__sfvwrite_r+0x204>
    3f96:	b735                	j	3ec2 <__sfvwrite_r+0x196>
    3f98:	87da                	mv	a5,s6
    3f9a:	01abe363          	bltu	s7,s10,3fa0 <__sfvwrite_r+0x274>
    3f9e:	87ea                	mv	a5,s10
    3fa0:	02d7c7b3          	div	a5,a5,a3
    3fa4:	5418                	lw	a4,40(s0)
    3fa6:	500c                	lw	a1,32(s0)
    3fa8:	8656                	mv	a2,s5
    3faa:	854a                	mv	a0,s2
    3fac:	02d786b3          	mul	a3,a5,a3
    3fb0:	9702                	jalr	a4
    3fb2:	84aa                	mv	s1,a0
    3fb4:	f6a04ee3          	bgtz	a0,3f30 <__sfvwrite_r+0x204>
    3fb8:	b729                	j	3ec2 <__sfvwrite_r+0x196>
    3fba:	0009ab03          	lw	s6,0(s3)
    3fbe:	0049aa83          	lw	s5,4(s3)
    3fc2:	4501                	li	a0,0
    3fc4:	09a1                	addi	s3,s3,8
    3fc6:	bb6d                	j	3d80 <__sfvwrite_r+0x54>
    3fc8:	00dc4b63          	blt	s8,a3,3fde <__sfvwrite_r+0x2b2>
    3fcc:	541c                	lw	a5,40(s0)
    3fce:	500c                	lw	a1,32(s0)
    3fd0:	865a                	mv	a2,s6
    3fd2:	854a                	mv	a0,s2
    3fd4:	9782                	jalr	a5
    3fd6:	84aa                	mv	s1,a0
    3fd8:	dea04ae3          	bgtz	a0,3dcc <__sfvwrite_r+0xa0>
    3fdc:	b5dd                	j	3ec2 <__sfvwrite_r+0x196>
    3fde:	8662                	mv	a2,s8
    3fe0:	85da                	mv	a1,s6
    3fe2:	2091                	jal	4026 <memmove>
    3fe4:	441c                	lw	a5,8(s0)
    3fe6:	84e2                	mv	s1,s8
    3fe8:	418787b3          	sub	a5,a5,s8
    3fec:	c41c                	sw	a5,8(s0)
    3fee:	401c                	lw	a5,0(s0)
    3ff0:	97e2                	add	a5,a5,s8
    3ff2:	c01c                	sw	a5,0(s0)
    3ff4:	bbe1                	j	3dcc <__sfvwrite_r+0xa0>

00003ff6 <memchr>:
    3ff6:	0ff5f593          	zext.b	a1,a1
    3ffa:	962a                	add	a2,a2,a0
    3ffc:	00c51463          	bne	a0,a2,4004 <memchr+0xe>
    4000:	4501                	li	a0,0
    4002:	8082                	ret
    4004:	00054783          	lbu	a5,0(a0)
    4008:	feb78de3          	beq	a5,a1,4002 <memchr+0xc>
    400c:	0505                	addi	a0,a0,1
    400e:	b7fd                	j	3ffc <memchr+0x6>

00004010 <memcpy>:
    4010:	832a                	mv	t1,a0
    4012:	ca09                	beqz	a2,4024 <memcpy+0x14>
    4014:	00058383          	lb	t2,0(a1)
    4018:	00730023          	sb	t2,0(t1)
    401c:	167d                	addi	a2,a2,-1
    401e:	0305                	addi	t1,t1,1
    4020:	0585                	addi	a1,a1,1
    4022:	fa6d                	bnez	a2,4014 <memcpy+0x4>
    4024:	8082                	ret

00004026 <memmove>:
    4026:	c215                	beqz	a2,404a <memmove+0x24>
    4028:	832a                	mv	t1,a0
    402a:	4685                	li	a3,1
    402c:	00b56763          	bltu	a0,a1,403a <memmove+0x14>
    4030:	56fd                	li	a3,-1
    4032:	fff60713          	addi	a4,a2,-1
    4036:	933a                	add	t1,t1,a4
    4038:	95ba                	add	a1,a1,a4
    403a:	00058383          	lb	t2,0(a1)
    403e:	00730023          	sb	t2,0(t1)
    4042:	167d                	addi	a2,a2,-1
    4044:	9336                	add	t1,t1,a3
    4046:	95b6                	add	a1,a1,a3
    4048:	fa6d                	bnez	a2,403a <memmove+0x14>
    404a:	8082                	ret

0000404c <_realloc_r>:
    404c:	1101                	addi	sp,sp,-32
    404e:	cc22                	sw	s0,24(sp)
    4050:	ce06                	sw	ra,28(sp)
    4052:	ca26                	sw	s1,20(sp)
    4054:	c84a                	sw	s2,16(sp)
    4056:	c64e                	sw	s3,12(sp)
    4058:	c452                	sw	s4,8(sp)
    405a:	8432                	mv	s0,a2
    405c:	e999                	bnez	a1,4072 <_realloc_r+0x26>
    405e:	4462                	lw	s0,24(sp)
    4060:	40f2                	lw	ra,28(sp)
    4062:	44d2                	lw	s1,20(sp)
    4064:	4942                	lw	s2,16(sp)
    4066:	49b2                	lw	s3,12(sp)
    4068:	4a22                	lw	s4,8(sp)
    406a:	85b2                	mv	a1,a2
    406c:	6105                	addi	sp,sp,32
    406e:	e10ff06f          	j	367e <_malloc_r>
    4072:	ee09                	bnez	a2,408c <_realloc_r+0x40>
    4074:	d68ff0ef          	jal	ra,35dc <_free_r>
    4078:	4481                	li	s1,0
    407a:	40f2                	lw	ra,28(sp)
    407c:	4462                	lw	s0,24(sp)
    407e:	4942                	lw	s2,16(sp)
    4080:	49b2                	lw	s3,12(sp)
    4082:	4a22                	lw	s4,8(sp)
    4084:	8526                	mv	a0,s1
    4086:	44d2                	lw	s1,20(sp)
    4088:	6105                	addi	sp,sp,32
    408a:	8082                	ret
    408c:	8a2a                	mv	s4,a0
    408e:	892e                	mv	s2,a1
    4090:	2665                	jal	4438 <_malloc_usable_size_r>
    4092:	89aa                	mv	s3,a0
    4094:	00856763          	bltu	a0,s0,40a2 <_realloc_r+0x56>
    4098:	00155793          	srli	a5,a0,0x1
    409c:	84ca                	mv	s1,s2
    409e:	fc87eee3          	bltu	a5,s0,407a <_realloc_r+0x2e>
    40a2:	85a2                	mv	a1,s0
    40a4:	8552                	mv	a0,s4
    40a6:	dd8ff0ef          	jal	ra,367e <_malloc_r>
    40aa:	84aa                	mv	s1,a0
    40ac:	d579                	beqz	a0,407a <_realloc_r+0x2e>
    40ae:	8622                	mv	a2,s0
    40b0:	0089f363          	bgeu	s3,s0,40b6 <_realloc_r+0x6a>
    40b4:	864e                	mv	a2,s3
    40b6:	85ca                	mv	a1,s2
    40b8:	8526                	mv	a0,s1
    40ba:	3f99                	jal	4010 <memcpy>
    40bc:	85ca                	mv	a1,s2
    40be:	8552                	mv	a0,s4
    40c0:	d1cff0ef          	jal	ra,35dc <_free_r>
    40c4:	bf5d                	j	407a <_realloc_r+0x2e>

000040c6 <_printf_common>:
    40c6:	7179                	addi	sp,sp,-48
    40c8:	cc52                	sw	s4,24(sp)
    40ca:	499c                	lw	a5,16(a1)
    40cc:	8a3a                	mv	s4,a4
    40ce:	4598                	lw	a4,8(a1)
    40d0:	d422                	sw	s0,40(sp)
    40d2:	d04a                	sw	s2,32(sp)
    40d4:	ce4e                	sw	s3,28(sp)
    40d6:	ca56                	sw	s5,20(sp)
    40d8:	d606                	sw	ra,44(sp)
    40da:	d226                	sw	s1,36(sp)
    40dc:	c85a                	sw	s6,16(sp)
    40de:	c65e                	sw	s7,12(sp)
    40e0:	89aa                	mv	s3,a0
    40e2:	842e                	mv	s0,a1
    40e4:	8932                	mv	s2,a2
    40e6:	8ab6                	mv	s5,a3
    40e8:	00e7d363          	bge	a5,a4,40ee <_printf_common+0x28>
    40ec:	87ba                	mv	a5,a4
    40ee:	00f92023          	sw	a5,0(s2)
    40f2:	04344703          	lbu	a4,67(s0)
    40f6:	c701                	beqz	a4,40fe <_printf_common+0x38>
    40f8:	0785                	addi	a5,a5,1
    40fa:	00f92023          	sw	a5,0(s2)
    40fe:	401c                	lw	a5,0(s0)
    4100:	0207f793          	andi	a5,a5,32
    4104:	c791                	beqz	a5,4110 <_printf_common+0x4a>
    4106:	00092783          	lw	a5,0(s2)
    410a:	0789                	addi	a5,a5,2
    410c:	00f92023          	sw	a5,0(s2)
    4110:	4004                	lw	s1,0(s0)
    4112:	8899                	andi	s1,s1,6
    4114:	e891                	bnez	s1,4128 <_printf_common+0x62>
    4116:	01940b13          	addi	s6,s0,25
    411a:	5bfd                	li	s7,-1
    411c:	445c                	lw	a5,12(s0)
    411e:	00092703          	lw	a4,0(s2)
    4122:	8f99                	sub	a5,a5,a4
    4124:	04f4cc63          	blt	s1,a5,417c <_printf_common+0xb6>
    4128:	04344783          	lbu	a5,67(s0)
    412c:	00f036b3          	snez	a3,a5
    4130:	401c                	lw	a5,0(s0)
    4132:	0207f793          	andi	a5,a5,32
    4136:	eba5                	bnez	a5,41a6 <_printf_common+0xe0>
    4138:	04340613          	addi	a2,s0,67
    413c:	85d6                	mv	a1,s5
    413e:	854e                	mv	a0,s3
    4140:	9a02                	jalr	s4
    4142:	57fd                	li	a5,-1
    4144:	04f50363          	beq	a0,a5,418a <_printf_common+0xc4>
    4148:	401c                	lw	a5,0(s0)
    414a:	4711                	li	a4,4
    414c:	4481                	li	s1,0
    414e:	8b99                	andi	a5,a5,6
    4150:	00e79963          	bne	a5,a4,4162 <_printf_common+0x9c>
    4154:	4444                	lw	s1,12(s0)
    4156:	00092783          	lw	a5,0(s2)
    415a:	8c9d                	sub	s1,s1,a5
    415c:	0004d363          	bgez	s1,4162 <_printf_common+0x9c>
    4160:	4481                	li	s1,0
    4162:	441c                	lw	a5,8(s0)
    4164:	4818                	lw	a4,16(s0)
    4166:	00f75463          	bge	a4,a5,416e <_printf_common+0xa8>
    416a:	8f99                	sub	a5,a5,a4
    416c:	94be                	add	s1,s1,a5
    416e:	4901                	li	s2,0
    4170:	0469                	addi	s0,s0,26
    4172:	5b7d                	li	s6,-1
    4174:	05249863          	bne	s1,s2,41c4 <_printf_common+0xfe>
    4178:	4501                	li	a0,0
    417a:	a809                	j	418c <_printf_common+0xc6>
    417c:	4685                	li	a3,1
    417e:	865a                	mv	a2,s6
    4180:	85d6                	mv	a1,s5
    4182:	854e                	mv	a0,s3
    4184:	9a02                	jalr	s4
    4186:	01751e63          	bne	a0,s7,41a2 <_printf_common+0xdc>
    418a:	557d                	li	a0,-1
    418c:	50b2                	lw	ra,44(sp)
    418e:	5422                	lw	s0,40(sp)
    4190:	5492                	lw	s1,36(sp)
    4192:	5902                	lw	s2,32(sp)
    4194:	49f2                	lw	s3,28(sp)
    4196:	4a62                	lw	s4,24(sp)
    4198:	4ad2                	lw	s5,20(sp)
    419a:	4b42                	lw	s6,16(sp)
    419c:	4bb2                	lw	s7,12(sp)
    419e:	6145                	addi	sp,sp,48
    41a0:	8082                	ret
    41a2:	0485                	addi	s1,s1,1
    41a4:	bfa5                	j	411c <_printf_common+0x56>
    41a6:	00d40733          	add	a4,s0,a3
    41aa:	03000613          	li	a2,48
    41ae:	04c701a3          	sb	a2,67(a4)
    41b2:	04544703          	lbu	a4,69(s0)
    41b6:	00168793          	addi	a5,a3,1 # 1001 <main+0xdeb>
    41ba:	97a2                	add	a5,a5,s0
    41bc:	0689                	addi	a3,a3,2
    41be:	04e781a3          	sb	a4,67(a5)
    41c2:	bf9d                	j	4138 <_printf_common+0x72>
    41c4:	4685                	li	a3,1
    41c6:	8622                	mv	a2,s0
    41c8:	85d6                	mv	a1,s5
    41ca:	854e                	mv	a0,s3
    41cc:	9a02                	jalr	s4
    41ce:	fb650ee3          	beq	a0,s6,418a <_printf_common+0xc4>
    41d2:	0905                	addi	s2,s2,1
    41d4:	b745                	j	4174 <_printf_common+0xae>

000041d6 <_printf_i>:
    41d6:	7179                	addi	sp,sp,-48
    41d8:	d422                	sw	s0,40(sp)
    41da:	d226                	sw	s1,36(sp)
    41dc:	d04a                	sw	s2,32(sp)
    41de:	ce4e                	sw	s3,28(sp)
    41e0:	d606                	sw	ra,44(sp)
    41e2:	cc52                	sw	s4,24(sp)
    41e4:	ca56                	sw	s5,20(sp)
    41e6:	c85a                	sw	s6,16(sp)
    41e8:	0185c883          	lbu	a7,24(a1)
    41ec:	07800793          	li	a5,120
    41f0:	84aa                	mv	s1,a0
    41f2:	842e                	mv	s0,a1
    41f4:	8932                	mv	s2,a2
    41f6:	89b6                	mv	s3,a3
    41f8:	0117ee63          	bltu	a5,a7,4214 <_printf_i+0x3e>
    41fc:	06200793          	li	a5,98
    4200:	04358693          	addi	a3,a1,67
    4204:	0117ed63          	bltu	a5,a7,421e <_printf_i+0x48>
    4208:	1a088e63          	beqz	a7,43c4 <_printf_i+0x1ee>
    420c:	05800793          	li	a5,88
    4210:	16f88f63          	beq	a7,a5,438e <_printf_i+0x1b8>
    4214:	04240a93          	addi	s5,s0,66
    4218:	05140123          	sb	a7,66(s0)
    421c:	a80d                	j	424e <_printf_i+0x78>
    421e:	f9d88793          	addi	a5,a7,-99
    4222:	0ff7f793          	zext.b	a5,a5
    4226:	4655                	li	a2,21
    4228:	fef666e3          	bltu	a2,a5,4214 <_printf_i+0x3e>
    422c:	00080637          	lui	a2,0x80
    4230:	078a                	slli	a5,a5,0x2
    4232:	45460613          	addi	a2,a2,1108 # 80454 <__sf_fake_stdout+0x5c>
    4236:	97b2                	add	a5,a5,a2
    4238:	439c                	lw	a5,0(a5)
    423a:	8782                	jr	a5
    423c:	431c                	lw	a5,0(a4)
    423e:	04258a93          	addi	s5,a1,66
    4242:	00478693          	addi	a3,a5,4
    4246:	439c                	lw	a5,0(a5)
    4248:	c314                	sw	a3,0(a4)
    424a:	04f58123          	sb	a5,66(a1)
    424e:	4785                	li	a5,1
    4250:	aa69                	j	43ea <_printf_i+0x214>
    4252:	419c                	lw	a5,0(a1)
    4254:	4308                	lw	a0,0(a4)
    4256:	0807f613          	andi	a2,a5,128
    425a:	00450593          	addi	a1,a0,4
    425e:	c20d                	beqz	a2,4280 <_printf_i+0xaa>
    4260:	411c                	lw	a5,0(a0)
    4262:	c30c                	sw	a1,0(a4)
    4264:	00080837          	lui	a6,0x80
    4268:	0007d863          	bgez	a5,4278 <_printf_i+0xa2>
    426c:	02d00713          	li	a4,45
    4270:	40f007b3          	neg	a5,a5
    4274:	04e401a3          	sb	a4,67(s0)
    4278:	42c80813          	addi	a6,a6,1068 # 8042c <__sf_fake_stdout+0x34>
    427c:	4729                	li	a4,10
    427e:	a0a1                	j	42c6 <_printf_i+0xf0>
    4280:	0407f613          	andi	a2,a5,64
    4284:	411c                	lw	a5,0(a0)
    4286:	c30c                	sw	a1,0(a4)
    4288:	de71                	beqz	a2,4264 <_printf_i+0x8e>
    428a:	07c2                	slli	a5,a5,0x10
    428c:	87c1                	srai	a5,a5,0x10
    428e:	bfd9                	j	4264 <_printf_i+0x8e>
    4290:	4190                	lw	a2,0(a1)
    4292:	431c                	lw	a5,0(a4)
    4294:	08067513          	andi	a0,a2,128
    4298:	00478593          	addi	a1,a5,4
    429c:	c501                	beqz	a0,42a4 <_printf_i+0xce>
    429e:	c30c                	sw	a1,0(a4)
    42a0:	439c                	lw	a5,0(a5)
    42a2:	a039                	j	42b0 <_printf_i+0xda>
    42a4:	04067613          	andi	a2,a2,64
    42a8:	c30c                	sw	a1,0(a4)
    42aa:	da7d                	beqz	a2,42a0 <_printf_i+0xca>
    42ac:	0007d783          	lhu	a5,0(a5)
    42b0:	00080837          	lui	a6,0x80
    42b4:	06f00713          	li	a4,111
    42b8:	42c80813          	addi	a6,a6,1068 # 8042c <__sf_fake_stdout+0x34>
    42bc:	0ce88e63          	beq	a7,a4,4398 <_printf_i+0x1c2>
    42c0:	4729                	li	a4,10
    42c2:	040401a3          	sb	zero,67(s0)
    42c6:	4050                	lw	a2,4(s0)
    42c8:	c410                	sw	a2,8(s0)
    42ca:	00064563          	bltz	a2,42d4 <_printf_i+0xfe>
    42ce:	400c                	lw	a1,0(s0)
    42d0:	99ed                	andi	a1,a1,-5
    42d2:	c00c                	sw	a1,0(s0)
    42d4:	e399                	bnez	a5,42da <_printf_i+0x104>
    42d6:	8ab6                	mv	s5,a3
    42d8:	ce19                	beqz	a2,42f6 <_printf_i+0x120>
    42da:	8ab6                	mv	s5,a3
    42dc:	02e7f633          	remu	a2,a5,a4
    42e0:	1afd                	addi	s5,s5,-1
    42e2:	9642                	add	a2,a2,a6
    42e4:	00064603          	lbu	a2,0(a2)
    42e8:	00ca8023          	sb	a2,0(s5)
    42ec:	863e                	mv	a2,a5
    42ee:	02e7d7b3          	divu	a5,a5,a4
    42f2:	fee675e3          	bgeu	a2,a4,42dc <_printf_i+0x106>
    42f6:	47a1                	li	a5,8
    42f8:	00f71e63          	bne	a4,a5,4314 <_printf_i+0x13e>
    42fc:	401c                	lw	a5,0(s0)
    42fe:	8b85                	andi	a5,a5,1
    4300:	cb91                	beqz	a5,4314 <_printf_i+0x13e>
    4302:	4058                	lw	a4,4(s0)
    4304:	481c                	lw	a5,16(s0)
    4306:	00e7c763          	blt	a5,a4,4314 <_printf_i+0x13e>
    430a:	03000793          	li	a5,48
    430e:	fefa8fa3          	sb	a5,-1(s5)
    4312:	1afd                	addi	s5,s5,-1
    4314:	415686b3          	sub	a3,a3,s5
    4318:	c814                	sw	a3,16(s0)
    431a:	874e                	mv	a4,s3
    431c:	86ca                	mv	a3,s2
    431e:	0070                	addi	a2,sp,12
    4320:	85a2                	mv	a1,s0
    4322:	8526                	mv	a0,s1
    4324:	334d                	jal	40c6 <_printf_common>
    4326:	5a7d                	li	s4,-1
    4328:	0d451563          	bne	a0,s4,43f2 <_printf_i+0x21c>
    432c:	557d                	li	a0,-1
    432e:	50b2                	lw	ra,44(sp)
    4330:	5422                	lw	s0,40(sp)
    4332:	5492                	lw	s1,36(sp)
    4334:	5902                	lw	s2,32(sp)
    4336:	49f2                	lw	s3,28(sp)
    4338:	4a62                	lw	s4,24(sp)
    433a:	4ad2                	lw	s5,20(sp)
    433c:	4b42                	lw	s6,16(sp)
    433e:	6145                	addi	sp,sp,48
    4340:	8082                	ret
    4342:	419c                	lw	a5,0(a1)
    4344:	0207e793          	ori	a5,a5,32
    4348:	c19c                	sw	a5,0(a1)
    434a:	00080837          	lui	a6,0x80
    434e:	07800893          	li	a7,120
    4352:	44080813          	addi	a6,a6,1088 # 80440 <__sf_fake_stdout+0x48>
    4356:	051402a3          	sb	a7,69(s0)
    435a:	4010                	lw	a2,0(s0)
    435c:	430c                	lw	a1,0(a4)
    435e:	08067513          	andi	a0,a2,128
    4362:	419c                	lw	a5,0(a1)
    4364:	0591                	addi	a1,a1,4
    4366:	e511                	bnez	a0,4372 <_printf_i+0x19c>
    4368:	04067513          	andi	a0,a2,64
    436c:	c119                	beqz	a0,4372 <_printf_i+0x19c>
    436e:	07c2                	slli	a5,a5,0x10
    4370:	83c1                	srli	a5,a5,0x10
    4372:	c30c                	sw	a1,0(a4)
    4374:	00167713          	andi	a4,a2,1
    4378:	c701                	beqz	a4,4380 <_printf_i+0x1aa>
    437a:	02066613          	ori	a2,a2,32
    437e:	c010                	sw	a2,0(s0)
    4380:	4741                	li	a4,16
    4382:	f3a1                	bnez	a5,42c2 <_printf_i+0xec>
    4384:	4010                	lw	a2,0(s0)
    4386:	fdf67613          	andi	a2,a2,-33
    438a:	c010                	sw	a2,0(s0)
    438c:	bf1d                	j	42c2 <_printf_i+0xec>
    438e:	00080837          	lui	a6,0x80
    4392:	42c80813          	addi	a6,a6,1068 # 8042c <__sf_fake_stdout+0x34>
    4396:	b7c1                	j	4356 <_printf_i+0x180>
    4398:	4721                	li	a4,8
    439a:	b725                	j	42c2 <_printf_i+0xec>
    439c:	4190                	lw	a2,0(a1)
    439e:	431c                	lw	a5,0(a4)
    43a0:	49cc                	lw	a1,20(a1)
    43a2:	08067813          	andi	a6,a2,128
    43a6:	00478513          	addi	a0,a5,4
    43aa:	00080663          	beqz	a6,43b6 <_printf_i+0x1e0>
    43ae:	c308                	sw	a0,0(a4)
    43b0:	439c                	lw	a5,0(a5)
    43b2:	c38c                	sw	a1,0(a5)
    43b4:	a801                	j	43c4 <_printf_i+0x1ee>
    43b6:	c308                	sw	a0,0(a4)
    43b8:	04067613          	andi	a2,a2,64
    43bc:	439c                	lw	a5,0(a5)
    43be:	da75                	beqz	a2,43b2 <_printf_i+0x1dc>
    43c0:	00b79023          	sh	a1,0(a5)
    43c4:	00042823          	sw	zero,16(s0)
    43c8:	8ab6                	mv	s5,a3
    43ca:	bf81                	j	431a <_printf_i+0x144>
    43cc:	431c                	lw	a5,0(a4)
    43ce:	41d0                	lw	a2,4(a1)
    43d0:	4581                	li	a1,0
    43d2:	00478693          	addi	a3,a5,4
    43d6:	c314                	sw	a3,0(a4)
    43d8:	0007aa83          	lw	s5,0(a5)
    43dc:	8556                	mv	a0,s5
    43de:	3921                	jal	3ff6 <memchr>
    43e0:	c501                	beqz	a0,43e8 <_printf_i+0x212>
    43e2:	41550533          	sub	a0,a0,s5
    43e6:	c048                	sw	a0,4(s0)
    43e8:	405c                	lw	a5,4(s0)
    43ea:	c81c                	sw	a5,16(s0)
    43ec:	040401a3          	sb	zero,67(s0)
    43f0:	b72d                	j	431a <_printf_i+0x144>
    43f2:	4814                	lw	a3,16(s0)
    43f4:	8656                	mv	a2,s5
    43f6:	85ca                	mv	a1,s2
    43f8:	8526                	mv	a0,s1
    43fa:	9982                	jalr	s3
    43fc:	f34508e3          	beq	a0,s4,432c <_printf_i+0x156>
    4400:	401c                	lw	a5,0(s0)
    4402:	8b89                	andi	a5,a5,2
    4404:	e78d                	bnez	a5,442e <_printf_i+0x258>
    4406:	47b2                	lw	a5,12(sp)
    4408:	4448                	lw	a0,12(s0)
    440a:	f2f552e3          	bge	a0,a5,432e <_printf_i+0x158>
    440e:	853e                	mv	a0,a5
    4410:	bf39                	j	432e <_printf_i+0x158>
    4412:	4685                	li	a3,1
    4414:	8656                	mv	a2,s5
    4416:	85ca                	mv	a1,s2
    4418:	8526                	mv	a0,s1
    441a:	9982                	jalr	s3
    441c:	f16508e3          	beq	a0,s6,432c <_printf_i+0x156>
    4420:	0a05                	addi	s4,s4,1
    4422:	445c                	lw	a5,12(s0)
    4424:	4732                	lw	a4,12(sp)
    4426:	8f99                	sub	a5,a5,a4
    4428:	fefa45e3          	blt	s4,a5,4412 <_printf_i+0x23c>
    442c:	bfe9                	j	4406 <_printf_i+0x230>
    442e:	4a01                	li	s4,0
    4430:	01940a93          	addi	s5,s0,25
    4434:	5b7d                	li	s6,-1
    4436:	b7f5                	j	4422 <_printf_i+0x24c>

00004438 <_malloc_usable_size_r>:
    4438:	ffc5a783          	lw	a5,-4(a1)
    443c:	ffc78513          	addi	a0,a5,-4
    4440:	0007d563          	bgez	a5,444a <_malloc_usable_size_r+0x12>
    4444:	95aa                	add	a1,a1,a0
    4446:	419c                	lw	a5,0(a1)
    4448:	953e                	add	a0,a0,a5
    444a:	8082                	ret

0000444c <__divdi3>:
    444c:	832a                	mv	t1,a0
    444e:	8e2e                	mv	t3,a1
    4450:	4881                	li	a7,0
    4452:	0005db63          	bgez	a1,4468 <__divdi3+0x1c>
    4456:	00a037b3          	snez	a5,a0
    445a:	40b00e33          	neg	t3,a1
    445e:	40fe0e33          	sub	t3,t3,a5
    4462:	40a00333          	neg	t1,a0
    4466:	58fd                	li	a7,-1
    4468:	0006db63          	bgez	a3,447e <__divdi3+0x32>
    446c:	00c037b3          	snez	a5,a2
    4470:	40d006b3          	neg	a3,a3
    4474:	fff8c893          	not	a7,a7
    4478:	8e9d                	sub	a3,a3,a5
    447a:	40c00633          	neg	a2,a2
    447e:	8732                	mv	a4,a2
    4480:	881a                	mv	a6,t1
    4482:	87f2                	mv	a5,t3
    4484:	20069f63          	bnez	a3,46a2 <__divdi3+0x256>
    4488:	000805b7          	lui	a1,0x80
    448c:	4ac58593          	addi	a1,a1,1196 # 804ac <__clz_tab>
    4490:	0cce7163          	bgeu	t3,a2,4552 <__divdi3+0x106>
    4494:	66c1                	lui	a3,0x10
    4496:	0ad67763          	bgeu	a2,a3,4544 <__divdi3+0xf8>
    449a:	10063693          	sltiu	a3,a2,256
    449e:	0016c693          	xori	a3,a3,1
    44a2:	068e                	slli	a3,a3,0x3
    44a4:	00d65533          	srl	a0,a2,a3
    44a8:	95aa                	add	a1,a1,a0
    44aa:	0005c583          	lbu	a1,0(a1)
    44ae:	02000513          	li	a0,32
    44b2:	96ae                	add	a3,a3,a1
    44b4:	40d505b3          	sub	a1,a0,a3
    44b8:	00d50b63          	beq	a0,a3,44ce <__divdi3+0x82>
    44bc:	00be17b3          	sll	a5,t3,a1
    44c0:	00d356b3          	srl	a3,t1,a3
    44c4:	00b61733          	sll	a4,a2,a1
    44c8:	8fd5                	or	a5,a5,a3
    44ca:	00b31833          	sll	a6,t1,a1
    44ce:	01075593          	srli	a1,a4,0x10
    44d2:	02b7de33          	divu	t3,a5,a1
    44d6:	01071613          	slli	a2,a4,0x10
    44da:	8241                	srli	a2,a2,0x10
    44dc:	02b7f7b3          	remu	a5,a5,a1
    44e0:	8572                	mv	a0,t3
    44e2:	03c60333          	mul	t1,a2,t3
    44e6:	01079693          	slli	a3,a5,0x10
    44ea:	01085793          	srli	a5,a6,0x10
    44ee:	8fd5                	or	a5,a5,a3
    44f0:	0067fc63          	bgeu	a5,t1,4508 <__divdi3+0xbc>
    44f4:	97ba                	add	a5,a5,a4
    44f6:	fffe0513          	addi	a0,t3,-1
    44fa:	00e7e763          	bltu	a5,a4,4508 <__divdi3+0xbc>
    44fe:	0067f563          	bgeu	a5,t1,4508 <__divdi3+0xbc>
    4502:	ffee0513          	addi	a0,t3,-2
    4506:	97ba                	add	a5,a5,a4
    4508:	406787b3          	sub	a5,a5,t1
    450c:	02b7d333          	divu	t1,a5,a1
    4510:	0842                	slli	a6,a6,0x10
    4512:	01085813          	srli	a6,a6,0x10
    4516:	02b7f7b3          	remu	a5,a5,a1
    451a:	026606b3          	mul	a3,a2,t1
    451e:	07c2                	slli	a5,a5,0x10
    4520:	00f86833          	or	a6,a6,a5
    4524:	879a                	mv	a5,t1
    4526:	00d87b63          	bgeu	a6,a3,453c <__divdi3+0xf0>
    452a:	983a                	add	a6,a6,a4
    452c:	fff30793          	addi	a5,t1,-1
    4530:	00e86663          	bltu	a6,a4,453c <__divdi3+0xf0>
    4534:	00d87463          	bgeu	a6,a3,453c <__divdi3+0xf0>
    4538:	ffe30793          	addi	a5,t1,-2
    453c:	0542                	slli	a0,a0,0x10
    453e:	8d5d                	or	a0,a0,a5
    4540:	4581                	li	a1,0
    4542:	a84d                	j	45f4 <__divdi3+0x1a8>
    4544:	01000537          	lui	a0,0x1000
    4548:	46c1                	li	a3,16
    454a:	f4a66de3          	bltu	a2,a0,44a4 <__divdi3+0x58>
    454e:	46e1                	li	a3,24
    4550:	bf91                	j	44a4 <__divdi3+0x58>
    4552:	e211                	bnez	a2,4556 <__divdi3+0x10a>
    4554:	9002                	ebreak
    4556:	67c1                	lui	a5,0x10
    4558:	0af67863          	bgeu	a2,a5,4608 <__divdi3+0x1bc>
    455c:	10063693          	sltiu	a3,a2,256
    4560:	0016c693          	xori	a3,a3,1
    4564:	068e                	slli	a3,a3,0x3
    4566:	00d657b3          	srl	a5,a2,a3
    456a:	95be                	add	a1,a1,a5
    456c:	0005c783          	lbu	a5,0(a1)
    4570:	97b6                	add	a5,a5,a3
    4572:	02000693          	li	a3,32
    4576:	40f685b3          	sub	a1,a3,a5
    457a:	08f69e63          	bne	a3,a5,4616 <__divdi3+0x1ca>
    457e:	40ce07b3          	sub	a5,t3,a2
    4582:	4585                	li	a1,1
    4584:	01075313          	srli	t1,a4,0x10
    4588:	0267deb3          	divu	t4,a5,t1
    458c:	01071613          	slli	a2,a4,0x10
    4590:	8241                	srli	a2,a2,0x10
    4592:	01085693          	srli	a3,a6,0x10
    4596:	0267f7b3          	remu	a5,a5,t1
    459a:	8576                	mv	a0,t4
    459c:	03d60e33          	mul	t3,a2,t4
    45a0:	07c2                	slli	a5,a5,0x10
    45a2:	8fd5                	or	a5,a5,a3
    45a4:	01c7fc63          	bgeu	a5,t3,45bc <__divdi3+0x170>
    45a8:	97ba                	add	a5,a5,a4
    45aa:	fffe8513          	addi	a0,t4,-1
    45ae:	00e7e763          	bltu	a5,a4,45bc <__divdi3+0x170>
    45b2:	01c7f563          	bgeu	a5,t3,45bc <__divdi3+0x170>
    45b6:	ffee8513          	addi	a0,t4,-2
    45ba:	97ba                	add	a5,a5,a4
    45bc:	41c787b3          	sub	a5,a5,t3
    45c0:	0267de33          	divu	t3,a5,t1
    45c4:	0842                	slli	a6,a6,0x10
    45c6:	01085813          	srli	a6,a6,0x10
    45ca:	0267f7b3          	remu	a5,a5,t1
    45ce:	03c606b3          	mul	a3,a2,t3
    45d2:	07c2                	slli	a5,a5,0x10
    45d4:	00f86833          	or	a6,a6,a5
    45d8:	87f2                	mv	a5,t3
    45da:	00d87b63          	bgeu	a6,a3,45f0 <__divdi3+0x1a4>
    45de:	983a                	add	a6,a6,a4
    45e0:	fffe0793          	addi	a5,t3,-1
    45e4:	00e86663          	bltu	a6,a4,45f0 <__divdi3+0x1a4>
    45e8:	00d87463          	bgeu	a6,a3,45f0 <__divdi3+0x1a4>
    45ec:	ffee0793          	addi	a5,t3,-2
    45f0:	0542                	slli	a0,a0,0x10
    45f2:	8d5d                	or	a0,a0,a5
    45f4:	00088963          	beqz	a7,4606 <__divdi3+0x1ba>
    45f8:	00a037b3          	snez	a5,a0
    45fc:	40b005b3          	neg	a1,a1
    4600:	8d9d                	sub	a1,a1,a5
    4602:	40a00533          	neg	a0,a0
    4606:	8082                	ret
    4608:	010007b7          	lui	a5,0x1000
    460c:	46c1                	li	a3,16
    460e:	f4f66ce3          	bltu	a2,a5,4566 <__divdi3+0x11a>
    4612:	46e1                	li	a3,24
    4614:	bf89                	j	4566 <__divdi3+0x11a>
    4616:	00b61733          	sll	a4,a2,a1
    461a:	00fe56b3          	srl	a3,t3,a5
    461e:	01075513          	srli	a0,a4,0x10
    4622:	00be1e33          	sll	t3,t3,a1
    4626:	00f357b3          	srl	a5,t1,a5
    462a:	01c7e7b3          	or	a5,a5,t3
    462e:	02a6de33          	divu	t3,a3,a0
    4632:	01071613          	slli	a2,a4,0x10
    4636:	8241                	srli	a2,a2,0x10
    4638:	00b31833          	sll	a6,t1,a1
    463c:	02a6f6b3          	remu	a3,a3,a0
    4640:	03c60333          	mul	t1,a2,t3
    4644:	01069593          	slli	a1,a3,0x10
    4648:	0107d693          	srli	a3,a5,0x10
    464c:	8ecd                	or	a3,a3,a1
    464e:	85f2                	mv	a1,t3
    4650:	0066fc63          	bgeu	a3,t1,4668 <__divdi3+0x21c>
    4654:	96ba                	add	a3,a3,a4
    4656:	fffe0593          	addi	a1,t3,-1
    465a:	00e6e763          	bltu	a3,a4,4668 <__divdi3+0x21c>
    465e:	0066f563          	bgeu	a3,t1,4668 <__divdi3+0x21c>
    4662:	ffee0593          	addi	a1,t3,-2
    4666:	96ba                	add	a3,a3,a4
    4668:	406686b3          	sub	a3,a3,t1
    466c:	02a6d333          	divu	t1,a3,a0
    4670:	07c2                	slli	a5,a5,0x10
    4672:	83c1                	srli	a5,a5,0x10
    4674:	02a6f6b3          	remu	a3,a3,a0
    4678:	02660633          	mul	a2,a2,t1
    467c:	06c2                	slli	a3,a3,0x10
    467e:	8fd5                	or	a5,a5,a3
    4680:	869a                	mv	a3,t1
    4682:	00c7fc63          	bgeu	a5,a2,469a <__divdi3+0x24e>
    4686:	97ba                	add	a5,a5,a4
    4688:	fff30693          	addi	a3,t1,-1
    468c:	00e7e763          	bltu	a5,a4,469a <__divdi3+0x24e>
    4690:	00c7f563          	bgeu	a5,a2,469a <__divdi3+0x24e>
    4694:	ffe30693          	addi	a3,t1,-2
    4698:	97ba                	add	a5,a5,a4
    469a:	05c2                	slli	a1,a1,0x10
    469c:	8f91                	sub	a5,a5,a2
    469e:	8dd5                	or	a1,a1,a3
    46a0:	b5d5                	j	4584 <__divdi3+0x138>
    46a2:	14de6163          	bltu	t3,a3,47e4 <__divdi3+0x398>
    46a6:	67c1                	lui	a5,0x10
    46a8:	02f6ff63          	bgeu	a3,a5,46e6 <__divdi3+0x29a>
    46ac:	1006b713          	sltiu	a4,a3,256
    46b0:	00174713          	xori	a4,a4,1
    46b4:	070e                	slli	a4,a4,0x3
    46b6:	000807b7          	lui	a5,0x80
    46ba:	00e6d5b3          	srl	a1,a3,a4
    46be:	4ac78793          	addi	a5,a5,1196 # 804ac <__clz_tab>
    46c2:	97ae                	add	a5,a5,a1
    46c4:	0007c783          	lbu	a5,0(a5)
    46c8:	97ba                	add	a5,a5,a4
    46ca:	02000713          	li	a4,32
    46ce:	40f705b3          	sub	a1,a4,a5
    46d2:	02f71163          	bne	a4,a5,46f4 <__divdi3+0x2a8>
    46d6:	4505                	li	a0,1
    46d8:	f1c6eee3          	bltu	a3,t3,45f4 <__divdi3+0x1a8>
    46dc:	00c33533          	sltu	a0,t1,a2
    46e0:	00154513          	xori	a0,a0,1
    46e4:	bf01                	j	45f4 <__divdi3+0x1a8>
    46e6:	010007b7          	lui	a5,0x1000
    46ea:	4741                	li	a4,16
    46ec:	fcf6e5e3          	bltu	a3,a5,46b6 <__divdi3+0x26a>
    46f0:	4761                	li	a4,24
    46f2:	b7d1                	j	46b6 <__divdi3+0x26a>
    46f4:	00f65733          	srl	a4,a2,a5
    46f8:	00b696b3          	sll	a3,a3,a1
    46fc:	8ed9                	or	a3,a3,a4
    46fe:	00fe5733          	srl	a4,t3,a5
    4702:	00be1e33          	sll	t3,t3,a1
    4706:	00f357b3          	srl	a5,t1,a5
    470a:	01c7e7b3          	or	a5,a5,t3
    470e:	0106de13          	srli	t3,a3,0x10
    4712:	03c75f33          	divu	t5,a4,t3
    4716:	01069813          	slli	a6,a3,0x10
    471a:	01085813          	srli	a6,a6,0x10
    471e:	00b61633          	sll	a2,a2,a1
    4722:	03c77733          	remu	a4,a4,t3
    4726:	03e80eb3          	mul	t4,a6,t5
    472a:	01071513          	slli	a0,a4,0x10
    472e:	0107d713          	srli	a4,a5,0x10
    4732:	8f49                	or	a4,a4,a0
    4734:	857a                	mv	a0,t5
    4736:	01d77c63          	bgeu	a4,t4,474e <__divdi3+0x302>
    473a:	9736                	add	a4,a4,a3
    473c:	ffff0513          	addi	a0,t5,-1
    4740:	00d76763          	bltu	a4,a3,474e <__divdi3+0x302>
    4744:	01d77563          	bgeu	a4,t4,474e <__divdi3+0x302>
    4748:	ffef0513          	addi	a0,t5,-2
    474c:	9736                	add	a4,a4,a3
    474e:	41d70733          	sub	a4,a4,t4
    4752:	03c75eb3          	divu	t4,a4,t3
    4756:	07c2                	slli	a5,a5,0x10
    4758:	83c1                	srli	a5,a5,0x10
    475a:	03c77733          	remu	a4,a4,t3
    475e:	03d80833          	mul	a6,a6,t4
    4762:	0742                	slli	a4,a4,0x10
    4764:	8fd9                	or	a5,a5,a4
    4766:	8776                	mv	a4,t4
    4768:	0107fc63          	bgeu	a5,a6,4780 <__divdi3+0x334>
    476c:	97b6                	add	a5,a5,a3
    476e:	fffe8713          	addi	a4,t4,-1
    4772:	00d7e763          	bltu	a5,a3,4780 <__divdi3+0x334>
    4776:	0107f563          	bgeu	a5,a6,4780 <__divdi3+0x334>
    477a:	ffee8713          	addi	a4,t4,-2
    477e:	97b6                	add	a5,a5,a3
    4780:	0542                	slli	a0,a0,0x10
    4782:	6ec1                	lui	t4,0x10
    4784:	8d59                	or	a0,a0,a4
    4786:	fffe8693          	addi	a3,t4,-1 # ffff <intt_driver.c.552d8326+0x7489>
    478a:	00d57733          	and	a4,a0,a3
    478e:	410787b3          	sub	a5,a5,a6
    4792:	8ef1                	and	a3,a3,a2
    4794:	01055813          	srli	a6,a0,0x10
    4798:	8241                	srli	a2,a2,0x10
    479a:	02d70e33          	mul	t3,a4,a3
    479e:	02d806b3          	mul	a3,a6,a3
    47a2:	02c70733          	mul	a4,a4,a2
    47a6:	02c80833          	mul	a6,a6,a2
    47aa:	00d70633          	add	a2,a4,a3
    47ae:	010e5713          	srli	a4,t3,0x10
    47b2:	9732                	add	a4,a4,a2
    47b4:	00d77363          	bgeu	a4,a3,47ba <__divdi3+0x36e>
    47b8:	9876                	add	a6,a6,t4
    47ba:	01075693          	srli	a3,a4,0x10
    47be:	96c2                	add	a3,a3,a6
    47c0:	02d7e063          	bltu	a5,a3,47e0 <__divdi3+0x394>
    47c4:	d6d79ee3          	bne	a5,a3,4540 <__divdi3+0xf4>
    47c8:	67c1                	lui	a5,0x10
    47ca:	17fd                	addi	a5,a5,-1
    47cc:	8f7d                	and	a4,a4,a5
    47ce:	0742                	slli	a4,a4,0x10
    47d0:	00fe7e33          	and	t3,t3,a5
    47d4:	00b31333          	sll	t1,t1,a1
    47d8:	9772                	add	a4,a4,t3
    47da:	4581                	li	a1,0
    47dc:	e0e37ce3          	bgeu	t1,a4,45f4 <__divdi3+0x1a8>
    47e0:	157d                	addi	a0,a0,-1
    47e2:	bbb9                	j	4540 <__divdi3+0xf4>
    47e4:	4581                	li	a1,0
    47e6:	4501                	li	a0,0
    47e8:	b531                	j	45f4 <__divdi3+0x1a8>

000047ea <__udivdi3>:
    47ea:	832a                	mv	t1,a0
    47ec:	88ae                	mv	a7,a1
    47ee:	8732                	mv	a4,a2
    47f0:	882a                	mv	a6,a0
    47f2:	87ae                	mv	a5,a1
    47f4:	20069663          	bnez	a3,4a00 <__udivdi3+0x216>
    47f8:	000805b7          	lui	a1,0x80
    47fc:	4ac58593          	addi	a1,a1,1196 # 804ac <__clz_tab>
    4800:	0cc8f163          	bgeu	a7,a2,48c2 <__udivdi3+0xd8>
    4804:	66c1                	lui	a3,0x10
    4806:	0ad67763          	bgeu	a2,a3,48b4 <__udivdi3+0xca>
    480a:	10063693          	sltiu	a3,a2,256
    480e:	0016c693          	xori	a3,a3,1
    4812:	068e                	slli	a3,a3,0x3
    4814:	00d65533          	srl	a0,a2,a3
    4818:	95aa                	add	a1,a1,a0
    481a:	0005c583          	lbu	a1,0(a1)
    481e:	02000513          	li	a0,32
    4822:	96ae                	add	a3,a3,a1
    4824:	40d505b3          	sub	a1,a0,a3
    4828:	00d50b63          	beq	a0,a3,483e <__udivdi3+0x54>
    482c:	00b897b3          	sll	a5,a7,a1
    4830:	00d356b3          	srl	a3,t1,a3
    4834:	00b61733          	sll	a4,a2,a1
    4838:	8fd5                	or	a5,a5,a3
    483a:	00b31833          	sll	a6,t1,a1
    483e:	01075593          	srli	a1,a4,0x10
    4842:	02b7d333          	divu	t1,a5,a1
    4846:	01071613          	slli	a2,a4,0x10
    484a:	8241                	srli	a2,a2,0x10
    484c:	02b7f7b3          	remu	a5,a5,a1
    4850:	851a                	mv	a0,t1
    4852:	026608b3          	mul	a7,a2,t1
    4856:	01079693          	slli	a3,a5,0x10
    485a:	01085793          	srli	a5,a6,0x10
    485e:	8fd5                	or	a5,a5,a3
    4860:	0117fc63          	bgeu	a5,a7,4878 <__udivdi3+0x8e>
    4864:	97ba                	add	a5,a5,a4
    4866:	fff30513          	addi	a0,t1,-1
    486a:	00e7e763          	bltu	a5,a4,4878 <__udivdi3+0x8e>
    486e:	0117f563          	bgeu	a5,a7,4878 <__udivdi3+0x8e>
    4872:	ffe30513          	addi	a0,t1,-2
    4876:	97ba                	add	a5,a5,a4
    4878:	411787b3          	sub	a5,a5,a7
    487c:	02b7d8b3          	divu	a7,a5,a1
    4880:	0842                	slli	a6,a6,0x10
    4882:	01085813          	srli	a6,a6,0x10
    4886:	02b7f7b3          	remu	a5,a5,a1
    488a:	031606b3          	mul	a3,a2,a7
    488e:	07c2                	slli	a5,a5,0x10
    4890:	00f86833          	or	a6,a6,a5
    4894:	87c6                	mv	a5,a7
    4896:	00d87b63          	bgeu	a6,a3,48ac <__udivdi3+0xc2>
    489a:	983a                	add	a6,a6,a4
    489c:	fff88793          	addi	a5,a7,-1
    48a0:	00e86663          	bltu	a6,a4,48ac <__udivdi3+0xc2>
    48a4:	00d87463          	bgeu	a6,a3,48ac <__udivdi3+0xc2>
    48a8:	ffe88793          	addi	a5,a7,-2
    48ac:	0542                	slli	a0,a0,0x10
    48ae:	8d5d                	or	a0,a0,a5
    48b0:	4581                	li	a1,0
    48b2:	8082                	ret
    48b4:	01000537          	lui	a0,0x1000
    48b8:	46c1                	li	a3,16
    48ba:	f4a66de3          	bltu	a2,a0,4814 <__udivdi3+0x2a>
    48be:	46e1                	li	a3,24
    48c0:	bf91                	j	4814 <__udivdi3+0x2a>
    48c2:	e211                	bnez	a2,48c6 <__udivdi3+0xdc>
    48c4:	9002                	ebreak
    48c6:	67c1                	lui	a5,0x10
    48c8:	08f67f63          	bgeu	a2,a5,4966 <__udivdi3+0x17c>
    48cc:	10063693          	sltiu	a3,a2,256
    48d0:	0016c693          	xori	a3,a3,1
    48d4:	068e                	slli	a3,a3,0x3
    48d6:	00d657b3          	srl	a5,a2,a3
    48da:	95be                	add	a1,a1,a5
    48dc:	0005c783          	lbu	a5,0(a1)
    48e0:	97b6                	add	a5,a5,a3
    48e2:	02000693          	li	a3,32
    48e6:	40f685b3          	sub	a1,a3,a5
    48ea:	08f69563          	bne	a3,a5,4974 <__udivdi3+0x18a>
    48ee:	40c887b3          	sub	a5,a7,a2
    48f2:	4585                	li	a1,1
    48f4:	01075893          	srli	a7,a4,0x10
    48f8:	0317de33          	divu	t3,a5,a7
    48fc:	01071613          	slli	a2,a4,0x10
    4900:	8241                	srli	a2,a2,0x10
    4902:	01085693          	srli	a3,a6,0x10
    4906:	0317f7b3          	remu	a5,a5,a7
    490a:	8572                	mv	a0,t3
    490c:	03c60333          	mul	t1,a2,t3
    4910:	07c2                	slli	a5,a5,0x10
    4912:	8fd5                	or	a5,a5,a3
    4914:	0067fc63          	bgeu	a5,t1,492c <__udivdi3+0x142>
    4918:	97ba                	add	a5,a5,a4
    491a:	fffe0513          	addi	a0,t3,-1
    491e:	00e7e763          	bltu	a5,a4,492c <__udivdi3+0x142>
    4922:	0067f563          	bgeu	a5,t1,492c <__udivdi3+0x142>
    4926:	ffee0513          	addi	a0,t3,-2
    492a:	97ba                	add	a5,a5,a4
    492c:	406787b3          	sub	a5,a5,t1
    4930:	0317d333          	divu	t1,a5,a7
    4934:	0842                	slli	a6,a6,0x10
    4936:	01085813          	srli	a6,a6,0x10
    493a:	0317f7b3          	remu	a5,a5,a7
    493e:	026606b3          	mul	a3,a2,t1
    4942:	07c2                	slli	a5,a5,0x10
    4944:	00f86833          	or	a6,a6,a5
    4948:	879a                	mv	a5,t1
    494a:	00d87b63          	bgeu	a6,a3,4960 <__udivdi3+0x176>
    494e:	983a                	add	a6,a6,a4
    4950:	fff30793          	addi	a5,t1,-1
    4954:	00e86663          	bltu	a6,a4,4960 <__udivdi3+0x176>
    4958:	00d87463          	bgeu	a6,a3,4960 <__udivdi3+0x176>
    495c:	ffe30793          	addi	a5,t1,-2
    4960:	0542                	slli	a0,a0,0x10
    4962:	8d5d                	or	a0,a0,a5
    4964:	8082                	ret
    4966:	010007b7          	lui	a5,0x1000
    496a:	46c1                	li	a3,16
    496c:	f6f665e3          	bltu	a2,a5,48d6 <__udivdi3+0xec>
    4970:	46e1                	li	a3,24
    4972:	b795                	j	48d6 <__udivdi3+0xec>
    4974:	00b61733          	sll	a4,a2,a1
    4978:	00f8d6b3          	srl	a3,a7,a5
    497c:	01075513          	srli	a0,a4,0x10
    4980:	00f357b3          	srl	a5,t1,a5
    4984:	00b31833          	sll	a6,t1,a1
    4988:	02a6d333          	divu	t1,a3,a0
    498c:	01071613          	slli	a2,a4,0x10
    4990:	00b898b3          	sll	a7,a7,a1
    4994:	8241                	srli	a2,a2,0x10
    4996:	0117e7b3          	or	a5,a5,a7
    499a:	02a6f6b3          	remu	a3,a3,a0
    499e:	026608b3          	mul	a7,a2,t1
    49a2:	01069593          	slli	a1,a3,0x10
    49a6:	0107d693          	srli	a3,a5,0x10
    49aa:	8ecd                	or	a3,a3,a1
    49ac:	859a                	mv	a1,t1
    49ae:	0116fc63          	bgeu	a3,a7,49c6 <__udivdi3+0x1dc>
    49b2:	96ba                	add	a3,a3,a4
    49b4:	fff30593          	addi	a1,t1,-1
    49b8:	00e6e763          	bltu	a3,a4,49c6 <__udivdi3+0x1dc>
    49bc:	0116f563          	bgeu	a3,a7,49c6 <__udivdi3+0x1dc>
    49c0:	ffe30593          	addi	a1,t1,-2
    49c4:	96ba                	add	a3,a3,a4
    49c6:	411686b3          	sub	a3,a3,a7
    49ca:	02a6d8b3          	divu	a7,a3,a0
    49ce:	07c2                	slli	a5,a5,0x10
    49d0:	83c1                	srli	a5,a5,0x10
    49d2:	02a6f6b3          	remu	a3,a3,a0
    49d6:	03160633          	mul	a2,a2,a7
    49da:	06c2                	slli	a3,a3,0x10
    49dc:	8fd5                	or	a5,a5,a3
    49de:	86c6                	mv	a3,a7
    49e0:	00c7fc63          	bgeu	a5,a2,49f8 <__udivdi3+0x20e>
    49e4:	97ba                	add	a5,a5,a4
    49e6:	fff88693          	addi	a3,a7,-1
    49ea:	00e7e763          	bltu	a5,a4,49f8 <__udivdi3+0x20e>
    49ee:	00c7f563          	bgeu	a5,a2,49f8 <__udivdi3+0x20e>
    49f2:	ffe88693          	addi	a3,a7,-2
    49f6:	97ba                	add	a5,a5,a4
    49f8:	05c2                	slli	a1,a1,0x10
    49fa:	8f91                	sub	a5,a5,a2
    49fc:	8dd5                	or	a1,a1,a3
    49fe:	bddd                	j	48f4 <__udivdi3+0x10a>
    4a00:	14d5e163          	bltu	a1,a3,4b42 <gpio.c.0fdb15dd+0x8a>
    4a04:	67c1                	lui	a5,0x10
    4a06:	02f6ff63          	bgeu	a3,a5,4a44 <__udivdi3+0x25a>
    4a0a:	1006b713          	sltiu	a4,a3,256
    4a0e:	00174713          	xori	a4,a4,1
    4a12:	070e                	slli	a4,a4,0x3
    4a14:	000807b7          	lui	a5,0x80
    4a18:	00e6d5b3          	srl	a1,a3,a4
    4a1c:	4ac78793          	addi	a5,a5,1196 # 804ac <__clz_tab>
    4a20:	97ae                	add	a5,a5,a1
    4a22:	0007c783          	lbu	a5,0(a5)
    4a26:	97ba                	add	a5,a5,a4
    4a28:	02000713          	li	a4,32
    4a2c:	40f705b3          	sub	a1,a4,a5
    4a30:	02f71163          	bne	a4,a5,4a52 <__udivdi3+0x268>
    4a34:	4505                	li	a0,1
    4a36:	e716eee3          	bltu	a3,a7,48b2 <__udivdi3+0xc8>
    4a3a:	00c33533          	sltu	a0,t1,a2
    4a3e:	00154513          	xori	a0,a0,1
    4a42:	8082                	ret
    4a44:	010007b7          	lui	a5,0x1000
    4a48:	4741                	li	a4,16
    4a4a:	fcf6e5e3          	bltu	a3,a5,4a14 <__udivdi3+0x22a>
    4a4e:	4761                	li	a4,24
    4a50:	b7d1                	j	4a14 <__udivdi3+0x22a>
    4a52:	00f65733          	srl	a4,a2,a5
    4a56:	00b696b3          	sll	a3,a3,a1
    4a5a:	8ed9                	or	a3,a3,a4
    4a5c:	00f8d733          	srl	a4,a7,a5
    4a60:	00b898b3          	sll	a7,a7,a1
    4a64:	00f357b3          	srl	a5,t1,a5
    4a68:	0117e7b3          	or	a5,a5,a7
    4a6c:	0106d893          	srli	a7,a3,0x10
    4a70:	03175eb3          	divu	t4,a4,a7
    4a74:	01069813          	slli	a6,a3,0x10
    4a78:	01085813          	srli	a6,a6,0x10
    4a7c:	00b61633          	sll	a2,a2,a1
    4a80:	03177733          	remu	a4,a4,a7
    4a84:	03d80e33          	mul	t3,a6,t4
    4a88:	01071513          	slli	a0,a4,0x10
    4a8c:	0107d713          	srli	a4,a5,0x10
    4a90:	8f49                	or	a4,a4,a0
    4a92:	8576                	mv	a0,t4
    4a94:	01c77c63          	bgeu	a4,t3,4aac <__udivdi3+0x2c2>
    4a98:	9736                	add	a4,a4,a3
    4a9a:	fffe8513          	addi	a0,t4,-1
    4a9e:	00d76763          	bltu	a4,a3,4aac <__udivdi3+0x2c2>
    4aa2:	01c77563          	bgeu	a4,t3,4aac <__udivdi3+0x2c2>
    4aa6:	ffee8513          	addi	a0,t4,-2
    4aaa:	9736                	add	a4,a4,a3
    4aac:	41c70733          	sub	a4,a4,t3
    4ab0:	03175e33          	divu	t3,a4,a7
    4ab4:	07c2                	slli	a5,a5,0x10
    4ab6:	83c1                	srli	a5,a5,0x10
    4ab8:	03177733          	remu	a4,a4,a7
    4abc:	03c80833          	mul	a6,a6,t3
    4ac0:	0742                	slli	a4,a4,0x10
    4ac2:	8fd9                	or	a5,a5,a4
    4ac4:	8772                	mv	a4,t3
    4ac6:	0107fc63          	bgeu	a5,a6,4ade <gpio.c.0fdb15dd+0x26>
    4aca:	97b6                	add	a5,a5,a3
    4acc:	fffe0713          	addi	a4,t3,-1
    4ad0:	00d7e763          	bltu	a5,a3,4ade <gpio.c.0fdb15dd+0x26>
    4ad4:	0107f563          	bgeu	a5,a6,4ade <gpio.c.0fdb15dd+0x26>
    4ad8:	ffee0713          	addi	a4,t3,-2
    4adc:	97b6                	add	a5,a5,a3
    4ade:	0542                	slli	a0,a0,0x10
    4ae0:	6e41                	lui	t3,0x10
    4ae2:	8d59                	or	a0,a0,a4
    4ae4:	fffe0693          	addi	a3,t3,-1 # ffff <intt_driver.c.552d8326+0x7489>
    4ae8:	00d57733          	and	a4,a0,a3
    4aec:	410787b3          	sub	a5,a5,a6
    4af0:	8ef1                	and	a3,a3,a2
    4af2:	01055813          	srli	a6,a0,0x10
    4af6:	8241                	srli	a2,a2,0x10
    4af8:	02d708b3          	mul	a7,a4,a3
    4afc:	02d806b3          	mul	a3,a6,a3
    4b00:	02c70733          	mul	a4,a4,a2
    4b04:	02c80833          	mul	a6,a6,a2
    4b08:	00d70633          	add	a2,a4,a3
    4b0c:	0108d713          	srli	a4,a7,0x10
    4b10:	9732                	add	a4,a4,a2
    4b12:	00d77363          	bgeu	a4,a3,4b18 <gpio.c.0fdb15dd+0x60>
    4b16:	9872                	add	a6,a6,t3
    4b18:	01075693          	srli	a3,a4,0x10
    4b1c:	96c2                	add	a3,a3,a6
    4b1e:	02d7e063          	bltu	a5,a3,4b3e <gpio.c.0fdb15dd+0x86>
    4b22:	d8d797e3          	bne	a5,a3,48b0 <__udivdi3+0xc6>
    4b26:	67c1                	lui	a5,0x10
    4b28:	17fd                	addi	a5,a5,-1
    4b2a:	8f7d                	and	a4,a4,a5
    4b2c:	0742                	slli	a4,a4,0x10
    4b2e:	00f8f8b3          	and	a7,a7,a5
    4b32:	00b31333          	sll	t1,t1,a1
    4b36:	9746                	add	a4,a4,a7
    4b38:	4581                	li	a1,0
    4b3a:	d6e37ce3          	bgeu	t1,a4,48b2 <__udivdi3+0xc8>
    4b3e:	157d                	addi	a0,a0,-1
    4b40:	bb85                	j	48b0 <__udivdi3+0xc6>
    4b42:	4581                	li	a1,0
    4b44:	4501                	li	a0,0
    4b46:	8082                	ret
