
sw/applications/PQClean-ATHOS/test/crypto_kem/testvectors-kyber768_clean.elf:     file format elf32-littleriscv


Disassembly of section .vectors:

00000000 <__vector_start>:

.section .vectors, "ax"
.option norvc
vector_table:
	//  0 : exception Handler and user software interrupt
	j handler_exception
   0:	5ec0206f          	j	25ec <handler_exception>
	//  1 : supervisor software interrupt
	j __no_irq_handler
   4:	3eb0006f          	j	bee <__no_irq_handler>
	//  2 : unmapped
	j __no_irq_handler
   8:	3e70006f          	j	bee <__no_irq_handler>
	//  3 : machine software interrupt handler
	j handler_irq_software
   c:	7780206f          	j	2784 <handler_irq_software>
	//  4 : user timer interrupt
	j __no_irq_handler
  10:	3df0006f          	j	bee <__no_irq_handler>
	//  5 : supervisor timer interrupt
	j __no_irq_handler
  14:	3db0006f          	j	bee <__no_irq_handler>
	//  6 : unmapped
	j __no_irq_handler
  18:	3d70006f          	j	bee <__no_irq_handler>
	//  7 : machine timer interrupt handler
	j handler_irq_timer
  1c:	7980206f          	j	27b4 <handler_irq_timer>
	//  8 : user external interrupt
	j __no_irq_handler
  20:	3cf0006f          	j	bee <__no_irq_handler>
	//  9 : supervisor external interrupt
	j __no_irq_handler
  24:	3cb0006f          	j	bee <__no_irq_handler>
	// 10 : unmapped
	j __no_irq_handler
  28:	3c70006f          	j	bee <__no_irq_handler>
	// 11 : machine external interrupt handler
	j handler_irq_external
  2c:	7b80206f          	j	27e4 <handler_irq_external>
	// 12 : unmapped
	j __no_irq_handler
  30:	3bf0006f          	j	bee <__no_irq_handler>
	// 13 : unmapped
	j __no_irq_handler
  34:	3bb0006f          	j	bee <__no_irq_handler>
	// 14 : unmapped
	j __no_irq_handler
  38:	3b70006f          	j	bee <__no_irq_handler>
	// 15 : unmapped
	j __no_irq_handler
  3c:	3b30006f          	j	bee <__no_irq_handler>
	// 16 : fast interrupt - timer_1
	j handler_irq_fast_timer_1
  40:	0510206f          	j	2890 <handler_irq_fast_timer_1>
	// 17 : fast interrupt - timer_2
	j handler_irq_fast_timer_2
  44:	0a50206f          	j	28e8 <handler_irq_fast_timer_2>
	// 18 : fast interrupt - timer_3
	j handler_irq_fast_timer_3
  48:	0f90206f          	j	2940 <handler_irq_fast_timer_3>
	// 19 : fast interrupt - dma
	j handler_irq_fast_dma
  4c:	0210206f          	j	286c <handler_irq_fast_dma>
	// 20 : fast interrupt - spi
	j handler_irq_fast_spi
  50:	1490206f          	j	2998 <handler_irq_fast_spi>
	// 21 : fast interrupt - spi_flash
	j handler_irq_fast_spi_flash
  54:	19d0206f          	j	29f0 <handler_irq_fast_spi_flash>
	// 22 : fast interrupt - gpio_0
	j handler_irq_fast_gpio_0
  58:	1f10206f          	j	2a48 <handler_irq_fast_gpio_0>
	// 23 : fast interrupt - gpio_1
	j handler_irq_fast_gpio_1
  5c:	2450206f          	j	2aa0 <handler_irq_fast_gpio_1>
	// 24 : fast interrupt - gpio_2
	j handler_irq_fast_gpio_2
  60:	2990206f          	j	2af8 <handler_irq_fast_gpio_2>
	// 25 : fast interrupt - gpio_3
	j handler_irq_fast_gpio_3
  64:	2ed0206f          	j	2b50 <handler_irq_fast_gpio_3>
	// 26 : fast interrupt - gpio_4
	j handler_irq_fast_gpio_4
  68:	3410206f          	j	2ba8 <handler_irq_fast_gpio_4>
	// 27 : fast interrupt - gpio_5
	j handler_irq_fast_gpio_5
  6c:	3950206f          	j	2c00 <handler_irq_fast_gpio_5>
	// 28 : fast interrupt - gpio_6
	j handler_irq_fast_gpio_6
  70:	3ed0206f          	j	2c5c <handler_irq_fast_gpio_6>
	// 29 : fast interrupt - gpio_7
	j handler_irq_fast_gpio_7
  74:	4410206f          	j	2cb4 <handler_irq_fast_gpio_7>
	// 30 : fast interrupt - unmapped
	j __no_irq_handler
  78:	3770006f          	j	bee <__no_irq_handler>
	// vendor interrupts: on Ibex interrupt id 31 is for non-maskable interrupts
	j __no_irq_handler
  7c:	3730006f          	j	bee <__no_irq_handler>
	// 64-32 : not connected on Ibex
	j verification_irq_handler
  80:	3f70006f          	j	c76 <verification_irq_handler>
	j __no_irq_handler
  84:	36b0006f          	j	bee <__no_irq_handler>
	j __no_irq_handler
  88:	3670006f          	j	bee <__no_irq_handler>
	j __no_irq_handler
  8c:	3630006f          	j	bee <__no_irq_handler>
	j __no_irq_handler
  90:	35f0006f          	j	bee <__no_irq_handler>
	j __no_irq_handler
  94:	35b0006f          	j	bee <__no_irq_handler>
	j __no_irq_handler
  98:	3570006f          	j	bee <__no_irq_handler>
	j __no_irq_handler
  9c:	3530006f          	j	bee <__no_irq_handler>
	j __no_irq_handler
  a0:	34f0006f          	j	bee <__no_irq_handler>
	j __no_irq_handler
  a4:	34b0006f          	j	bee <__no_irq_handler>
	j __no_irq_handler
  a8:	3470006f          	j	bee <__no_irq_handler>
	j __no_irq_handler
  ac:	3430006f          	j	bee <__no_irq_handler>
	j __no_irq_handler
  b0:	33f0006f          	j	bee <__no_irq_handler>
	j __no_irq_handler
  b4:	33b0006f          	j	bee <__no_irq_handler>
	j __no_irq_handler
  b8:	3370006f          	j	bee <__no_irq_handler>
	j __no_irq_handler
  bc:	3330006f          	j	bee <__no_irq_handler>
	j __no_irq_handler
  c0:	32f0006f          	j	bee <__no_irq_handler>
	j __no_irq_handler
  c4:	32b0006f          	j	bee <__no_irq_handler>
	j __no_irq_handler
  c8:	3270006f          	j	bee <__no_irq_handler>
	j __no_irq_handler
  cc:	3230006f          	j	bee <__no_irq_handler>
	j __no_irq_handler
  d0:	31f0006f          	j	bee <__no_irq_handler>
	j __no_irq_handler
  d4:	31b0006f          	j	bee <__no_irq_handler>
	j __no_irq_handler
  d8:	3170006f          	j	bee <__no_irq_handler>
	j __no_irq_handler
  dc:	3130006f          	j	bee <__no_irq_handler>
	j __no_irq_handler
  e0:	30f0006f          	j	bee <__no_irq_handler>
	j __no_irq_handler
  e4:	30b0006f          	j	bee <__no_irq_handler>
	j __no_irq_handler
  e8:	3070006f          	j	bee <__no_irq_handler>
	j __no_irq_handler
  ec:	3030006f          	j	bee <__no_irq_handler>
	j __no_irq_handler
  f0:	2ff0006f          	j	bee <__no_irq_handler>
	j __no_irq_handler
  f4:	2fb0006f          	j	bee <__no_irq_handler>
	j __no_irq_handler
  f8:	2f70006f          	j	bee <__no_irq_handler>
	j __no_irq_handler
  fc:	2f30006f          	j	bee <__no_irq_handler>
	j __no_irq_handler
 100:	2ef0006f          	j	bee <__no_irq_handler>

Disassembly of section .init:

00000180 <_start>:

_start:
/* initialize global pointer */
.option push
.option norelax
1: auipc gp, %pcrel_hi(__global_pointer$)
 180:	00081197          	auipc	gp,0x81
   addi  gp, gp, %pcrel_lo(1b)
 184:	cb418193          	addi	gp,gp,-844 # 80e34 <__global_pointer$>
.option pop

/* initialize stack pointer */
   la sp, _sp
 188:	000e0117          	auipc	sp,0xe0
 18c:	72810113          	addi	sp,sp,1832 # e08b0 <_sp>

/* set the frequency */
   li a0, SOC_CTRL_START_ADDRESS
 190:	20000537          	lui	a0,0x20000
   li a2, REFERENCE_CLOCK_Hz
 194:	05f5e637          	lui	a2,0x5f5e
 198:	10060613          	addi	a2,a2,256 # 5f5e100 <_sp+0x5e7d850>
   sw a2, SOC_CTRL_SYSTEM_FREQUENCY_HZ_REG_OFFSET(a0)
 19c:	cd50                	sw	a2,28(a0)
    sub    a2, a2, a0
    li     a1, 0
    call   memset
#else
/* clear the bss segment */
   la a0, __bss_start
 19e:	00080517          	auipc	a0,0x80
 1a2:	50650513          	addi	a0,a0,1286 # 806a4 <outleft>
   la a2, __bss_end
 1a6:	00080617          	auipc	a2,0x80
 1aa:	6fe60613          	addi	a2,a2,1790 # 808a4 <__BSS_END__>
   sub a2, a2, a0
 1ae:	8e09                	sub	a2,a2,a0
   li a1, 0
 1b0:	4581                	li	a1,0
   call memset
 1b2:	403020ef          	jal	ra,2db4 <memset>
    blt a1, a2, loop_init_data
    end_init_data:
#endif

/* set vector table address and vectored mode */
    la a0, __vector_start
 1b6:	00000517          	auipc	a0,0x0
 1ba:	e4a50513          	addi	a0,a0,-438 # 0 <__vector_start>
    ori a0, a0, 0x1
 1be:	00156513          	ori	a0,a0,1
    csrw mtvec, a0
 1c2:	30551073          	csrw	mtvec,a0

/* new-style constructors and destructors */
    la a0, __libc_fini_array
 1c6:	00003517          	auipc	a0,0x3
 1ca:	b4e50513          	addi	a0,a0,-1202 # 2d14 <__libc_fini_array>
    call atexit
 1ce:	33d020ef          	jal	ra,2d0a <atexit>
    call __libc_init_array
 1d2:	37d020ef          	jal	ra,2d4e <__libc_init_array>

/* call main */
    lw a0, 0(sp)                    /* a0 = argc */
 1d6:	4502                	lw	a0,0(sp)
    addi a1, sp, __SIZEOF_POINTER__ /* a1 = argv */
 1d8:	004c                	addi	a1,sp,4
    li a2, 0                        /* a2 = envp = NULL */
 1da:	4601                	li	a2,0
    call main
 1dc:	03a000ef          	jal	ra,216 <main>
    tail exit
 1e0:	00c0006f          	j	1ec <exit>

000001e4 <_init>:
.global _init
.type   _init, @function
.global _fini
.type   _fini, @function
_init:
    call init
 1e4:	2f6020ef          	jal	ra,24da <init>

000001e8 <_fini>:
_fini:
 /* These don't have to do anything since we use init_array/fini_array. Prevent
    missing symbol error */
    ret
 1e8:	8082                	ret

Disassembly of section .text:

000001ec <exit>:
     1ec:	1141                	addi	sp,sp,-16
     1ee:	678d                	lui	a5,0x3
     1f0:	c422                	sw	s0,8(sp)
     1f2:	c606                	sw	ra,12(sp)
     1f4:	20678793          	addi	a5,a5,518 # 3206 <__call_exitprocs>
     1f8:	842a                	mv	s0,a0
     1fa:	c781                	beqz	a5,202 <exit+0x16>
     1fc:	4581                	li	a1,0
     1fe:	008030ef          	jal	ra,3206 <__call_exitprocs>
     202:	000807b7          	lui	a5,0x80
     206:	6947a503          	lw	a0,1684(a5) # 80694 <_global_impure_ptr>
     20a:	551c                	lw	a5,40(a0)
     20c:	c391                	beqz	a5,210 <exit+0x24>
     20e:	9782                	jalr	a5
     210:	8522                	mv	a0,s0
     212:	2d0020ef          	jal	ra,24e2 <_exit>

00000216 <main>:

#define crypto_kem_keypair NAMESPACE(crypto_kem_keypair)
#define crypto_kem_enc NAMESPACE(crypto_kem_enc)
#define crypto_kem_dec NAMESPACE(crypto_kem_dec)

int main(void) {
     216:	b6010113          	addi	sp,sp,-1184
     21a:	72f5                	lui	t0,0xffffd
    uint8_t sk_a[CRYPTO_SECRETKEYBYTES];
    int i, j;
    unsigned int cycles_keygen, cycles_enc, cycles_dec;
    

    printf("Hi testvectors KEM!\n");
     21c:	00080537          	lui	a0,0x80
int main(void) {
     220:	48112e23          	sw	ra,1180(sp)
     224:	48912c23          	sw	s1,1176(sp)
     228:	49212a23          	sw	s2,1172(sp)
     22c:	49312823          	sw	s3,1168(sp)
     230:	49412623          	sw	s4,1164(sp)
     234:	49512423          	sw	s5,1160(sp)
     238:	49612223          	sw	s6,1156(sp)
     23c:	49712023          	sw	s7,1152(sp)
     240:	47812e23          	sw	s8,1148(sp)
     244:	47912c23          	sw	s9,1144(sp)
     248:	47a12a23          	sw	s10,1140(sp)
    printf("Hi testvectors KEM!\n");
     24c:	0dc50513          	addi	a0,a0,220 # 800dc <no_exception_handler_msg+0x47>
int main(void) {
     250:	9116                	add	sp,sp,t0
    printf("Hi testvectors KEM!\n");
     252:	451020ef          	jal	ra,2ea2 <puts>
    init_athos();
     256:	329000ef          	jal	ra,d7e <init_athos>
    CSR_CLEAR_BITS(CSR_REG_MCOUNTINHIBIT, 0x1);
     25a:	4785                	li	a5,1
     25c:	3207b073          	csrc	mcountinhibit,a5
    // Starting the performance counter
    CSR_WRITE(CSR_REG_MCYCLE, 0);
     260:	4781                	li	a5,0
     262:	b0079073          	csrw	mcycle,a5
* Returns 0 (success)
**************************************************/
int PQCLEAN_KYBER768_CLEAN_crypto_kem_keypair(uint8_t *pk,
        uint8_t *sk) {
    uint8_t coins[2 * KYBER_SYMBYTES];
    randombytes(coins, 2 * KYBER_SYMBYTES);
     266:	6a0d                	lui	s4,0x3
     268:	7975                	lui	s2,0xffffd
     26a:	bc090993          	addi	s3,s2,-1088 # ffffcbc0 <_sp+0xfff1c310>
     26e:	460a0793          	addi	a5,s4,1120 # 3460 <_fflush_r+0x4c>
     272:	97ce                	add	a5,a5,s3
     274:	0818                	addi	a4,sp,16
     276:	00e789b3          	add	s3,a5,a4
     27a:	854e                	mv	a0,s3
     27c:	04000593          	li	a1,64
     280:	747000ef          	jal	ra,11c6 <randombytes>
    const uint8_t *noiseseed = buf + KYBER_SYMBYTES;
    uint8_t nonce = 0;
    polyvec a[KYBER_K], e, pkpv, skpv;

    //hash_g(buf, coins, KYBER_SYMBYTES);
    sha3_512(buf, coins, KYBER_SYMBYTES);
     284:	c0090493          	addi	s1,s2,-1024
     288:	460a0793          	addi	a5,s4,1120
     28c:	97a6                	add	a5,a5,s1
     28e:	0818                	addi	a4,sp,16
     290:	00e784b3          	add	s1,a5,a4
     294:	85ce                	mv	a1,s3
     296:	8526                	mv	a0,s1
     298:	02000613          	li	a2,32
     29c:	047010ef          	jal	ra,1ae2 <sha3_512>

    PQCLEAN_KYBER768_CLEAN_gen_matrix(a, publicseed, 0);
     2a0:	7bfd                	lui	s7,0xfffff
     2a2:	e00b8b93          	addi	s7,s7,-512 # ffffee00 <_sp+0xfff1e550>
     2a6:	460a0793          	addi	a5,s4,1120
     2aa:	97de                	add	a5,a5,s7
     2ac:	0818                	addi	a4,sp,16
     2ae:	00e78bb3          	add	s7,a5,a4
     2b2:	85a6                	mv	a1,s1
     2b4:	4601                	li	a2,0
     2b6:	855e                	mv	a0,s7
     2b8:	3ad010ef          	jal	ra,1e64 <PQCLEAN_KYBER768_CLEAN_gen_matrix.constprop.0>
     2bc:	8d52                	mv	s10,s4

    for (i = 0; i < KYBER_K; i++) {
        PQCLEAN_KYBER768_CLEAN_poly_getnoise_eta1(&skpv.vec[i], noiseseed, nonce++);
     2be:	79f9                	lui	s3,0xffffe
     2c0:	ea098a13          	addi	s4,s3,-352 # ffffdea0 <_sp+0xfff1d5f0>
     2c4:	460d0793          	addi	a5,s10,1120
     2c8:	97d2                	add	a5,a5,s4
     2ca:	0818                	addi	a4,sp,16
     2cc:	00e78a33          	add	s4,a5,a4
     2d0:	02048493          	addi	s1,s1,32
     2d4:	85a6                	mv	a1,s1
     2d6:	4601                	li	a2,0
     2d8:	8552                	mv	a0,s4
     2da:	209010ef          	jal	ra,1ce2 <PQCLEAN_KYBER768_CLEAN_poly_getnoise_eta1>
     2de:	200a0c93          	addi	s9,s4,512
     2e2:	85a6                	mv	a1,s1
     2e4:	4605                	li	a2,1
     2e6:	8566                	mv	a0,s9
     2e8:	1fb010ef          	jal	ra,1ce2 <PQCLEAN_KYBER768_CLEAN_poly_getnoise_eta1>
     2ec:	400a0c13          	addi	s8,s4,1024
     2f0:	85a6                	mv	a1,s1
     2f2:	4609                	li	a2,2
     2f4:	8562                	mv	a0,s8
     2f6:	1ed010ef          	jal	ra,1ce2 <PQCLEAN_KYBER768_CLEAN_poly_getnoise_eta1>
    }
    for (i = 0; i < KYBER_K; i++) {
        PQCLEAN_KYBER768_CLEAN_poly_getnoise_eta1(&e.vec[i], noiseseed, nonce++);
     2fa:	2a090913          	addi	s2,s2,672
     2fe:	460d0793          	addi	a5,s10,1120
     302:	97ca                	add	a5,a5,s2
     304:	0818                	addi	a4,sp,16
     306:	00e78933          	add	s2,a5,a4
     30a:	85a6                	mv	a1,s1
     30c:	854a                	mv	a0,s2
     30e:	460d                	li	a2,3
     310:	1d3010ef          	jal	ra,1ce2 <PQCLEAN_KYBER768_CLEAN_poly_getnoise_eta1>
     314:	20090b13          	addi	s6,s2,512
     318:	85a6                	mv	a1,s1
     31a:	855a                	mv	a0,s6
     31c:	4611                	li	a2,4
     31e:	1c5010ef          	jal	ra,1ce2 <PQCLEAN_KYBER768_CLEAN_poly_getnoise_eta1>
     322:	40090a93          	addi	s5,s2,1024
     326:	4615                	li	a2,5
     328:	85a6                	mv	a1,s1
     32a:	8556                	mv	a0,s5
     32c:	1b7010ef          	jal	ra,1ce2 <PQCLEAN_KYBER768_CLEAN_poly_getnoise_eta1>
    }

    //PQCLEAN_KYBER768_CLEAN_polyvec_ntt(&skpv);
    ntt_driver(skpv.vec[0].coeffs, skpv.vec[0].coeffs);
     330:	85d2                	mv	a1,s4
     332:	8552                	mv	a0,s4
     334:	1cc010ef          	jal	ra,1500 <ntt_driver>
    ntt_driver(skpv.vec[1].coeffs, skpv.vec[1].coeffs);
     338:	85e6                	mv	a1,s9
     33a:	8566                	mv	a0,s9
     33c:	1c4010ef          	jal	ra,1500 <ntt_driver>
    ntt_driver(skpv.vec[2].coeffs, skpv.vec[2].coeffs);
     340:	85e2                	mv	a1,s8
     342:	8562                	mv	a0,s8
     344:	1bc010ef          	jal	ra,1500 <ntt_driver>
    //PQCLEAN_KYBER768_CLEAN_polyvec_ntt(&e);
    ntt_driver(e.vec[0].coeffs, e.vec[0].coeffs);
     348:	85ca                	mv	a1,s2
     34a:	854a                	mv	a0,s2
     34c:	1b4010ef          	jal	ra,1500 <ntt_driver>
    ntt_driver(e.vec[1].coeffs, e.vec[1].coeffs);
     350:	85da                	mv	a1,s6
     352:	855a                	mv	a0,s6
     354:	1ac010ef          	jal	ra,1500 <ntt_driver>
    ntt_driver(e.vec[2].coeffs, e.vec[2].coeffs);
     358:	85d6                	mv	a1,s5
     35a:	8556                	mv	a0,s5
     35c:	1a4010ef          	jal	ra,1500 <ntt_driver>

    // matrix-vector multiplication
    for (i = 0; i < KYBER_K; i++) {
     360:	8a098913          	addi	s2,s3,-1888
     364:	460d0793          	addi	a5,s10,1120
     368:	97ca                	add	a5,a5,s2
     36a:	0818                	addi	a4,sp,16
     36c:	00e78933          	add	s2,a5,a4
     370:	60090993          	addi	s3,s2,1536
    ntt_driver(e.vec[2].coeffs, e.vec[2].coeffs);
     374:	84ca                	mv	s1,s2
void PQCLEAN_KYBER768_CLEAN_poly_tomont(poly *r) {
    size_t i;
    const int16_t f = (1ULL << 32) % KYBER_Q;
    for (i = 0; i < KYBER_N; i++) {
        //r->coeffs[i] = PQCLEAN_KYBER768_CLEAN_montgomery_reduce((int32_t)r->coeffs[i] * f);
        asm volatile (".insn r 0x0b, 0x003, 2, %[dst], %[src], x0\r\n" : [dst] "=r" (r->coeffs[i]) : [src] "r" ((int32_t)r->coeffs[i] * f) : );
     376:	54900b13          	li	s6,1353
    for (i = 0; i < KYBER_N; i++) {
     37a:	10000a93          	li	s5,256
        PQCLEAN_KYBER768_CLEAN_polyvec_basemul_acc_montgomery(&pkpv.vec[i], &a[i], &skpv);
     37e:	8652                	mv	a2,s4
     380:	85de                	mv	a1,s7
     382:	8526                	mv	a0,s1
     384:	511000ef          	jal	ra,1094 <PQCLEAN_KYBER768_CLEAN_polyvec_basemul_acc_montgomery>
     388:	8626                	mv	a2,s1
     38a:	4701                	li	a4,0
        asm volatile (".insn r 0x0b, 0x003, 2, %[dst], %[src], x0\r\n" : [dst] "=r" (r->coeffs[i]) : [src] "r" ((int32_t)r->coeffs[i] * f) : );
     38c:	00061783          	lh	a5,0(a2)
     390:	036787b3          	mul	a5,a5,s6
     394:	0407b78b          	0x407b78b
     398:	00171693          	slli	a3,a4,0x1
     39c:	96a6                	add	a3,a3,s1
     39e:	00f69023          	sh	a5,0(a3)
    for (i = 0; i < KYBER_N; i++) {
     3a2:	0705                	addi	a4,a4,1
     3a4:	0609                	addi	a2,a2,2
     3a6:	ff5713e3          	bne	a4,s5,38c <main+0x176>
    for (i = 0; i < KYBER_K; i++) {
     3aa:	20048493          	addi	s1,s1,512
     3ae:	600b8b93          	addi	s7,s7,1536
     3b2:	fd3496e3          	bne	s1,s3,37e <main+0x168>
     3b6:	7575                	lui	a0,0xffffd
     3b8:	678d                	lui	a5,0x3
     3ba:	2a050513          	addi	a0,a0,672 # ffffd2a0 <_sp+0xfff1c9f0>
     3be:	46078793          	addi	a5,a5,1120 # 3460 <_fflush_r+0x4c>
     3c2:	6885                	lui	a7,0x1
     3c4:	20090813          	addi	a6,s2,512
     3c8:	97aa                	add	a5,a5,a0
     3ca:	0818                	addi	a4,sp,16
     3cc:	80088893          	addi	a7,a7,-2048 # 800 <main+0x5ea>
     3d0:	00e78533          	add	a0,a5,a4
     3d4:	85c2                	mv	a1,a6
     3d6:	98ca                	add	a7,a7,s2
*            - const poly *a: pointer to first input polynomial
*            - const poly *b: pointer to second input polynomial
**************************************************/
void PQCLEAN_KYBER768_CLEAN_poly_add(poly *r, const poly *a, const poly *b) {
    size_t i;
    for (i = 0; i < KYBER_N; i++) {
     3d8:	e0058793          	addi	a5,a1,-512
    for (i = 0; i < KYBER_N; i++) {
     3dc:	86aa                	mv	a3,a0
        r->coeffs[i] = a->coeffs[i] + b->coeffs[i];
     3de:	0007d703          	lhu	a4,0(a5)
     3e2:	0006d603          	lhu	a2,0(a3)
    for (i = 0; i < KYBER_N; i++) {
     3e6:	0789                	addi	a5,a5,2
     3e8:	0689                	addi	a3,a3,2
        r->coeffs[i] = a->coeffs[i] + b->coeffs[i];
     3ea:	9732                	add	a4,a4,a2
     3ec:	fee79f23          	sh	a4,-2(a5)
    for (i = 0; i < KYBER_N; i++) {
     3f0:	fef597e3          	bne	a1,a5,3de <main+0x1c8>
*            - const polyvec *a: pointer to first input vector of polynomials
*            - const polyvec *b: pointer to second input vector of polynomials
**************************************************/
void PQCLEAN_KYBER768_CLEAN_polyvec_add(polyvec *r, const polyvec *a, const polyvec *b) {
    unsigned int i;
    for (i = 0; i < KYBER_K; i++) {
     3f4:	20058593          	addi	a1,a1,512
     3f8:	20050513          	addi	a0,a0,512
     3fc:	fcb89ee3          	bne	a7,a1,3d8 <main+0x1c2>
    for (i = 0; i < KYBER_N; i++) {
     400:	10000593          	li	a1,256
        PQCLEAN_KYBER768_CLEAN_poly_reduce(&r->vec[i]);
     404:	864a                	mv	a2,s2
     406:	4781                	li	a5,0
        asm volatile (".insn r 0x0b, 0x004, 0, %[dst], %[src], x0\r\n" : [dst] "=r" (r->coeffs[i]) : [src] "r" (r->coeffs[i]) : );
     408:	00065683          	lhu	a3,0(a2)
     40c:	0006c68b          	0x6c68b
     410:	00179713          	slli	a4,a5,0x1
     414:	974a                	add	a4,a4,s2
     416:	00d71023          	sh	a3,0(a4)
    for (i = 0; i < KYBER_N; i++) {
     41a:	0785                	addi	a5,a5,1
     41c:	0609                	addi	a2,a2,2
     41e:	feb795e3          	bne	a5,a1,408 <main+0x1f2>
    for (i = 0; i < KYBER_K; i++) {
     422:	8942                	mv	s2,a6
     424:	01380563          	beq	a6,s3,42e <main+0x218>
     428:	20080813          	addi	a6,a6,512
     42c:	bfe1                	j	404 <main+0x1ee>
    PQCLEAN_KYBER768_CLEAN_polyvec_tobytes(r, sk);
     42e:	6a0d                	lui	s4,0x3
     430:	7979                	lui	s2,0xffffe
     432:	ea090593          	addi	a1,s2,-352 # ffffdea0 <_sp+0xfff1d5f0>
     436:	460a0793          	addi	a5,s4,1120 # 3460 <_fflush_r+0x4c>
     43a:	0818                	addi	a4,sp,16
     43c:	97ae                	add	a5,a5,a1
     43e:	00e785b3          	add	a1,a5,a4
     442:	4a090513          	addi	a0,s2,1184
     446:	460a0793          	addi	a5,s4,1120
     44a:	97aa                	add	a5,a5,a0
     44c:	00e78533          	add	a0,a5,a4
     450:	2bb000ef          	jal	ra,f0a <PQCLEAN_KYBER768_CLEAN_polyvec_tobytes>
    PQCLEAN_KYBER768_CLEAN_polyvec_tobytes(r, pk);
     454:	79f5                	lui	s3,0xffffd
     456:	e0098493          	addi	s1,s3,-512 # ffffce00 <_sp+0xfff1c550>
     45a:	460a0793          	addi	a5,s4,1120
     45e:	0818                	addi	a4,sp,16
     460:	97a6                	add	a5,a5,s1
     462:	00e784b3          	add	s1,a5,a4
     466:	8a090593          	addi	a1,s2,-1888
     46a:	460a0793          	addi	a5,s4,1120
     46e:	97ae                	add	a5,a5,a1
     470:	00e785b3          	add	a1,a5,a4
     474:	8526                	mv	a0,s1
     476:	295000ef          	jal	ra,f0a <PQCLEAN_KYBER768_CLEAN_polyvec_tobytes>
    memcpy(r + KYBER_POLYVECBYTES, seed, KYBER_SYMBYTES);
     47a:	c0098793          	addi	a5,s3,-1024
     47e:	460a0713          	addi	a4,s4,1120
     482:	973e                	add	a4,a4,a5
     484:	081c                	addi	a5,sp,16
     486:	97ba                	add	a5,a5,a4
     488:	0007a303          	lw	t1,0(a5)
     48c:	4f94                	lw	a3,24(a5)
     48e:	4fd8                	lw	a4,28(a5)
     490:	0047a883          	lw	a7,4(a5)
     494:	0087a803          	lw	a6,8(a5)
     498:	47c8                	lw	a0,12(a5)
     49a:	4b8c                	lw	a1,16(a5)
     49c:	4bd0                	lw	a2,20(a5)
    memcpy(sk + KYBER_INDCPA_SECRETKEYBYTES, pk, KYBER_PUBLICKEYBYTES);
     49e:	460a0793          	addi	a5,s4,1120
     4a2:	01010e93          	addi	t4,sp,16
     4a6:	97ca                	add	a5,a5,s2
     4a8:	97f6                	add	a5,a5,t4
     4aa:	c63e                	sw	a5,12(sp)
     4ac:	4864a023          	sw	t1,1152(s1)
     4b0:	48048793          	addi	a5,s1,1152
     4b4:	460a0493          	addi	s1,s4,1120
     4b8:	94ce                	add	s1,s1,s3
     4ba:	94f6                	add	s1,s1,t4
     4bc:	c426                	sw	s1,8(sp)
     4be:	44b2                	lw	s1,12(sp)
     4c0:	cf94                	sw	a3,24(a5)
     4c2:	cfd8                	sw	a4,28(a5)
     4c4:	46a2                	lw	a3,8(sp)
     4c6:	0117a223          	sw	a7,4(a5)
     4ca:	0107a423          	sw	a6,8(a5)
     4ce:	c7c8                	sw	a0,12(a5)
     4d0:	cb8c                	sw	a1,16(a5)
     4d2:	cbd0                	sw	a2,20(a5)
     4d4:	47a2                	lw	a5,8(sp)
     4d6:	6305                	lui	t1,0x1
     4d8:	949a                	add	s1,s1,t1
     4da:	c626                	sw	s1,12(sp)
     4dc:	e0078793          	addi	a5,a5,-512
     4e0:	92048713          	addi	a4,s1,-1760
     4e4:	2a068693          	addi	a3,a3,672
     4e8:	0007a803          	lw	a6,0(a5)
     4ec:	43c8                	lw	a0,4(a5)
     4ee:	478c                	lw	a1,8(a5)
     4f0:	47d0                	lw	a2,12(a5)
     4f2:	01072023          	sw	a6,0(a4)
     4f6:	c348                	sw	a0,4(a4)
     4f8:	c70c                	sw	a1,8(a4)
     4fa:	c750                	sw	a2,12(a4)
     4fc:	07c1                	addi	a5,a5,16
     4fe:	0741                	addi	a4,a4,16
     500:	fed794e3          	bne	a5,a3,4e8 <main+0x2d2>
    sha3_256(sk + KYBER_SECRETKEYBYTES - 2 * KYBER_SYMBYTES, pk, KYBER_PUBLICKEYBYTES);
     504:	6a8d                	lui	s5,0x3
     506:	79f9                	lui	s3,0xffffe
     508:	4a098793          	addi	a5,s3,1184 # ffffe4a0 <_sp+0xfff1dbf0>
     50c:	460a8713          	addi	a4,s5,1120 # 3460 <_fflush_r+0x4c>
     510:	7a75                	lui	s4,0xffffd
     512:	973e                	add	a4,a4,a5
     514:	081c                	addi	a5,sp,16
     516:	00f704b3          	add	s1,a4,a5
     51a:	e00a0b13          	addi	s6,s4,-512 # ffffce00 <_sp+0xfff1c550>
     51e:	460a8793          	addi	a5,s5,1120
     522:	0818                	addi	a4,sp,16
     524:	6905                	lui	s2,0x1
     526:	97da                	add	a5,a5,s6
     528:	00e78b33          	add	s6,a5,a4
     52c:	92090513          	addi	a0,s2,-1760 # 920 <main+0x70a>
     530:	85da                	mv	a1,s6
     532:	9526                	add	a0,a0,s1
     534:	5ec010ef          	jal	ra,1b20 <sha3_256.constprop.0>
    memcpy(sk + KYBER_SECRETKEYBYTES - KYBER_SYMBYTES, coins + KYBER_SYMBYTES, KYBER_SYMBYTES);
     538:	bc0a0793          	addi	a5,s4,-1088
     53c:	460a8713          	addi	a4,s5,1120
     540:	973e                	add	a4,a4,a5
     542:	081c                	addi	a5,sp,16
     544:	97ba                	add	a5,a5,a4
     546:	0207a303          	lw	t1,32(a5)
     54a:	0247a883          	lw	a7,36(a5)
     54e:	0287a803          	lw	a6,40(a5)
     552:	57c8                	lw	a0,44(a5)
     554:	5b8c                	lw	a1,48(a5)
     556:	5bd0                	lw	a2,52(a5)
     558:	5f94                	lw	a3,56(a5)
     55a:	5fd8                	lw	a4,60(a5)
     55c:	94090793          	addi	a5,s2,-1728
     560:	97a6                	add	a5,a5,s1
     562:	0067a023          	sw	t1,0(a5)
     566:	0117a223          	sw	a7,4(a5)
     56a:	0107a423          	sw	a6,8(a5)
     56e:	c7c8                	sw	a0,12(a5)
     570:	cb8c                	sw	a1,16(a5)
     572:	cbd0                	sw	a2,20(a5)
     574:	cf94                	sw	a3,24(a5)
     576:	cfd8                	sw	a4,28(a5)
    // Key-pair generation
    crypto_kem_keypair(pk, sk_a);
    CSR_READ(CSR_REG_MCYCLE, &cycles_keygen);
     578:	b00025f3          	csrr	a1,mcycle
    printf("Number of clock cycles keygen: %d\n", cycles_keygen);
     57c:	00080537          	lui	a0,0x80
     580:	0f050513          	addi	a0,a0,240 # 800f0 <no_exception_handler_msg+0x5b>
     584:	6c8030ef          	jal	ra,3c4c <iprintf>

    //printbytes(pk, CRYPTO_PUBLICKEYBYTES);
    //printbytes(sk_a, CRYPTO_SECRETKEYBYTES);

    // Encapsulation
    CSR_WRITE(CSR_REG_MCYCLE, 0);
     588:	4b81                	li	s7,0
     58a:	b00b9073          	csrw	mcycle,s7
        const uint8_t *coins) {
    uint8_t buf[2 * KYBER_SYMBYTES];
    /* Will contain key, coins */
    uint8_t kr[2 * KYBER_SYMBYTES];

    memcpy(buf, coins, KYBER_SYMBYTES);
     58e:	460a8793          	addi	a5,s5,1120
     592:	0818                	addi	a4,sp,16
     594:	97d2                	add	a5,a5,s4
     596:	97ba                	add	a5,a5,a4
**************************************************/
int PQCLEAN_KYBER768_CLEAN_crypto_kem_enc(uint8_t *ct,
        uint8_t *ss,
        const uint8_t *pk) {
    uint8_t coins[KYBER_SYMBYTES];
    randombytes(coins, KYBER_SYMBYTES);
     598:	2a0a0513          	addi	a0,s4,672
    memcpy(buf, coins, KYBER_SYMBYTES);
     59c:	c43e                	sw	a5,8(sp)
    randombytes(coins, KYBER_SYMBYTES);
     59e:	460a8793          	addi	a5,s5,1120
     5a2:	97aa                	add	a5,a5,a0
     5a4:	00e78533          	add	a0,a5,a4
     5a8:	02000593          	li	a1,32
     5ac:	41b000ef          	jal	ra,11c6 <randombytes>
    memcpy(buf, coins, KYBER_SYMBYTES);
     5b0:	47a2                	lw	a5,8(sp)
     5b2:	84d6                	mv	s1,s5
    sha3_256(buf + KYBER_SYMBYTES, pk, KYBER_PUBLICKEYBYTES);
     5b4:	46048593          	addi	a1,s1,1120
     5b8:	ea098a93          	addi	s5,s3,-352
     5bc:	0808                	addi	a0,sp,16
     5be:	95d6                	add	a1,a1,s5
    memcpy(buf, coins, KYBER_SYMBYTES);
     5c0:	2a07ae03          	lw	t3,672(a5)
     5c4:	2a47a303          	lw	t1,676(a5)
     5c8:	2a87a883          	lw	a7,680(a5)
     5cc:	2ac7a803          	lw	a6,684(a5)
     5d0:	2b47a683          	lw	a3,692(a5)
    sha3_256(buf + KYBER_SYMBYTES, pk, KYBER_PUBLICKEYBYTES);
     5d4:	00a58ab3          	add	s5,a1,a0
    memcpy(buf, coins, KYBER_SYMBYTES);
     5d8:	2b07a603          	lw	a2,688(a5)
     5dc:	2b87a703          	lw	a4,696(a5)
     5e0:	46048593          	addi	a1,s1,1120
     5e4:	2bc7a783          	lw	a5,700(a5)
     5e8:	95ce                	add	a1,a1,s3
     5ea:	8c26                	mv	s8,s1
     5ec:	00a584b3          	add	s1,a1,a0
     5f0:	ea64a223          	sw	t1,-348(s1)
     5f4:	eb14a423          	sw	a7,-344(s1)
     5f8:	eb04a623          	sw	a6,-340(s1)
     5fc:	ebc4a023          	sw	t3,-352(s1)
     600:	ead4aa23          	sw	a3,-332(s1)
    sha3_256(buf + KYBER_SYMBYTES, pk, KYBER_PUBLICKEYBYTES);
     604:	85da                	mv	a1,s6
     606:	020a8513          	addi	a0,s5,32
    memcpy(buf, coins, KYBER_SYMBYTES);
     60a:	eac4a823          	sw	a2,-336(s1)
     60e:	eae4ac23          	sw	a4,-328(s1)
     612:	eaf4ae23          	sw	a5,-324(s1)
    sha3_256(buf + KYBER_SYMBYTES, pk, KYBER_PUBLICKEYBYTES);
     616:	50a010ef          	jal	ra,1b20 <sha3_256.constprop.0>
    sha3_512(kr, buf, 2 * KYBER_SYMBYTES);
     61a:	7a7d                	lui	s4,0xfffff
     61c:	e00a0a13          	addi	s4,s4,-512 # ffffee00 <_sp+0xfff1e550>
     620:	460c0793          	addi	a5,s8,1120
     624:	0818                	addi	a4,sp,16
     626:	97d2                	add	a5,a5,s4
     628:	00e78a33          	add	s4,a5,a4
     62c:	85d6                	mv	a1,s5
     62e:	8552                	mv	a0,s4
     630:	04000613          	li	a2,64
     634:	4ae010ef          	jal	ra,1ae2 <sha3_512>
    PQCLEAN_KYBER768_CLEAN_indcpa_enc(ct, buf, pk, kr + KYBER_SYMBYTES);
     638:	8a098993          	addi	s3,s3,-1888
     63c:	460c0793          	addi	a5,s8,1120
     640:	0818                	addi	a4,sp,16
     642:	97ce                	add	a5,a5,s3
     644:	00e789b3          	add	s3,a5,a4
     648:	020a0693          	addi	a3,s4,32
     64c:	865a                	mv	a2,s6
     64e:	85d6                	mv	a1,s5
     650:	854e                	mv	a0,s3
     652:	1e5010ef          	jal	ra,2036 <PQCLEAN_KYBER768_CLEAN_indcpa_enc>
    memcpy(ss, kr, KYBER_SYMBYTES);
     656:	0818                	addi	a4,sp,16
     658:	460c0793          	addi	a5,s8,1120
     65c:	97ba                	add	a5,a5,a4
     65e:	412787b3          	sub	a5,a5,s2
     662:	4322                	lw	t1,8(sp)
     664:	e007a883          	lw	a7,-512(a5)
     668:	e047a803          	lw	a6,-508(a5)
     66c:	e087a503          	lw	a0,-504(a5)
     670:	e0c7a583          	lw	a1,-500(a5)
     674:	e107a603          	lw	a2,-496(a5)
     678:	e147a683          	lw	a3,-492(a5)
     67c:	e187a703          	lw	a4,-488(a5)
     680:	e1c7a783          	lw	a5,-484(a5)
     684:	bb132023          	sw	a7,-1120(t1) # ba0 <main+0x98a>
     688:	bb032223          	sw	a6,-1116(t1)
     68c:	baa32423          	sw	a0,-1112(t1)
     690:	bab32623          	sw	a1,-1108(t1)
     694:	bac32823          	sw	a2,-1104(t1)
     698:	bad32a23          	sw	a3,-1100(t1)
     69c:	bae32c23          	sw	a4,-1096(t1)
     6a0:	baf32e23          	sw	a5,-1092(t1)
    crypto_kem_enc(sendb, key_b, pk);
    CSR_READ(CSR_REG_MCYCLE, &cycles_enc);
     6a4:	b00025f3          	csrr	a1,mcycle
    printf("Number of clock cycles enc: %d\n", cycles_enc);
     6a8:	00080537          	lui	a0,0x80
     6ac:	11450513          	addi	a0,a0,276 # 80114 <no_exception_handler_msg+0x7f>
     6b0:	59c030ef          	jal	ra,3c4c <iprintf>

    //printbytes(sendb, CRYPTO_CIPHERTEXTBYTES);
    //printbytes(key_b, CRYPTO_BYTES);

    // Decapsulation
    CSR_WRITE(CSR_REG_MCYCLE, 0);
     6b4:	b00b9073          	csrw	mcycle,s7
    for (i = 0; i < KYBER_K; i++) {
     6b8:	4e81                	li	t4,0
     6ba:	8e4e                	mv	t3,s3
            asm volatile (".insn r 0x0b, 0x6, 38, %[dst], %[src], %[x]\r\n" : [dst] "=r" (r->vec[i].coeffs[4 * j])  : [src] "r" (t[0]), [x] "r" (0) :  );
     6bc:	4881                	li	a7,0
        for (j = 0; j < KYBER_N / 4; j++) {
     6be:	10000313          	li	t1,256
    for (i = 0; i < KYBER_K; i++) {
     6c2:	4f0d                	li	t5,3
     6c4:	85f2                	mv	a1,t3
     6c6:	4601                	li	a2,0
     6c8:	008e9813          	slli	a6,t4,0x8
            t[0] = (a[0] >> 0) | ((uint16_t)a[1] << 8);
     6cc:	0015c683          	lbu	a3,1(a1)
            t[1] = (a[1] >> 2) | ((uint16_t)a[2] << 6);
     6d0:	0025c283          	lbu	t0,2(a1)
            t[2] = (a[2] >> 4) | ((uint16_t)a[3] << 4);
     6d4:	0035c783          	lbu	a5,3(a1)
            t[3] = (a[3] >> 6) | ((uint16_t)a[4] << 2);
     6d8:	0045c703          	lbu	a4,4(a1)
     6dc:	0005c083          	lbu	ra,0(a1)
     6e0:	00869f93          	slli	t6,a3,0x8
            t[1] = (a[1] >> 2) | ((uint16_t)a[2] << 6);
     6e4:	00629513          	slli	a0,t0,0x6
     6e8:	8289                	srli	a3,a3,0x2
            t[3] = (a[3] >> 6) | ((uint16_t)a[4] << 2);
     6ea:	0067d393          	srli	t2,a5,0x6
     6ee:	070a                	slli	a4,a4,0x2
     6f0:	001fefb3          	or	t6,t6,ra
            t[1] = (a[1] >> 2) | ((uint16_t)a[2] << 6);
     6f4:	8d55                	or	a0,a0,a3
            t[3] = (a[3] >> 6) | ((uint16_t)a[4] << 2);
     6f6:	00776733          	or	a4,a4,t2
            a += 5;
     6fa:	0595                	addi	a1,a1,5
            asm volatile (".insn r 0x0b, 0x6, 38, %[dst], %[src], %[x]\r\n" : [dst] "=r" (r->vec[i].coeffs[4 * j])  : [src] "r" (t[0]), [x] "r" (0) :  );
     6fc:	4d1fef8b          	0x4d1fef8b
     700:	00c806b3          	add	a3,a6,a2
     704:	0686                	slli	a3,a3,0x1
     706:	96a6                	add	a3,a3,s1
     708:	ebf69023          	sh	t6,-352(a3)
            asm volatile (".insn r 0x0b, 0x6, 38, %[dst], %[src], %[x]\r\n" : [dst] "=r" (r->vec[i].coeffs[4 * j + 1])  : [src] "r" (t[1]), [x] "r" (0) :  );
     70c:	4d15650b          	0x4d15650b
     710:	00160693          	addi	a3,a2,1
     714:	96c2                	add	a3,a3,a6
     716:	0686                	slli	a3,a3,0x1
     718:	96a6                	add	a3,a3,s1
            t[2] = (a[2] >> 4) | ((uint16_t)a[3] << 4);
     71a:	0042d293          	srli	t0,t0,0x4
     71e:	0792                	slli	a5,a5,0x4
            asm volatile (".insn r 0x0b, 0x6, 38, %[dst], %[src], %[x]\r\n" : [dst] "=r" (r->vec[i].coeffs[4 * j + 1])  : [src] "r" (t[1]), [x] "r" (0) :  );
     720:	eaa69023          	sh	a0,-352(a3)
            t[2] = (a[2] >> 4) | ((uint16_t)a[3] << 4);
     724:	0057e7b3          	or	a5,a5,t0
            asm volatile (".insn r 0x0b, 0x6, 38, %[dst], %[src], %[x]\r\n" : [dst] "=r" (r->vec[i].coeffs[4 * j + 2])  : [src] "r" (t[2]), [x] "r" (0) :  );
     728:	4d17e78b          	0x4d17e78b
     72c:	00260693          	addi	a3,a2,2
     730:	96c2                	add	a3,a3,a6
     732:	0686                	slli	a3,a3,0x1
     734:	96a6                	add	a3,a3,s1
     736:	eaf69023          	sh	a5,-352(a3)
            asm volatile (".insn r 0x0b, 0x6, 38, %[dst], %[src], %[x]\r\n" : [dst] "=r" (r->vec[i].coeffs[4 * j + 3])  : [src] "r" (t[3]), [x] "r" (0) :  );
     73a:	4d17670b          	0x4d17670b
     73e:	00360793          	addi	a5,a2,3
     742:	97c2                	add	a5,a5,a6
     744:	0786                	slli	a5,a5,0x1
     746:	97a6                	add	a5,a5,s1
     748:	eae79023          	sh	a4,-352(a5)
        for (j = 0; j < KYBER_N / 4; j++) {
     74c:	0611                	addi	a2,a2,4
     74e:	f6661fe3          	bne	a2,t1,6cc <main+0x4b6>
    for (i = 0; i < KYBER_K; i++) {
     752:	0e85                	addi	t4,t4,1
            a += 5;
     754:	140e0e13          	addi	t3,t3,320
    for (i = 0; i < KYBER_K; i++) {
     758:	f7ee96e3          	bne	t4,t5,6c4 <main+0x4ae>
     75c:	7879                	lui	a6,0xffffe
     75e:	678d                	lui	a5,0x3
     760:	8a080813          	addi	a6,a6,-1888 # ffffd8a0 <_sp+0xfff1cff0>
     764:	46078793          	addi	a5,a5,1120 # 3460 <_fflush_r+0x4c>
     768:	97c2                	add	a5,a5,a6
     76a:	0818                	addi	a4,sp,16
     76c:	00e78833          	add	a6,a5,a4
     770:	3c080693          	addi	a3,a6,960
        asm volatile (".insn r 0x0b, 0x006, 18, %[dst], %[src], %[x]\r\n" : [dst] "=r" (r->coeffs[2 * i + 0])  : [src] "r" (a[0]), [x] "r" (0) :  );
     774:	7975                	lui	s2,0xffffd
     776:	4601                	li	a2,0
     778:	4581                	li	a1,0
    for (i = 0; i < KYBER_N / 2; i++) {
     77a:	74f9                	lui	s1,0xffffe
     77c:	44080813          	addi	a6,a6,1088
        asm volatile (".insn r 0x0b, 0x006, 18, %[dst], %[src], %[x]\r\n" : [dst] "=r" (r->coeffs[2 * i + 0])  : [src] "r" (a[0]), [x] "r" (0) :  );
     780:	0006c783          	lbu	a5,0(a3)
     784:	24b7e50b          	0x24b7e50b
     788:	00161713          	slli	a4,a2,0x1
     78c:	47010893          	addi	a7,sp,1136
     790:	9746                	add	a4,a4,a7
     792:	c0a71023          	sh	a0,-1024(a4)
        asm volatile (".insn r 0x0b, 0x006, 19, %[dst], %[src], %[x]\r\n" : [dst] "=r" (r->coeffs[2 * i + 1])  : [src] "r" (a[0]), [x] "r" (0) :  );
     796:	26b7e70b          	0x26b7e70b
     79a:	00160793          	addi	a5,a2,1
     79e:	0786                	slli	a5,a5,0x1
     7a0:	97c6                	add	a5,a5,a7
     7a2:	c0e79023          	sh	a4,-1024(a5)
        a += 1;
     7a6:	0685                	addi	a3,a3,1
    for (i = 0; i < KYBER_N / 2; i++) {
     7a8:	0609                	addi	a2,a2,2
     7aa:	fd069be3          	bne	a3,a6,780 <main+0x56a>
    PQCLEAN_KYBER768_CLEAN_polyvec_frombytes(sk, packedsk);
     7ae:	6a8d                	lui	s5,0x3
     7b0:	7a7d                	lui	s4,0xfffff
     7b2:	e00a0a13          	addi	s4,s4,-512 # ffffee00 <_sp+0xfff1e550>
     7b6:	460a8793          	addi	a5,s5,1120 # 3460 <_fflush_r+0x4c>
     7ba:	0818                	addi	a4,sp,16
     7bc:	97d2                	add	a5,a5,s4
     7be:	00e78a33          	add	s4,a5,a4
     7c2:	4a048593          	addi	a1,s1,1184 # ffffe4a0 <_sp+0xfff1dbf0>
     7c6:	460a8793          	addi	a5,s5,1120
     7ca:	97ae                	add	a5,a5,a1
     7cc:	00e785b3          	add	a1,a5,a4
     7d0:	8552                	mv	a0,s4
     7d2:	790000ef          	jal	ra,f62 <PQCLEAN_KYBER768_CLEAN_polyvec_frombytes>

    unpack_ciphertext(&b, &v, c);
    unpack_sk(&skpv, sk);

    //PQCLEAN_KYBER768_CLEAN_polyvec_ntt(&b);
    ntt_driver(b.vec[0].coeffs, b.vec[0].coeffs);
     7d6:	ea048493          	addi	s1,s1,-352
     7da:	460a8793          	addi	a5,s5,1120
     7de:	97a6                	add	a5,a5,s1
     7e0:	0818                	addi	a4,sp,16
     7e2:	00e789b3          	add	s3,a5,a4
     7e6:	85ce                	mv	a1,s3
     7e8:	854e                	mv	a0,s3
     7ea:	517000ef          	jal	ra,1500 <ntt_driver>
    ntt_driver(b.vec[1].coeffs, b.vec[1].coeffs);
     7ee:	20098593          	addi	a1,s3,512
     7f2:	852e                	mv	a0,a1
     7f4:	50d000ef          	jal	ra,1500 <ntt_driver>
    ntt_driver(b.vec[2].coeffs, b.vec[2].coeffs);
     7f8:	40098593          	addi	a1,s3,1024
     7fc:	852e                	mv	a0,a1
     7fe:	503000ef          	jal	ra,1500 <ntt_driver>
    
    PQCLEAN_KYBER768_CLEAN_polyvec_basemul_acc_montgomery(&mp, &skpv, &b);
     802:	2a090593          	addi	a1,s2,672 # ffffd2a0 <_sp+0xfff1c9f0>
     806:	460a8793          	addi	a5,s5,1120
     80a:	97ae                	add	a5,a5,a1
     80c:	0818                	addi	a4,sp,16
     80e:	00e784b3          	add	s1,a5,a4
     812:	864e                	mv	a2,s3
     814:	85d2                	mv	a1,s4
     816:	8526                	mv	a0,s1
     818:	07d000ef          	jal	ra,1094 <PQCLEAN_KYBER768_CLEAN_polyvec_basemul_acc_montgomery>
    
    //PQCLEAN_KYBER768_CLEAN_poly_invntt_tomont(&mp);
    intt_driver(mp.coeffs, mp.coeffs);
     81c:	85a6                	mv	a1,s1
     81e:	8526                	mv	a0,s1
     820:	62b000ef          	jal	ra,164a <intt_driver>
*            - const poly *a: pointer to first input polynomial
*            - const poly *b: pointer to second input polynomial
**************************************************/
void PQCLEAN_KYBER768_CLEAN_poly_sub(poly *r, const poly *a, const poly *b) {
    size_t i;
    for (i = 0; i < KYBER_N; i++) {
     824:	c0090693          	addi	a3,s2,-1024
     828:	460a8793          	addi	a5,s5,1120
     82c:	97b6                	add	a5,a5,a3
     82e:	0818                	addi	a4,sp,16
     830:	00e786b3          	add	a3,a5,a4
     834:	8626                	mv	a2,s1
     836:	20048513          	addi	a0,s1,512
     83a:	87a6                	mv	a5,s1
        r->coeffs[i] = a->coeffs[i] - b->coeffs[i];
     83c:	0007d583          	lhu	a1,0(a5)
     840:	0006d703          	lhu	a4,0(a3)
    for (i = 0; i < KYBER_N; i++) {
     844:	0789                	addi	a5,a5,2
     846:	0689                	addi	a3,a3,2
        r->coeffs[i] = a->coeffs[i] - b->coeffs[i];
     848:	8f0d                	sub	a4,a4,a1
     84a:	fee79f23          	sh	a4,-2(a5)
    for (i = 0; i < KYBER_N; i++) {
     84e:	fef517e3          	bne	a0,a5,83c <main+0x626>
        asm volatile (".insn r 0x0b, 0x004, 0, %[dst], %[src], x0\r\n" : [dst] "=r" (r->coeffs[i]) : [src] "r" (r->coeffs[i]) : );
     852:	7875                	lui	a6,0xffffd
     854:	85a6                	mv	a1,s1
    for (i = 0; i < KYBER_N; i++) {
     856:	4781                	li	a5,0
     858:	10000893          	li	a7,256
        asm volatile (".insn r 0x0b, 0x004, 0, %[dst], %[src], x0\r\n" : [dst] "=r" (r->coeffs[i]) : [src] "r" (r->coeffs[i]) : );
     85c:	0005d683          	lhu	a3,0(a1)
     860:	0006c68b          	0x6c68b
     864:	00179713          	slli	a4,a5,0x1
     868:	47010493          	addi	s1,sp,1136
     86c:	9726                	add	a4,a4,s1
     86e:	2ad71023          	sh	a3,672(a4)
    for (i = 0; i < KYBER_N; i++) {
     872:	0785                	addi	a5,a5,1
     874:	0589                	addi	a1,a1,2
     876:	ff1793e3          	bne	a5,a7,85c <main+0x646>
     87a:	678d                	lui	a5,0x3
     87c:	bc080693          	addi	a3,a6,-1088 # ffffcbc0 <_sp+0xfff1c310>
     880:	46078793          	addi	a5,a5,1120 # 3460 <_fflush_r+0x4c>
     884:	97b6                	add	a5,a5,a3
     886:	0818                	addi	a4,sp,16
     888:	00e786b3          	add	a3,a5,a4
        asm volatile (".insn r 0x0b, 0x006, 28, %[dst], %[src], %[src2]\r\n" : [dst] "=r" (msg[i])  : [src] "r" (a->coeffs[8 * i + 0]), [src2] "r" (msg[i]) :   );
     88c:	4581                	li	a1,0
     88e:	00065703          	lhu	a4,0(a2)
     892:	38b7670b          	0x38b7670b
        asm volatile (".insn r 0x0b, 0x006, 29, %[dst], %[src], %[src2]\r\n" : [dst] "=r" (msg[i])  : [src] "r" (a->coeffs[8 * i + 1]), [src2] "r" (msg[i]) :   );
     896:	00265783          	lhu	a5,2(a2)
     89a:	3ae7e78b          	0x3ae7e78b
        asm volatile (".insn r 0x0b, 0x006, 30, %[dst], %[src], %[src2]\r\n" : [dst] "=r" (msg[i])  : [src] "r" (a->coeffs[8 * i + 2]), [src2] "r" (msg[i]) :   );
     89e:	00465703          	lhu	a4,4(a2)
     8a2:	3cf7670b          	0x3cf7670b
        asm volatile (".insn r 0x0b, 0x006, 31, %[dst], %[src], %[src2]\r\n" : [dst] "=r" (msg[i])  : [src] "r" (a->coeffs[8 * i + 3]), [src2] "r" (msg[i]) :   );
     8a6:	00665783          	lhu	a5,6(a2)
     8aa:	3ee7e78b          	0x3ee7e78b
        asm volatile (".insn r 0x0b, 0x006, 32, %[dst], %[src], %[src2]\r\n" : [dst] "=r" (msg[i])  : [src] "r" (a->coeffs[8 * i + 4]), [src2] "r" (msg[i]) :   );
     8ae:	00865703          	lhu	a4,8(a2)
     8b2:	40f7670b          	0x40f7670b
        asm volatile (".insn r 0x0b, 0x006, 33, %[dst], %[src], %[src2]\r\n" : [dst] "=r" (msg[i])  : [src] "r" (a->coeffs[8 * i + 5]), [src2] "r" (msg[i]) :   );
     8b6:	00a65783          	lhu	a5,10(a2)
     8ba:	42e7e78b          	0x42e7e78b
        asm volatile (".insn r 0x0b, 0x006, 34, %[dst], %[src], %[src2]\r\n" : [dst] "=r" (msg[i])  : [src] "r" (a->coeffs[8 * i + 6]), [src2] "r" (msg[i]) :   );
     8be:	00c65703          	lhu	a4,12(a2)
     8c2:	44f7670b          	0x44f7670b
        asm volatile (".insn r 0x0b, 0x006, 35, %[dst], %[src], %[src2]\r\n" : [dst] "=r" (msg[i])  : [src] "r" (a->coeffs[8 * i + 7]), [src2] "r" (msg[i]) :   );
     8c6:	00e65783          	lhu	a5,14(a2)
     8ca:	46e7e78b          	0x46e7e78b
     8ce:	00f68023          	sb	a5,0(a3)
    for (i = 0; i < KYBER_N / 8; i++) {
     8d2:	0641                	addi	a2,a2,16
     8d4:	0685                	addi	a3,a3,1
     8d6:	fac51ce3          	bne	a0,a2,88e <main+0x678>
    const uint8_t *pk = sk + KYBER_INDCPA_SECRETKEYBYTES;

    PQCLEAN_KYBER768_CLEAN_indcpa_dec(buf, ct, sk);

    /* Multitarget countermeasure for coins + contributory KEM */
    memcpy(buf + KYBER_SYMBYTES, sk + KYBER_SECRETKEYBYTES - 2 * KYBER_SYMBYTES, KYBER_SYMBYTES);
     8da:	74f9                	lui	s1,0xffffe
     8dc:	658d                	lui	a1,0x3
     8de:	4a048a13          	addi	s4,s1,1184 # ffffe4a0 <_sp+0xfff1dbf0>
     8e2:	46058793          	addi	a5,a1,1120 # 3460 <_fflush_r+0x4c>
     8e6:	97d2                	add	a5,a5,s4
     8e8:	0818                	addi	a4,sp,16
     8ea:	00e78a33          	add	s4,a5,a4
     8ee:	6785                	lui	a5,0x1
     8f0:	92078793          	addi	a5,a5,-1760 # 920 <main+0x70a>
     8f4:	97d2                	add	a5,a5,s4
     8f6:	79f5                	lui	s3,0xffffd
     8f8:	4390                	lw	a2,0(a5)
     8fa:	0047ae03          	lw	t3,4(a5)
     8fe:	0087a303          	lw	t1,8(a5)
     902:	00c7a883          	lw	a7,12(a5)
     906:	0107a803          	lw	a6,16(a5)
     90a:	4bd4                	lw	a3,20(a5)
     90c:	4f98                	lw	a4,24(a5)
    //hash_g(kr, buf, 2 * KYBER_SYMBYTES);
    sha3_512(kr, buf, 2 * KYBER_SYMBYTES);
     90e:	ea048a93          	addi	s5,s1,-352
    memcpy(buf + KYBER_SYMBYTES, sk + KYBER_SECRETKEYBYTES - 2 * KYBER_SYMBYTES, KYBER_SYMBYTES);
     912:	4fdc                	lw	a5,28(a5)
    sha3_512(kr, buf, 2 * KYBER_SYMBYTES);
     914:	8b2e                	mv	s6,a1
    memcpy(buf + KYBER_SYMBYTES, sk + KYBER_SECRETKEYBYTES - 2 * KYBER_SYMBYTES, KYBER_SYMBYTES);
     916:	bc098993          	addi	s3,s3,-1088 # ffffcbc0 <_sp+0xfff1c310>
     91a:	46058513          	addi	a0,a1,1120
    sha3_512(kr, buf, 2 * KYBER_SYMBYTES);
     91e:	46058593          	addi	a1,a1,1120
    memcpy(buf + KYBER_SYMBYTES, sk + KYBER_SECRETKEYBYTES - 2 * KYBER_SYMBYTES, KYBER_SYMBYTES);
     922:	01010e93          	addi	t4,sp,16
     926:	954e                	add	a0,a0,s3
    sha3_512(kr, buf, 2 * KYBER_SYMBYTES);
     928:	95d6                	add	a1,a1,s5
    memcpy(buf + KYBER_SYMBYTES, sk + KYBER_SECRETKEYBYTES - 2 * KYBER_SYMBYTES, KYBER_SYMBYTES);
     92a:	01d509b3          	add	s3,a0,t4
    sha3_512(kr, buf, 2 * KYBER_SYMBYTES);
     92e:	01d58ab3          	add	s5,a1,t4
    memcpy(buf + KYBER_SYMBYTES, sk + KYBER_SECRETKEYBYTES - 2 * KYBER_SYMBYTES, KYBER_SYMBYTES);
     932:	02c9a023          	sw	a2,32(s3)
    sha3_512(kr, buf, 2 * KYBER_SYMBYTES);
     936:	85ce                	mv	a1,s3
     938:	04000613          	li	a2,64
     93c:	8556                	mv	a0,s5
    memcpy(buf + KYBER_SYMBYTES, sk + KYBER_SECRETKEYBYTES - 2 * KYBER_SYMBYTES, KYBER_SYMBYTES);
     93e:	03c9a223          	sw	t3,36(s3)
     942:	0269a423          	sw	t1,40(s3)
     946:	0319a623          	sw	a7,44(s3)
     94a:	0309a823          	sw	a6,48(s3)
     94e:	02d9aa23          	sw	a3,52(s3)
     952:	02e9ac23          	sw	a4,56(s3)
     956:	02f9ae23          	sw	a5,60(s3)
    sha3_512(kr, buf, 2 * KYBER_SYMBYTES);
     95a:	188010ef          	jal	ra,1ae2 <sha3_512>

    /* coins are in kr+KYBER_SYMBYTES */
    PQCLEAN_KYBER768_CLEAN_indcpa_enc(cmp, buf, pk, kr + KYBER_SYMBYTES);
     95e:	797d                	lui	s2,0xfffff
     960:	e0090913          	addi	s2,s2,-512 # ffffee00 <_sp+0xfff1e550>
     964:	460b0793          	addi	a5,s6,1120
     968:	97ca                	add	a5,a5,s2
     96a:	0818                	addi	a4,sp,16
     96c:	00e78933          	add	s2,a5,a4
     970:	480a0613          	addi	a2,s4,1152
     974:	854a                	mv	a0,s2
     976:	020a8693          	addi	a3,s5,32
     97a:	85ce                	mv	a1,s3
     97c:	6ba010ef          	jal	ra,2036 <PQCLEAN_KYBER768_CLEAN_indcpa_enc>
     980:	8a048793          	addi	a5,s1,-1888
     984:	460b0713          	addi	a4,s6,1120
     988:	973e                	add	a4,a4,a5
     98a:	081c                	addi	a5,sp,16
     98c:	97ba                	add	a5,a5,a4
     98e:	854a                	mv	a0,s2
     990:	44078613          	addi	a2,a5,1088
*
* Returns 0 if the byte arrays are equal, 1 otherwise
**************************************************/
int PQCLEAN_KYBER768_CLEAN_verify(const uint8_t *a, const uint8_t *b, size_t len) {
    size_t i;
    uint8_t r = 0;
     994:	4481                	li	s1,0

    for (i = 0; i < len; i++) {
        r |= a[i] ^ b[i];
     996:	0007c703          	lbu	a4,0(a5)
     99a:	00054683          	lbu	a3,0(a0)
    for (i = 0; i < len; i++) {
     99e:	0785                	addi	a5,a5,1
     9a0:	0505                	addi	a0,a0,1
        r |= a[i] ^ b[i];
     9a2:	8f35                	xor	a4,a4,a3
     9a4:	8cd9                	or	s1,s1,a4
    for (i = 0; i < len; i++) {
     9a6:	fef618e3          	bne	a2,a5,996 <main+0x780>
void shake128_inc_ctx_release(shake128incctx *state) {
    free(state->ctx);
}

void shake256_inc_init(shake256incctx *state) {
    state->ctx = malloc(PQC_SHAKEINCCTX_BYTES);
     9aa:	0d000513          	li	a0,208
     9ae:	238030ef          	jal	ra,3be6 <malloc>
    }

    return (-(uint64_t)r) >> 63;
     9b2:	009034b3          	snez	s1,s1
     9b6:	892a                	mv	s2,a0
    if (state->ctx == NULL) {
     9b8:	22050763          	beqz	a0,be6 <main+0x9d0>
        s_inc[i] = 0;
     9bc:	0c800613          	li	a2,200
     9c0:	4581                	li	a1,0
     9c2:	3f2020ef          	jal	ra,2db4 <memset>
    }
    keccak_inc_init(state->ctx);
}

void shake256_inc_absorb(shake256incctx *state, const uint8_t *input, size_t inlen) {
    keccak_inc_absorb(state->ctx, SHAKE256_RATE, input, inlen);
     9c6:	79f9                	lui	s3,0xffffe
     9c8:	6a0d                	lui	s4,0x3
     9ca:	4a098593          	addi	a1,s3,1184 # ffffe4a0 <_sp+0xfff1dbf0>
     9ce:	460a0793          	addi	a5,s4,1120 # 3460 <_fflush_r+0x4c>
     9d2:	0818                	addi	a4,sp,16
     9d4:	97ae                	add	a5,a5,a1
     9d6:	00e785b3          	add	a1,a5,a4
     9da:	6785                	lui	a5,0x1
     9dc:	94078793          	addi	a5,a5,-1728 # 940 <main+0x72a>
     9e0:	95be                	add	a1,a1,a5
    s_inc[25] = 0;
     9e2:	4801                	li	a6,0
     9e4:	4781                	li	a5,0
    keccak_inc_absorb(state->ctx, SHAKE256_RATE, input, inlen);
     9e6:	02000613          	li	a2,32
     9ea:	854a                	mv	a0,s2
    s_inc[25] = 0;
     9ec:	0cf92423          	sw	a5,200(s2)
     9f0:	0d092623          	sw	a6,204(s2)
    keccak_inc_absorb(state->ctx, SHAKE256_RATE, input, inlen);
     9f4:	16c010ef          	jal	ra,1b60 <keccak_inc_absorb.constprop.0>
     9f8:	8a098593          	addi	a1,s3,-1888
     9fc:	460a0793          	addi	a5,s4,1120
     a00:	97ae                	add	a5,a5,a1
     a02:	0818                	addi	a4,sp,16
     a04:	00e785b3          	add	a1,a5,a4
     a08:	44000613          	li	a2,1088
     a0c:	854a                	mv	a0,s2
     a0e:	152010ef          	jal	ra,1b60 <keccak_inc_absorb.constprop.0>
    s_inc[s_inc[25] >> 3] ^= (uint64_t)p << (8 * (s_inc[25] & 0x07));
     a12:	0c892783          	lw	a5,200(s2)
     a16:	0077f713          	andi	a4,a5,7
     a1a:	070e                	slli	a4,a4,0x3
     a1c:	9be1                	andi	a5,a5,-8
     a1e:	fe070693          	addi	a3,a4,-32
     a22:	97ca                	add	a5,a5,s2
     a24:	1a06c663          	bltz	a3,bd0 <main+0x9ba>
     a28:	467d                	li	a2,31
     a2a:	00d61633          	sll	a2,a2,a3
     a2e:	4581                	li	a1,0
     a30:	4394                	lw	a3,0(a5)
     a32:	43d8                	lw	a4,4(a5)
    h += i;
     a34:	7a75                	lui	s4,0xffffd
    s_inc[s_inc[25] >> 3] ^= (uint64_t)p << (8 * (s_inc[25] & 0x07));
     a36:	8ead                	xor	a3,a3,a1
     a38:	8f31                	xor	a4,a4,a2
     a3a:	c3d8                	sw	a4,4(a5)
     a3c:	c394                	sw	a3,0(a5)
    s_inc[(r - 1) >> 3] ^= (uint64_t)128 << (8 * ((r - 1) & 0x07));
     a3e:	08492783          	lw	a5,132(s2)
     a42:	80000737          	lui	a4,0x80000
    h += i;
     a46:	2a0a0a13          	addi	s4,s4,672 # ffffd2a0 <_sp+0xfff1c9f0>
    s_inc[(r - 1) >> 3] ^= (uint64_t)128 << (8 * ((r - 1) & 0x07));
     a4a:	8fb9                	xor	a5,a5,a4
     a4c:	08f92223          	sw	a5,132(s2)
    s_inc[25] = 0;
     a50:	4781                	li	a5,0
     a52:	0cf92423          	sw	a5,200(s2)
    h += i;
     a56:	678d                	lui	a5,0x3
     a58:	46078793          	addi	a5,a5,1120 # 3460 <_fflush_r+0x4c>
    s_inc[25] = 0;
     a5c:	4801                	li	a6,0
    h += i;
     a5e:	97d2                	add	a5,a5,s4
     a60:	0818                	addi	a4,sp,16
    s_inc[25] = 0;
     a62:	0d092623          	sw	a6,204(s2)
    outlen -= i;
     a66:	02000993          	li	s3,32
    h += i;
     a6a:	00e78a33          	add	s4,a5,a4
            h[i] = (uint8_t)(s_inc[i >> 3] >> (8 * (i & 0x07)));
     a6e:	4b7d                	li	s6,31
        for (i = 0; i < outlen && i < r; i++) {
     a70:	08800a93          	li	s5,136
        keccak_ip_driver(s_inc, s_inc);
     a74:	85ca                	mv	a1,s2
     a76:	854a                	mv	a0,s2
     a78:	559000ef          	jal	ra,17d0 <keccak_ip_driver>
        for (i = 0; i < outlen && i < r; i++) {
     a7c:	4781                	li	a5,0
     a7e:	a819                	j	a94 <main+0x87e>
            h[i] = (uint8_t)(s_inc[i >> 3] >> (8 * (i & 0x07)));
     a80:	4358                	lw	a4,4(a4)
        for (i = 0; i < outlen && i < r; i++) {
     a82:	0785                	addi	a5,a5,1
            h[i] = (uint8_t)(s_inc[i >> 3] >> (8 * (i & 0x07)));
     a84:	00c75733          	srl	a4,a4,a2
     a88:	00e58023          	sb	a4,0(a1)
        for (i = 0; i < outlen && i < r; i++) {
     a8c:	0337ff63          	bgeu	a5,s3,aca <main+0x8b4>
     a90:	13578e63          	beq	a5,s5,bcc <main+0x9b6>
            h[i] = (uint8_t)(s_inc[i >> 3] >> (8 * (i & 0x07)));
     a94:	0077f693          	andi	a3,a5,7
     a98:	068e                	slli	a3,a3,0x3
     a9a:	ff87f713          	andi	a4,a5,-8
     a9e:	fe068613          	addi	a2,a3,-32
     aa2:	00fa05b3          	add	a1,s4,a5
     aa6:	974a                	add	a4,a4,s2
     aa8:	fc065ce3          	bgez	a2,a80 <main+0x86a>
     aac:	4350                	lw	a2,4(a4)
     aae:	4318                	lw	a4,0(a4)
     ab0:	40db0533          	sub	a0,s6,a3
     ab4:	0606                	slli	a2,a2,0x1
     ab6:	00a61633          	sll	a2,a2,a0
     aba:	00d75733          	srl	a4,a4,a3
     abe:	8f51                	or	a4,a4,a2
     ac0:	00e58023          	sb	a4,0(a1)
        for (i = 0; i < outlen && i < r; i++) {
     ac4:	0785                	addi	a5,a5,1
     ac6:	fd37e5e3          	bltu	a5,s3,a90 <main+0x87a>
        s_inc[25] = r - i;
     aca:	40fa8733          	sub	a4,s5,a5
        outlen -= i;
     ace:	40f989b3          	sub	s3,s3,a5
        s_inc[25] = r - i;
     ad2:	0ce92423          	sw	a4,200(s2)
     ad6:	0c092623          	sw	zero,204(s2)
        h += i;
     ada:	9a3e                	add	s4,s4,a5
    while (outlen > 0) {
     adc:	f8099ce3          	bnez	s3,a74 <main+0x85e>
    }
    memcpy(dest->ctx, src->ctx, PQC_SHAKEINCCTX_BYTES);
}

void shake256_inc_ctx_release(shake256incctx *state) {
    free(state->ctx);
     ae0:	854a                	mv	a0,s2
     ae2:	110030ef          	jal	ra,3bf2 <free>
     ae6:	670d                	lui	a4,0x3
     ae8:	7975                	lui	s2,0xffffd
     aea:	2a090913          	addi	s2,s2,672 # ffffd2a0 <_sp+0xfff1c9f0>
     aee:	46070793          	addi	a5,a4,1120 # 3460 <_fflush_r+0x4c>
     af2:	97ca                	add	a5,a5,s2
     af4:	0814                	addi	a3,sp,16
     af6:	7679                	lui	a2,0xffffe
     af8:	00d78933          	add	s2,a5,a3
     afc:	ea060613          	addi	a2,a2,-352 # ffffdea0 <_sp+0xfff1d5f0>
     b00:	46070793          	addi	a5,a4,1120
*              uint8_t b:        Condition bit; has to be in {0,1}
**************************************************/
void PQCLEAN_KYBER768_CLEAN_cmov(uint8_t *r, const uint8_t *x, size_t len, uint8_t b) {
    size_t i;

    b = -b;
     b04:	fff48593          	addi	a1,s1,-1
     b08:	97b2                	add	a5,a5,a2
     b0a:	0ff5f593          	zext.b	a1,a1
     b0e:	00d78633          	add	a2,a5,a3
     b12:	02090993          	addi	s3,s2,32
     b16:	874a                	mv	a4,s2
    for (i = 0; i < len; i++) {
        r[i] ^= b & (r[i] ^ x[i]);
     b18:	00074683          	lbu	a3,0(a4)
     b1c:	00064783          	lbu	a5,0(a2)
    for (i = 0; i < len; i++) {
     b20:	0705                	addi	a4,a4,1
     b22:	0605                	addi	a2,a2,1
        r[i] ^= b & (r[i] ^ x[i]);
     b24:	8fb5                	xor	a5,a5,a3
     b26:	8fed                	and	a5,a5,a1
     b28:	8ebd                	xor	a3,a3,a5
     b2a:	fed70fa3          	sb	a3,-1(a4)
    for (i = 0; i < len; i++) {
     b2e:	fee995e3          	bne	s3,a4,b18 <main+0x902>
    crypto_kem_dec(key_a, sendb, sk_a);
    CSR_READ(CSR_REG_MCYCLE, &cycles_dec);
     b32:	b00025f3          	csrr	a1,mcycle
    printf("Number of clock cycles dec: %d\n", cycles_dec);
     b36:	00080537          	lui	a0,0x80
     b3a:	13450513          	addi	a0,a0,308 # 80134 <no_exception_handler_msg+0x9f>
     b3e:	10e030ef          	jal	ra,3c4c <iprintf>
    
    printbytes(key_a, CRYPTO_BYTES);
     b42:	74f5                	lui	s1,0xffffd
     b44:	6a0d                	lui	s4,0x3
     b46:	2a048513          	addi	a0,s1,672 # ffffd2a0 <_sp+0xfff1c9f0>
     b4a:	460a0793          	addi	a5,s4,1120 # 3460 <_fflush_r+0x4c>
     b4e:	97aa                	add	a5,a5,a0
     b50:	0818                	addi	a4,sp,16
     b52:	00e78533          	add	a0,a5,a4
     b56:	14f010ef          	jal	ra,24a4 <printbytes.constprop.0>
    printbytes(key_b, CRYPTO_BYTES);
     b5a:	ba048493          	addi	s1,s1,-1120
     b5e:	460a0793          	addi	a5,s4,1120
     b62:	97a6                	add	a5,a5,s1
     b64:	0818                	addi	a4,sp,16
     b66:	00e784b3          	add	s1,a5,a4
     b6a:	8526                	mv	a0,s1
     b6c:	139010ef          	jal	ra,24a4 <printbytes.constprop.0>


    for (j = 0; j < CRYPTO_BYTES; j++) {
     b70:	8526                	mv	a0,s1
     b72:	a029                	j	b7c <main+0x966>
     b74:	0905                	addi	s2,s2,1
     b76:	0505                	addi	a0,a0,1
     b78:	07298563          	beq	s3,s2,be2 <main+0x9cc>
        if (key_a[j] != key_b[j]) {
     b7c:	00094703          	lbu	a4,0(s2)
     b80:	00054783          	lbu	a5,0(a0)
     b84:	fef708e3          	beq	a4,a5,b74 <main+0x95e>
            printf("ERROR\n");
     b88:	00080537          	lui	a0,0x80
     b8c:	15450513          	addi	a0,a0,340 # 80154 <no_exception_handler_msg+0xbf>
     b90:	312020ef          	jal	ra,2ea2 <puts>
            return -1;
     b94:	557d                	li	a0,-1
        }
    }

    //printf("Ends testvectors KEM!\n");
    return 0;
}
     b96:	628d                	lui	t0,0x3
     b98:	9116                	add	sp,sp,t0
     b9a:	49c12083          	lw	ra,1180(sp)
     b9e:	49812483          	lw	s1,1176(sp)
     ba2:	49412903          	lw	s2,1172(sp)
     ba6:	49012983          	lw	s3,1168(sp)
     baa:	48c12a03          	lw	s4,1164(sp)
     bae:	48812a83          	lw	s5,1160(sp)
     bb2:	48412b03          	lw	s6,1156(sp)
     bb6:	48012b83          	lw	s7,1152(sp)
     bba:	47c12c03          	lw	s8,1148(sp)
     bbe:	47812c83          	lw	s9,1144(sp)
     bc2:	47412d03          	lw	s10,1140(sp)
     bc6:	4a010113          	addi	sp,sp,1184
     bca:	8082                	ret
     bcc:	4701                	li	a4,0
     bce:	b701                	j	ace <main+0x8b8>
    s_inc[s_inc[25] >> 3] ^= (uint64_t)p << (8 * (s_inc[25] & 0x07));
     bd0:	45fd                	li	a1,31
     bd2:	40e586b3          	sub	a3,a1,a4
     bd6:	463d                	li	a2,15
     bd8:	00d65633          	srl	a2,a2,a3
     bdc:	00e595b3          	sll	a1,a1,a4
     be0:	bd81                	j	a30 <main+0x81a>
    return 0;
     be2:	4501                	li	a0,0
     be4:	bf4d                	j	b96 <main+0x980>
        exit(111);
     be6:	06f00513          	li	a0,111
     bea:	e02ff0ef          	jal	ra,1ec <exit>

00000bee <__no_irq_handler>:
/*	j __no_irq_handler */

.section .text.vecs
/* exception handling */
__no_irq_handler:
	la a0, no_exception_handler_msg
     bee:	0007f517          	auipc	a0,0x7f
     bf2:	4a750513          	addi	a0,a0,1191 # 80095 <no_exception_handler_msg>
	jal ra, puts
     bf6:	2ac020ef          	jal	ra,2ea2 <puts>
	j __no_irq_handler
     bfa:	ff5ff06f          	j	bee <__no_irq_handler>

00000bfe <sw_irq_handler>:


sw_irq_handler:
	csrr t0, mcause
     bfe:	342022f3          	csrr	t0,mcause
	slli t0, t0, 1  /* shift off the high bit */
     c02:	00129293          	slli	t0,t0,0x1
	srli t0, t0, 1
     c06:	0012d293          	srli	t0,t0,0x1
	li t1, 2
     c0a:	00200313          	li	t1,2
	beq t0, t1, handle_illegal_insn
     c0e:	02628c63          	beq	t0,t1,c46 <handle_illegal_insn>
	li t1, 11
     c12:	00b00313          	li	t1,11
	beq t0, t1, handle_ecall
     c16:	00628863          	beq	t0,t1,c26 <handle_ecall>
	li t1, 3
     c1a:	00300313          	li	t1,3
	beq t0, t1, handle_ebreak
     c1e:	00628c63          	beq	t0,t1,c36 <handle_ebreak>
	j handle_unknown
     c22:	0340006f          	j	c56 <handle_unknown>

00000c26 <handle_ecall>:

handle_ecall:
	la a0, ecall_msg
     c26:	0007f517          	auipc	a0,0x7f
     c2a:	40950513          	addi	a0,a0,1033 # 8002f <ecall_msg>
	jal ra, puts
     c2e:	274020ef          	jal	ra,2ea2 <puts>
	j end_handler
     c32:	0340006f          	j	c66 <end_handler>

00000c36 <handle_ebreak>:

handle_ebreak:
	la a0, ebreak_msg
     c36:	0007f517          	auipc	a0,0x7f
     c3a:	41a50513          	addi	a0,a0,1050 # 80050 <ebreak_msg>
	jal ra, puts
     c3e:	264020ef          	jal	ra,2ea2 <puts>
	j end_handler
     c42:	0240006f          	j	c66 <end_handler>

00000c46 <handle_illegal_insn>:

handle_illegal_insn:
	la a0, illegal_insn_msg
     c46:	0007f517          	auipc	a0,0x7f
     c4a:	3ba50513          	addi	a0,a0,954 # 80000 <illegal_insn_msg>
	jal ra, puts
     c4e:	254020ef          	jal	ra,2ea2 <puts>
	j end_handler
     c52:	0140006f          	j	c66 <end_handler>

00000c56 <handle_unknown>:

handle_unknown:
	la a0, unknown_msg
     c56:	0007f517          	auipc	a0,0x7f
     c5a:	41c50513          	addi	a0,a0,1052 # 80072 <unknown_msg>
	jal ra, puts
     c5e:	244020ef          	jal	ra,2ea2 <puts>
	j end_handler
     c62:	0040006f          	j	c66 <end_handler>

00000c66 <end_handler>:

end_handler:
	csrr a0, mepc
     c66:	34102573          	csrr	a0,mepc
	addi a0, a0, 4
     c6a:	00450513          	addi	a0,a0,4
	csrw mepc, a0
     c6e:	34151073          	csrw	mepc,a0
	mret
     c72:	30200073          	mret

00000c76 <verification_irq_handler>:
/* this interrupt can be generated for verification purposes, random or when the PC is equal to a given value*/
verification_irq_handler:
	mret
     c76:	30200073          	mret

00000c7a <handler_irq_uart>:
size_t uart_sink(void *uart, const char *data, size_t len) {
  return uart_write((const uart_t *)uart, (const uint8_t *)data, len);
}

__attribute__((weak, optimize("O0"))) void handler_irq_uart(uint32_t id)
{
     c7a:	1101                	addi	sp,sp,-32
     c7c:	ce22                	sw	s0,28(sp)
     c7e:	1000                	addi	s0,sp,32
     c80:	fea42623          	sw	a0,-20(s0)
 // Replace this function with a non-weak implementation
     c84:	0001                	nop
     c86:	4472                	lw	s0,28(sp)
     c88:	6105                	addi	sp,sp,32
     c8a:	8082                	ret

00000c8c <handler_irq_dummy>:
/*                            LOCAL FUNCTIONS                               */
/**                                                                        **/
/****************************************************************************/

__attribute__((optimize("O0"))) static void handler_irq_dummy( uint32_t dummy )
{
     c8c:	1101                	addi	sp,sp,-32
     c8e:	ce22                	sw	s0,28(sp)
     c90:	1000                	addi	s0,sp,32
     c92:	fea42623          	sw	a0,-20(s0)
}
     c96:	0001                	nop
     c98:	4472                	lw	s0,28(sp)
     c9a:	6105                	addi	sp,sp,32
     c9c:	8082                	ret

00000c9e <gpio_handler_irq_dummy>:
/*                            LOCAL FUNCTIONS                               */
/**                                                                        **/
/****************************************************************************/

__attribute__((optimize("O0"))) static void gpio_handler_irq_dummy( uint32_t dummy )
{
     c9e:	1101                	addi	sp,sp,-32
     ca0:	ce22                	sw	s0,28(sp)
     ca2:	1000                	addi	s0,sp,32
     ca4:	fea42623          	sw	a0,-20(s0)
  return;
     ca8:	0001                	nop
}
     caa:	4472                	lw	s0,28(sp)
     cac:	6105                	addi	sp,sp,32
     cae:	8082                	ret

00000cb0 <handler_irq_i2c>:
     cb0:	1101                	addi	sp,sp,-32
     cb2:	ce22                	sw	s0,28(sp)
     cb4:	1000                	addi	s0,sp,32
     cb6:	fea42623          	sw	a0,-20(s0)
     cba:	fec42503          	lw	a0,-20(s0)
     cbe:	4472                	lw	s0,28(sp)
     cc0:	6105                	addi	sp,sp,32
     cc2:	bf65                	j	c7a <handler_irq_uart>

00000cc4 <fic_irq_timer_1>:
    fast_intr_ctrl_peri->FAST_INTR_CLEAR = reg;
    return kFastIntrCtrlOk_e;
}

__attribute__((weak, optimize("O0"))) void fic_irq_timer_1(void)
{
     cc4:	1141                	addi	sp,sp,-16
     cc6:	c622                	sw	s0,12(sp)
     cc8:	0800                	addi	s0,sp,16
    /* Users should implement their non-weak version */
}
     cca:	0001                	nop
     ccc:	4432                	lw	s0,12(sp)
     cce:	0141                	addi	sp,sp,16
     cd0:	8082                	ret

00000cd2 <fic_irq_timer_2>:
     cd2:	1141                	addi	sp,sp,-16
     cd4:	c622                	sw	s0,12(sp)
     cd6:	0800                	addi	s0,sp,16
     cd8:	4432                	lw	s0,12(sp)
     cda:	0141                	addi	sp,sp,16
     cdc:	b7e5                	j	cc4 <fic_irq_timer_1>

00000cde <fic_irq_timer_3>:
     cde:	1141                	addi	sp,sp,-16
     ce0:	c622                	sw	s0,12(sp)
     ce2:	0800                	addi	s0,sp,16
     ce4:	4432                	lw	s0,12(sp)
     ce6:	0141                	addi	sp,sp,16
     ce8:	bff1                	j	cc4 <fic_irq_timer_1>

00000cea <fic_irq_spi>:
     cea:	1141                	addi	sp,sp,-16
     cec:	c622                	sw	s0,12(sp)
     cee:	0800                	addi	s0,sp,16
     cf0:	4432                	lw	s0,12(sp)
     cf2:	0141                	addi	sp,sp,16
     cf4:	bfc1                	j	cc4 <fic_irq_timer_1>

00000cf6 <fic_irq_spi_flash>:
     cf6:	1141                	addi	sp,sp,-16
     cf8:	c622                	sw	s0,12(sp)
     cfa:	0800                	addi	s0,sp,16
     cfc:	4432                	lw	s0,12(sp)
     cfe:	0141                	addi	sp,sp,16
     d00:	b7d1                	j	cc4 <fic_irq_timer_1>

00000d02 <fic_irq_gpio_0>:
     d02:	1141                	addi	sp,sp,-16
     d04:	c622                	sw	s0,12(sp)
     d06:	0800                	addi	s0,sp,16
     d08:	4432                	lw	s0,12(sp)
     d0a:	0141                	addi	sp,sp,16
     d0c:	bf65                	j	cc4 <fic_irq_timer_1>

00000d0e <fic_irq_gpio_1>:
     d0e:	1141                	addi	sp,sp,-16
     d10:	c622                	sw	s0,12(sp)
     d12:	0800                	addi	s0,sp,16
     d14:	4432                	lw	s0,12(sp)
     d16:	0141                	addi	sp,sp,16
     d18:	b775                	j	cc4 <fic_irq_timer_1>

00000d1a <fic_irq_gpio_2>:
     d1a:	1141                	addi	sp,sp,-16
     d1c:	c622                	sw	s0,12(sp)
     d1e:	0800                	addi	s0,sp,16
     d20:	4432                	lw	s0,12(sp)
     d22:	0141                	addi	sp,sp,16
     d24:	b745                	j	cc4 <fic_irq_timer_1>

00000d26 <fic_irq_gpio_3>:
     d26:	1141                	addi	sp,sp,-16
     d28:	c622                	sw	s0,12(sp)
     d2a:	0800                	addi	s0,sp,16
     d2c:	4432                	lw	s0,12(sp)
     d2e:	0141                	addi	sp,sp,16
     d30:	bf51                	j	cc4 <fic_irq_timer_1>

00000d32 <fic_irq_gpio_4>:
     d32:	1141                	addi	sp,sp,-16
     d34:	c622                	sw	s0,12(sp)
     d36:	0800                	addi	s0,sp,16
     d38:	4432                	lw	s0,12(sp)
     d3a:	0141                	addi	sp,sp,16
     d3c:	b761                	j	cc4 <fic_irq_timer_1>

00000d3e <fic_irq_gpio_5>:
     d3e:	1141                	addi	sp,sp,-16
     d40:	c622                	sw	s0,12(sp)
     d42:	0800                	addi	s0,sp,16
     d44:	4432                	lw	s0,12(sp)
     d46:	0141                	addi	sp,sp,16
     d48:	bfb5                	j	cc4 <fic_irq_timer_1>

00000d4a <fic_irq_gpio_6>:
     d4a:	1141                	addi	sp,sp,-16
     d4c:	c622                	sw	s0,12(sp)
     d4e:	0800                	addi	s0,sp,16
     d50:	4432                	lw	s0,12(sp)
     d52:	0141                	addi	sp,sp,16
     d54:	bf85                	j	cc4 <fic_irq_timer_1>

00000d56 <fic_irq_gpio_7>:
     d56:	1141                	addi	sp,sp,-16
     d58:	c622                	sw	s0,12(sp)
     d5a:	0800                	addi	s0,sp,16
     d5c:	4432                	lw	s0,12(sp)
     d5e:	0141                	addi	sp,sp,16
     d60:	b795                	j	cc4 <fic_irq_timer_1>

00000d62 <handler_irq_spi>:
     d62:	1101                	addi	sp,sp,-32
     d64:	ce22                	sw	s0,28(sp)
     d66:	1000                	addi	s0,sp,32
     d68:	fea42623          	sw	a0,-20(s0)
     d6c:	fec42503          	lw	a0,-20(s0)
     d70:	4472                	lw	s0,28(sp)
     d72:	6105                	addi	sp,sp,32
     d74:	b719                	j	c7a <handler_irq_uart>

00000d76 <handler_irq_gpio>:
    gpio_handlers[ id - GPIO_INTR_START ]();
     d76:	4781                	li	a5,0
     d78:	8782                	jr	a5

00000d7a <dma_intr_handler_trans_done>:
    return (dma_cb.peri->STATUS & (1U << DMA_STATUS_READY_BIT));
}

__attribute__((weak, optimize("O3"))) void dma_intr_handler_trans_done()
{
}
     d7a:	8082                	ret

00000d7c <handler_irq_dma>:
}
     d7c:	8082                	ret

00000d7e <init_athos>:
    (&rv_plic_peri->LE0)[i] = 0;
     d7e:	300007b7          	lui	a5,0x30000
     d82:	0007a423          	sw	zero,8(a5) # 30000008 <_sp+0x2ff1f758>
  for(uint8_t i=0; i<RV_PLIC_PARAM_NUM_SRC; i++)
     d86:	300006b7          	lui	a3,0x30000
    (&rv_plic_peri->LE0)[i] = 0;
     d8a:	0007a623          	sw	zero,12(a5)
  for(uint8_t i=0; i<RV_PLIC_PARAM_NUM_SRC; i++)
     d8e:	11068713          	addi	a4,a3,272 # 30000110 <_sp+0x2ff1f860>
    (&rv_plic_peri->LE0)[i] = 0;
     d92:	07c1                	addi	a5,a5,16
    (&rv_plic_peri->PRIO0)[i] = 0;
     d94:	0007a023          	sw	zero,0(a5)
  for(uint8_t i=0; i<RV_PLIC_PARAM_NUM_SRC; i++)
     d98:	0791                	addi	a5,a5,4
     d9a:	fee79de3          	bne	a5,a4,d94 <init_athos+0x16>
    (&rv_plic_peri->IE00)[i] = 0;
     d9e:	2006a023          	sw	zero,512(a3)
     da2:	2006a223          	sw	zero,516(a3)
  rv_plic_peri->THRESHOLD0 = 0;
     da6:	2006a423          	sw	zero,520(a3)
  if(rv_plic_peri->THRESHOLD0 != 0)
     daa:	2086a783          	lw	a5,520(a3)
     dae:	e791                	bnez	a5,dba <init_athos+0x3c>
  rv_plic_peri->MSIP0 = 0;
     db0:	2006a823          	sw	zero,528(a3)
  if(rv_plic_peri->MSIP0 != 0)
     db4:	2106a783          	lw	a5,528(a3)
     db8:	c391                	beqz	a5,dbc <init_athos+0x3e>
     dba:	8082                	ret
  handlers[NULL_INTR] = &handler_irq_dummy;
     dbc:	00080eb7          	lui	t4,0x80
     dc0:	6f05                	lui	t5,0x1

// Interrupt controller variables
plic_result_t plic_res;

void init_athos()
{
     dc2:	1141                	addi	sp,sp,-16
     dc4:	6c8e8e93          	addi	t4,t4,1736 # 806c8 <handlers>
     dc8:	c8cf0f13          	addi	t5,t5,-884 # c8c <handler_irq_dummy>
      handlers[i] = &handler_irq_i2c;
     dcc:	6885                	lui	a7,0x1
      handlers[i] = &handler_irq_gpio;
     dce:	6505                	lui	a0,0x1
      handlers[i] = &handler_irq_uart;
     dd0:	6305                	lui	t1,0x1
     dd2:	c626                	sw	s1,12(sp)
     dd4:	c44a                	sw	s2,8(sp)
     dd6:	c24e                	sw	s3,4(sp)
  handlers[NULL_INTR] = &handler_irq_dummy;
     dd8:	01eea023          	sw	t5,0(t4)
  for( uint8_t i = NULL_INTR +1; i < QTY_INTR; i++ )
     ddc:	004e8713          	addi	a4,t4,4
  handlers[NULL_INTR] = &handler_irq_dummy;
     de0:	4785                	li	a5,1
     de2:	4481                	li	s1,0
     de4:	4981                	li	s3,0
     de6:	4901                	li	s2,0
    if ( i <= UART_ID_END)
     de8:	4621                	li	a2,8
    else if ( i <= GPIO_ID_END)
     dea:	02000593          	li	a1,32
    else if ( i <= I2C_ID_END)
     dee:	03000813          	li	a6,48
    else if ( i == SPI_ID)
     df2:	03100e13          	li	t3,49
    else if ( i == I2S_ID)
     df6:	03200f93          	li	t6,50
    else if ( i == DMA_ID)
     dfa:	03300293          	li	t0,51
  for( uint8_t i = NULL_INTR +1; i < QTY_INTR; i++ )
     dfe:	03f00393          	li	t2,63
      handlers[i] = &handler_irq_i2c;
     e02:	cb088893          	addi	a7,a7,-848 # cb0 <handler_irq_i2c>
      handlers[i] = &handler_irq_gpio;
     e06:	d7650513          	addi	a0,a0,-650 # d76 <handler_irq_gpio>
      handlers[i] = &handler_irq_uart;
     e0a:	c7a30313          	addi	t1,t1,-902 # c7a <handler_irq_uart>
     e0e:	a021                	j	e16 <init_athos+0x98>
      handlers[i] = &handler_irq_gpio;
     e10:	c308                	sw	a0,0(a4)
     e12:	0785                	addi	a5,a5,1
     e14:	0711                	addi	a4,a4,4
    if ( i <= UART_ID_END)
     e16:	0ff7f693          	zext.b	a3,a5
     e1a:	00f67963          	bgeu	a2,a5,e2c <init_athos+0xae>
    else if ( i <= GPIO_ID_END)
     e1e:	fed5f9e3          	bgeu	a1,a3,e10 <init_athos+0x92>
    else if ( i <= I2C_ID_END)
     e22:	00d86863          	bltu	a6,a3,e32 <init_athos+0xb4>
      handlers[i] = &handler_irq_i2c;
     e26:	01172023          	sw	a7,0(a4)
     e2a:	b7e5                	j	e12 <init_athos+0x94>
      handlers[i] = &handler_irq_uart;
     e2c:	00672023          	sw	t1,0(a4)
     e30:	b7cd                	j	e12 <init_athos+0x94>
    else if ( i == SPI_ID)
     e32:	0dc68663          	beq	a3,t3,efe <init_athos+0x180>
    else if ( i == I2S_ID)
     e36:	0df68663          	beq	a3,t6,f02 <init_athos+0x184>
    else if ( i == DMA_ID)
     e3a:	0c568663          	beq	a3,t0,f06 <init_athos+0x188>
      handlers[i] = &handler_irq_dummy;
     e3e:	01e72023          	sw	t5,0(a4)
  for( uint8_t i = NULL_INTR +1; i < QTY_INTR; i++ )
     e42:	fc7698e3          	bne	a3,t2,e12 <init_athos+0x94>
     e46:	c491                	beqz	s1,e52 <init_athos+0xd4>
     e48:	6785                	lui	a5,0x1
     e4a:	d7c78793          	addi	a5,a5,-644 # d7c <handler_irq_dma>
     e4e:	0cfea623          	sw	a5,204(t4)
     e52:	00098663          	beqz	s3,e5e <init_athos+0xe0>
     e56:	00000793          	li	a5,0
     e5a:	0cfea423          	sw	a5,200(t4)
     e5e:	00090763          	beqz	s2,e6c <init_athos+0xee>
     e62:	6785                	lui	a5,0x1
     e64:	d6278793          	addi	a5,a5,-670 # d62 <handler_irq_spi>
     e68:	0cfea223          	sw	a5,196(t4)
  (&rv_plic_peri->PRIO0)[irq] = priority;
     e6c:	300007b7          	lui	a5,0x30000
     e70:	0e078713          	addi	a4,a5,224 # 300000e0 <_sp+0x2ff1f830>
     e74:	4685                	li	a3,1
     e76:	c314                	sw	a3,0(a4)
  (&rv_plic_peri->IE00)[offset] = bitfield_write((&rv_plic_peri->IE00)[offset],
     e78:	20478793          	addi	a5,a5,516
     e7c:	4398                	lw	a4,0(a5)
inline uint32_t bitfield_write(uint32_t bitfield,
                                       uint32_t mask, 
                                       uint32_t index,
                                       uint32_t value) 
{
  bitfield &= ~(mask << index);
     e7e:	fff006b7          	lui	a3,0xfff00
     e82:	16fd                	addi	a3,a3,-1
     e84:	8f75                	and	a4,a4,a3
  bitfield |= (value & mask) << index;
     e86:	001006b7          	lui	a3,0x100
     e8a:	8f55                	or	a4,a4,a3
     e8c:	c398                	sw	a4,0(a5)
  // Enable the interrupt in reg 0 
  plic_res = plic_irq_set_enabled(EXT_INTR_0, kPlicToggleEnabled);

  // Enable interrupt on processor side
  // Enable global interrupt for machine-level interrupts
  CSR_SET_BITS(CSR_REG_MSTATUS, 0x8);
     e8e:	4621                	li	a2,8
     e90:	30062073          	csrs	mstatus,a2
  // Set mie.MEIE bit to one to enable machine-level external interrupts
  const uint32_t mask = 1 << 11;//IRQ_EXT_ENABLE_OFFSET;
  CSR_SET_BITS(CSR_REG_MIE, mask);
     e94:	6705                	lui	a4,0x1
     e96:	80070793          	addi	a5,a4,-2048 # 800 <main+0x5ea>
     e9a:	3047a073          	csrs	mie,a5
    dma_cb.peri = dma_peri;
     e9e:	000806b7          	lui	a3,0x80
     ea2:	200607b7          	lui	a5,0x20060
     ea6:	6bc68693          	addi	a3,a3,1724 # 806bc <dma_cb>
     eaa:	c69c                	sw	a5,8(a3)
    dma_cb.trans = NULL;
     eac:	0006a023          	sw	zero,0(a3)
    dma_cb.peri->SRC_PTR       = 0;
     eb0:	0007a023          	sw	zero,0(a5) # 20060000 <_sp+0x1ff7f750>
    dma_cb.peri->DST_PTR       = 0;
     eb4:	0007a223          	sw	zero,4(a5)
    dma_cb.peri->SIZE          = 0;
     eb8:	0007a623          	sw	zero,12(a5)
    dma_cb.peri->PTR_INC       = 0;
     ebc:	0007aa23          	sw	zero,20(a5)
    dma_cb.peri->SLOT          = 0;
     ec0:	0007ac23          	sw	zero,24(a5)
    dma_cb.peri->DATA_TYPE     = 0;
     ec4:	0007ae23          	sw	zero,28(a5)
    dma_cb.peri->MODE          = 0;
     ec8:	0207a023          	sw	zero,32(a5)
    dma_cb.peri->WINDOW_SIZE   = 0;
     ecc:	0207a223          	sw	zero,36(a5)
    dma_cb.peri->INTERRUPT_EN  = 0;
     ed0:	0207a623          	sw	zero,44(a5)
    CSR_CLEAR_BITS(CSR_REG_MIE, DMA_CSR_REG_MIE_MASK );
     ed4:	000817b7          	lui	a5,0x81
     ed8:	80078793          	addi	a5,a5,-2048 # 80800 <out+0x8>
     edc:	3047b073          	csrc	mie,a5
    CSR_SET_BITS(CSR_REG_MSTATUS, 0x8 );
     ee0:	30062073          	csrs	mstatus,a2
    CSR_SET_BITS(CSR_REG_MIE, DMA_CSR_REG_MIE_MASK );
     ee4:	3047a073          	csrs	mie,a5


  dma_init(NULL);

  //Making the TRNG starts
  *ctrl_reg = (1 << ATHOS_IP_CTRL_CTRL_C3_BIT) | (4 << ATHOS_IP_CTRL_CTRL_OPERATION_OFFSET);
     ee8:	200807b7          	lui	a5,0x20080
     eec:	0721                	addi	a4,a4,8
     eee:	c398                	sw	a4,0(a5)
  *ctrl_reg = (0 << ATHOS_IP_CTRL_CTRL_C3_BIT) | (0 << ATHOS_IP_CTRL_CTRL_OPERATION_OFFSET);
     ef0:	0007a023          	sw	zero,0(a5) # 20080000 <_sp+0x1ff9f750>




     ef4:	44b2                	lw	s1,12(sp)
     ef6:	4922                	lw	s2,8(sp)
     ef8:	4992                	lw	s3,4(sp)
     efa:	0141                	addi	sp,sp,16
     efc:	8082                	ret
     efe:	4905                	li	s2,1
     f00:	bf09                	j	e12 <init_athos+0x94>
     f02:	4985                	li	s3,1
     f04:	b739                	j	e12 <init_athos+0x94>
     f06:	4485                	li	s1,1
  for( uint8_t i = NULL_INTR +1; i < QTY_INTR; i++ )
     f08:	b729                	j	e12 <init_athos+0x94>

00000f0a <PQCLEAN_KYBER768_CLEAN_polyvec_tobytes>:
    for (i = 0; i < KYBER_K; i++) {
     f0a:	6785                	lui	a5,0x1
     f0c:	80078793          	addi	a5,a5,-2048 # 800 <main+0x5ea>
     f10:	20058813          	addi	a6,a1,512
     f14:	95be                	add	a1,a1,a5
    for (i = 0; i < KYBER_N / 2; i++) {
     f16:	e0080793          	addi	a5,a6,-512
void PQCLEAN_KYBER768_CLEAN_polyvec_tobytes(uint8_t r[KYBER_POLYVECBYTES], const polyvec *a) {
     f1a:	872a                	mv	a4,a0
        asm volatile (".insn r 0x0b, 0x006, 22, %[dst], %[src], %[src2]\r\n" : [dst] "=r" (r[3 * i + 0])  : [src] "r" (a->coeffs[2 * i]), [src2] "r" (a->coeffs[2 * i + 1]) :  );
     f1c:	0007d683          	lhu	a3,0(a5)
     f20:	0027d603          	lhu	a2,2(a5)
     f24:	2cc6e68b          	0x2cc6e68b
     f28:	00d70023          	sb	a3,0(a4)
        asm volatile (".insn r 0x0b, 0x006, 23, %[dst], %[src], %[src2]\r\n" : [dst] "=r" (r[3 * i + 1])  : [src] "r" (a->coeffs[2 * i]), [src2] "r" (a->coeffs[2 * i + 1]) :  );
     f2c:	0007d683          	lhu	a3,0(a5)
     f30:	0027d603          	lhu	a2,2(a5)
     f34:	2ec6e68b          	0x2ec6e68b
     f38:	00d700a3          	sb	a3,1(a4)
        asm volatile (".insn r 0x0b, 0x006, 24, %[dst], %[src], %[src2]\r\n" : [dst] "=r" (r[3 * i + 2])  : [src] "r" (a->coeffs[2 * i]), [src2] "r" (a->coeffs[2 * i + 1]) :  );
     f3c:	0007d683          	lhu	a3,0(a5)
     f40:	0027d603          	lhu	a2,2(a5)
     f44:	30c6e68b          	0x30c6e68b
     f48:	00d70123          	sb	a3,2(a4)
    for (i = 0; i < KYBER_N / 2; i++) {
     f4c:	0791                	addi	a5,a5,4
     f4e:	070d                	addi	a4,a4,3
     f50:	fd0796e3          	bne	a5,a6,f1c <PQCLEAN_KYBER768_CLEAN_polyvec_tobytes+0x12>
    for (i = 0; i < KYBER_K; i++) {
     f54:	20078813          	addi	a6,a5,512
     f58:	18050513          	addi	a0,a0,384
     f5c:	fab81de3          	bne	a6,a1,f16 <PQCLEAN_KYBER768_CLEAN_polyvec_tobytes+0xc>
}
     f60:	8082                	ret

00000f62 <PQCLEAN_KYBER768_CLEAN_polyvec_frombytes>:
    for (i = 0; i < KYBER_K; i++) {
     f62:	48058893          	addi	a7,a1,1152
    for (i = 0; i < KYBER_N / 2; i++) {
     f66:	10100813          	li	a6,257
        PQCLEAN_KYBER768_CLEAN_poly_frombytes(&r->vec[i], a + i * KYBER_POLYBYTES);
     f6a:	87ae                	mv	a5,a1
     f6c:	4685                	li	a3,1
        asm volatile (".insn r 0x0b, 0x006, 25, %[dst], %[src], %[src2]\r\n" : [dst] "=r" (r->coeffs[2 * i] )  : [src] "r" (a[3 * i + 0]), [src2] "r" (a[3 * i + 1]) :  );
     f6e:	0007c603          	lbu	a2,0(a5)
     f72:	0017c703          	lbu	a4,1(a5)
     f76:	32e6660b          	0x32e6660b
     f7a:	fff68713          	addi	a4,a3,-1
     f7e:	0706                	slli	a4,a4,0x1
     f80:	972a                	add	a4,a4,a0
     f82:	00c71023          	sh	a2,0(a4)
        asm volatile (".insn r 0x0b, 0x006, 26, %[dst], %[src], %[src2]\r\n" : [dst] "=r" (r->coeffs[2 * i + 1] )  : [src] "r" (a[3 * i + 1]), [src2] "r" (a[3 * i + 2]) :  );
     f86:	0017c603          	lbu	a2,1(a5)
     f8a:	0027c703          	lbu	a4,2(a5)
     f8e:	34e6660b          	0x34e6660b
     f92:	00169713          	slli	a4,a3,0x1
     f96:	972a                	add	a4,a4,a0
     f98:	00c71023          	sh	a2,0(a4)
    for (i = 0; i < KYBER_N / 2; i++) {
     f9c:	0689                	addi	a3,a3,2
     f9e:	078d                	addi	a5,a5,3
     fa0:	fd0697e3          	bne	a3,a6,f6e <PQCLEAN_KYBER768_CLEAN_polyvec_frombytes+0xc>
    for (i = 0; i < KYBER_K; i++) {
     fa4:	18058593          	addi	a1,a1,384
     fa8:	20050513          	addi	a0,a0,512
     fac:	fb159fe3          	bne	a1,a7,f6a <PQCLEAN_KYBER768_CLEAN_polyvec_frombytes+0x8>
}
     fb0:	8082                	ret

00000fb2 <PQCLEAN_KYBER768_CLEAN_poly_basemul_montgomery>:
    for (i = 0; i < KYBER_N / 4; i++) {
     fb2:	000808b7          	lui	a7,0x80
     fb6:	2c088893          	addi	a7,a7,704 # 802c0 <PQCLEAN_KYBER768_CLEAN_zetas>
     fba:	08288813          	addi	a6,a7,130
void PQCLEAN_KYBER768_CLEAN_poly_basemul_montgomery(poly *r, const poly *a, const poly *b) {
     fbe:	bb100713          	li	a4,-1103
     fc2:	10088893          	addi	a7,a7,256
     fc6:	a021                	j	fce <PQCLEAN_KYBER768_CLEAN_poly_basemul_montgomery+0x1c>
        PQCLEAN_KYBER768_CLEAN_basemul(&r->coeffs[4 * i], &a->coeffs[4 * i], &b->coeffs[4 * i], PQCLEAN_KYBER768_CLEAN_zetas[64 + i]);
     fc8:	00081703          	lh	a4,0(a6)
     fcc:	0809                	addi	a6,a6,2
    //r[0]  = fqmul(r[0], zeta);
    //r[0] += fqmul(a[0], b[0]);
    //r[1]  = fqmul(a[0], b[1]);
    //r[1] += fqmul(a[1], b[0]);

    asm volatile (".insn r 0x0b, 0x003, 2, %[dst], %[src], x0\r\n" : [dst] "=r" (r0) : [src] "r" ((int32_t)a[1] * b[1]) : );
     fce:	00259783          	lh	a5,2(a1)
     fd2:	00261683          	lh	a3,2(a2)
     fd6:	02d787b3          	mul	a5,a5,a3
     fda:	0407b78b          	0x407b78b
     fde:	07c2                	slli	a5,a5,0x10
     fe0:	87c1                	srai	a5,a5,0x10
    asm volatile (".insn r 0x0b, 0x003, 2, %[dst], %[src], x0\r\n" : [dst] "=r" (r1) : [src] "r" ((int32_t)r0*zeta) : );
     fe2:	02e787b3          	mul	a5,a5,a4
     fe6:	0407b78b          	0x407b78b
    
    asm volatile (".insn r 0x0b, 0x003, 2, %[dst], %[src], x0\r\n" : [dst] "=r" (r2) : [src] "r" ((int32_t)a[0] * b[0]) : );
     fea:	00059683          	lh	a3,0(a1)
     fee:	00061303          	lh	t1,0(a2)
     ff2:	026686b3          	mul	a3,a3,t1
     ff6:	0406b68b          	0x406b68b
    r[0] = r1 + r2;
     ffa:	97b6                	add	a5,a5,a3
     ffc:	00f51023          	sh	a5,0(a0)

    asm volatile (".insn r 0x0b, 0x003, 2, %[dst], %[src], x0\r\n" : [dst] "=r" (r3) : [src] "r" ((int32_t)a[0] * b[1]) : );
    1000:	00059783          	lh	a5,0(a1)
    1004:	00261683          	lh	a3,2(a2)
    1008:	02d787b3          	mul	a5,a5,a3
    100c:	0407b78b          	0x407b78b
    asm volatile (".insn r 0x0b, 0x003, 2, %[dst], %[src], x0\r\n" : [dst] "=r" (r4) : [src] "r" ((int32_t)a[1] * b[0]) : );
    1010:	00259683          	lh	a3,2(a1)
    1014:	00061303          	lh	t1,0(a2)
    1018:	026686b3          	mul	a3,a3,t1
    101c:	0406b68b          	0x406b68b
    r[1] = r3 + r4;
    1020:	97b6                	add	a5,a5,a3
    1022:	00f51123          	sh	a5,2(a0)
    asm volatile (".insn r 0x0b, 0x003, 2, %[dst], %[src], x0\r\n" : [dst] "=r" (r0) : [src] "r" ((int32_t)a[1] * b[1]) : );
    1026:	00659683          	lh	a3,6(a1)
    102a:	00661783          	lh	a5,6(a2)
    102e:	02f686b3          	mul	a3,a3,a5
    1032:	0406b68b          	0x406b68b
        PQCLEAN_KYBER768_CLEAN_basemul(&r->coeffs[4 * i + 2], &a->coeffs[4 * i + 2], &b->coeffs[4 * i + 2], -PQCLEAN_KYBER768_CLEAN_zetas[64 + i]);
    1036:	40e007b3          	neg	a5,a4
    asm volatile (".insn r 0x0b, 0x003, 2, %[dst], %[src], x0\r\n" : [dst] "=r" (r1) : [src] "r" ((int32_t)r0*zeta) : );
    103a:	07c2                	slli	a5,a5,0x10
    asm volatile (".insn r 0x0b, 0x003, 2, %[dst], %[src], x0\r\n" : [dst] "=r" (r0) : [src] "r" ((int32_t)a[1] * b[1]) : );
    103c:	01069713          	slli	a4,a3,0x10
    1040:	8741                	srai	a4,a4,0x10
    asm volatile (".insn r 0x0b, 0x003, 2, %[dst], %[src], x0\r\n" : [dst] "=r" (r1) : [src] "r" ((int32_t)r0*zeta) : );
    1042:	87c1                	srai	a5,a5,0x10
    1044:	02e787b3          	mul	a5,a5,a4
    1048:	0407b78b          	0x407b78b
    asm volatile (".insn r 0x0b, 0x003, 2, %[dst], %[src], x0\r\n" : [dst] "=r" (r2) : [src] "r" ((int32_t)a[0] * b[0]) : );
    104c:	00459703          	lh	a4,4(a1)
    1050:	00461683          	lh	a3,4(a2)
    1054:	02d70733          	mul	a4,a4,a3
    1058:	0407370b          	0x407370b
    r[0] = r1 + r2;
    105c:	97ba                	add	a5,a5,a4
    105e:	00f51223          	sh	a5,4(a0)
    asm volatile (".insn r 0x0b, 0x003, 2, %[dst], %[src], x0\r\n" : [dst] "=r" (r3) : [src] "r" ((int32_t)a[0] * b[1]) : );
    1062:	00459783          	lh	a5,4(a1)
    1066:	00661703          	lh	a4,6(a2)
    106a:	02e787b3          	mul	a5,a5,a4
    106e:	0407b78b          	0x407b78b
    asm volatile (".insn r 0x0b, 0x003, 2, %[dst], %[src], x0\r\n" : [dst] "=r" (r4) : [src] "r" ((int32_t)a[1] * b[0]) : );
    1072:	00659703          	lh	a4,6(a1)
    1076:	00461683          	lh	a3,4(a2)
    107a:	02d70733          	mul	a4,a4,a3
    107e:	0407370b          	0x407370b
    r[1] = r3 + r4;
    1082:	97ba                	add	a5,a5,a4
    1084:	00f51323          	sh	a5,6(a0)
    for (i = 0; i < KYBER_N / 4; i++) {
    1088:	05a1                	addi	a1,a1,8
    108a:	0621                	addi	a2,a2,8
    108c:	0521                	addi	a0,a0,8
    108e:	f3181de3          	bne	a6,a7,fc8 <PQCLEAN_KYBER768_CLEAN_poly_basemul_montgomery+0x16>
}
    1092:	8082                	ret

00001094 <PQCLEAN_KYBER768_CLEAN_polyvec_basemul_acc_montgomery>:
void PQCLEAN_KYBER768_CLEAN_polyvec_basemul_acc_montgomery(poly *r, const polyvec *a, const polyvec *b) {
    1094:	de010113          	addi	sp,sp,-544
    1098:	20112e23          	sw	ra,540(sp)
    109c:	20912c23          	sw	s1,536(sp)
    10a0:	21212a23          	sw	s2,532(sp)
    10a4:	21312823          	sw	s3,528(sp)
    10a8:	21412623          	sw	s4,524(sp)
    10ac:	21512423          	sw	s5,520(sp)
    10b0:	8a2a                	mv	s4,a0
    10b2:	21612223          	sw	s6,516(sp)
    10b6:	8aae                	mv	s5,a1
    10b8:	8b32                	mv	s6,a2
    PQCLEAN_KYBER768_CLEAN_poly_basemul_montgomery(r, &a->vec[0], &b->vec[0]);
    10ba:	3de5                	jal	fb2 <PQCLEAN_KYBER768_CLEAN_poly_basemul_montgomery>
        PQCLEAN_KYBER768_CLEAN_poly_basemul_montgomery(&t, &a->vec[i], &b->vec[i]);
    10bc:	200b0613          	addi	a2,s6,512
    10c0:	200a8593          	addi	a1,s5,512
    10c4:	850a                	mv	a0,sp
    10c6:	35f5                	jal	fb2 <PQCLEAN_KYBER768_CLEAN_poly_basemul_montgomery>
    for (i = 0; i < KYBER_N; i++) {
    10c8:	8952                	mv	s2,s4
    10ca:	848a                	mv	s1,sp
    10cc:	20010993          	addi	s3,sp,512
    10d0:	870a                	mv	a4,sp
    10d2:	87d2                	mv	a5,s4
        r->coeffs[i] = a->coeffs[i] + b->coeffs[i];
    10d4:	0007d683          	lhu	a3,0(a5)
    10d8:	00075803          	lhu	a6,0(a4)
    for (i = 0; i < KYBER_N; i++) {
    10dc:	0789                	addi	a5,a5,2
    10de:	0709                	addi	a4,a4,2
        r->coeffs[i] = a->coeffs[i] + b->coeffs[i];
    10e0:	96c2                	add	a3,a3,a6
    10e2:	fed79f23          	sh	a3,-2(a5)
    for (i = 0; i < KYBER_N; i++) {
    10e6:	ff3717e3          	bne	a4,s3,10d4 <PQCLEAN_KYBER768_CLEAN_polyvec_basemul_acc_montgomery+0x40>
    10ea:	400b0613          	addi	a2,s6,1024
    10ee:	400a8593          	addi	a1,s5,1024
    10f2:	850a                	mv	a0,sp
    10f4:	3d7d                	jal	fb2 <PQCLEAN_KYBER768_CLEAN_poly_basemul_montgomery>
    10f6:	87d2                	mv	a5,s4
        r->coeffs[i] = a->coeffs[i] + b->coeffs[i];
    10f8:	0007d703          	lhu	a4,0(a5)
    10fc:	0004d683          	lhu	a3,0(s1)
    for (i = 0; i < KYBER_N; i++) {
    1100:	0789                	addi	a5,a5,2
    1102:	0489                	addi	s1,s1,2
        r->coeffs[i] = a->coeffs[i] + b->coeffs[i];
    1104:	9736                	add	a4,a4,a3
    1106:	fee79f23          	sh	a4,-2(a5)
    for (i = 0; i < KYBER_N; i++) {
    110a:	ff3497e3          	bne	s1,s3,10f8 <PQCLEAN_KYBER768_CLEAN_polyvec_basemul_acc_montgomery+0x64>
    for (i = 0; i < KYBER_N; i++) {
    110e:	4781                	li	a5,0
    1110:	10000613          	li	a2,256
        asm volatile (".insn r 0x0b, 0x004, 0, %[dst], %[src], x0\r\n" : [dst] "=r" (r->coeffs[i]) : [src] "r" (r->coeffs[i]) : );
    1114:	00095683          	lhu	a3,0(s2)
    1118:	0006c68b          	0x6c68b
    111c:	00179713          	slli	a4,a5,0x1
    1120:	9752                	add	a4,a4,s4
    1122:	00d71023          	sh	a3,0(a4)
    for (i = 0; i < KYBER_N; i++) {
    1126:	0785                	addi	a5,a5,1
    1128:	0909                	addi	s2,s2,2
    112a:	fec795e3          	bne	a5,a2,1114 <PQCLEAN_KYBER768_CLEAN_polyvec_basemul_acc_montgomery+0x80>
}
    112e:	21c12083          	lw	ra,540(sp)
    1132:	21812483          	lw	s1,536(sp)
    1136:	21412903          	lw	s2,532(sp)
    113a:	21012983          	lw	s3,528(sp)
    113e:	20c12a03          	lw	s4,524(sp)
    1142:	20812a83          	lw	s5,520(sp)
    1146:	20412b03          	lw	s6,516(sp)
    114a:	22010113          	addi	sp,sp,544
    114e:	8082                	ret

00001150 <rej_uniform>:
        if (val0 < KYBER_Q) {
    1150:	6e05                	lui	t3,0x1
    while (ctr < len && pos + 3 <= buflen) {
    1152:	4e8d                	li	t4,3
                                unsigned int buflen) {
    1154:	8f2a                	mv	t5,a0
    ctr = pos = 0;
    1156:	4801                	li	a6,0
        if (val0 < KYBER_Q) {
    1158:	d00e0e13          	addi	t3,t3,-768 # d00 <fic_irq_spi_flash+0xa>
    while (ctr < len && pos + 3 <= buflen) {
    115c:	40ce8eb3          	sub	t4,t4,a2
        asm volatile (".insn r 0x0b, 0x1, 40, %[dst], %[src], %[src2]\r\n" : [dst] "=r" (val0)  : [src] "r" (buf[pos + 0]), [src2] "r" (buf[pos + 1]) :  );
    1160:	00164783          	lbu	a5,1(a2)
    1164:	00064703          	lbu	a4,0(a2)
    1168:	50f7170b          	0x50f7170b
    116c:	01071893          	slli	a7,a4,0x10
        asm volatile (".insn r 0x0b, 0x1, 41, %[dst], %[src], %[src2]\r\n" : [dst] "=r" (val1)  : [src] "r" (buf[pos + 1]), [src2] "r" (buf[pos + 2]) :  );
    1170:	00264303          	lbu	t1,2(a2)
        asm volatile (".insn r 0x0b, 0x1, 40, %[dst], %[src], %[src2]\r\n" : [dst] "=r" (val0)  : [src] "r" (buf[pos + 0]), [src2] "r" (buf[pos + 1]) :  );
    1174:	0108d893          	srli	a7,a7,0x10
        asm volatile (".insn r 0x0b, 0x1, 41, %[dst], %[src], %[src2]\r\n" : [dst] "=r" (val1)  : [src] "r" (buf[pos + 1]), [src2] "r" (buf[pos + 2]) :  );
    1178:	5267978b          	0x5267978b
    117c:	01079313          	slli	t1,a5,0x10
    1180:	01035313          	srli	t1,t1,0x10
        if (val0 < KYBER_Q) {
    1184:	011e6c63          	bltu	t3,a7,119c <rej_uniform+0x4c>
            r[ctr++] = val0;
    1188:	00181893          	slli	a7,a6,0x1
    118c:	98fa                	add	a7,a7,t5
    118e:	00180513          	addi	a0,a6,1
    1192:	00e89023          	sh	a4,0(a7)
        if (ctr < len && val1 < KYBER_Q) {
    1196:	02b56463          	bltu	a0,a1,11be <rej_uniform+0x6e>
}
    119a:	8082                	ret
        if (ctr < len && val1 < KYBER_Q) {
    119c:	006e6863          	bltu	t3,t1,11ac <rej_uniform+0x5c>
            r[ctr++] = val1;
    11a0:	00181713          	slli	a4,a6,0x1
    11a4:	977a                	add	a4,a4,t5
    11a6:	00f71023          	sh	a5,0(a4)
    11aa:	0805                	addi	a6,a6,1
    while (ctr < len && pos + 3 <= buflen) {
    11ac:	00b87763          	bgeu	a6,a1,11ba <rej_uniform+0x6a>
    11b0:	060d                	addi	a2,a2,3
    11b2:	00ce87b3          	add	a5,t4,a2
    11b6:	faf6f5e3          	bgeu	a3,a5,1160 <rej_uniform+0x10>
    11ba:	8542                	mv	a0,a6
    return ctr;
    11bc:	8082                	ret
        if (ctr < len && val1 < KYBER_Q) {
    11be:	882a                	mv	a6,a0
    11c0:	fe6e70e3          	bgeu	t3,t1,11a0 <rej_uniform+0x50>
    11c4:	b7f5                	j	11b0 <rej_uniform+0x60>

000011c6 <randombytes>:
            out[i] ^= t[i + 4];
        }
    }
}

void randombytes(uint8_t *buf, size_t xlen) {
    11c6:	7159                	addi	sp,sp,-112
    11c8:	00b50733          	add	a4,a0,a1
    11cc:	c03a                	sw	a4,0(sp)
    11ce:	00080737          	lui	a4,0x80
    11d2:	3c070713          	addi	a4,a4,960 # 803c0 <seed>
    11d6:	c6e6                	sw	s9,76(sp)
    11d8:	c63a                	sw	a4,12(sp)
    while (xlen > 0) {
        if (!outleft) {
    11da:	00080cb7          	lui	s9,0x80
    11de:	1c886737          	lui	a4,0x1c886
    11e2:	47070713          	addi	a4,a4,1136 # 1c886470 <_sp+0x1c7a5bc0>
    11e6:	6a4c8c93          	addi	s9,s9,1700 # 806a4 <outleft>
    11ea:	c23a                	sw	a4,4(sp)
    11ec:	000ca783          	lw	a5,0(s9)
    for (loop = 0; loop < 2; ++loop) {
    11f0:	aa66d737          	lui	a4,0xaa66d
void randombytes(uint8_t *buf, size_t xlen) {
    11f4:	d0d2                	sw	s4,96(sp)
    11f6:	ced6                	sw	s5,92(sp)
    11f8:	ccda                	sw	s6,88(sp)
    11fa:	c4ea                	sw	s10,72(sp)
    11fc:	00080b37          	lui	s6,0x80
            if (!++in[0]) {
    1200:	00080d37          	lui	s10,0x80
    1204:	00081ab7          	lui	s5,0x81
            sum += 0x9e3779b9;
    1208:	9e378a37          	lui	s4,0x9e378
    for (loop = 0; loop < 2; ++loop) {
    120c:	2b070713          	addi	a4,a4,688 # aa66d2b0 <_sp+0xaa58ca00>
void randombytes(uint8_t *buf, size_t xlen) {
    1210:	cade                	sw	s7,84(sp)
    1212:	c8e2                	sw	s8,80(sp)
    1214:	c2ee                	sw	s11,68(sp)
    1216:	d6a6                	sw	s1,108(sp)
    1218:	d4ca                	sw	s2,104(sp)
    121a:	d2ce                	sw	s3,100(sp)
    121c:	8c2a                	mv	s8,a0
    while (xlen > 0) {
    121e:	7f8b0b13          	addi	s6,s6,2040 # 807f8 <out>
            if (!++in[0]) {
    1222:	7c8d0d13          	addi	s10,s10,1992 # 807c8 <in>
    1226:	04010b93          	addi	s7,sp,64
        out[i] = seed[24 + i];
    122a:	4d8d                	li	s11,3
    122c:	818a8a93          	addi	s5,s5,-2024 # 80818 <_global_atexit0>
            sum += 0x9e3779b9;
    1230:	9b9a0a13          	addi	s4,s4,-1607 # 9e3779b9 <_sp+0x9e297109>
    for (loop = 0; loop < 2; ++loop) {
    1234:	c43a                	sw	a4,8(sp)
        if (!outleft) {
    1236:	cb9d                	beqz	a5,126c <randombytes+0xa6>
                }
            }
            surf();
            outleft = 8;
        }
        *buf = (uint8_t) out[--outleft];
    1238:	17fd                	addi	a5,a5,-1
    123a:	00279713          	slli	a4,a5,0x2
    123e:	975a                	add	a4,a4,s6
    1240:	4318                	lw	a4,0(a4)
        ++buf;
    1242:	0c05                	addi	s8,s8,1
        *buf = (uint8_t) out[--outleft];
    1244:	00fca023          	sw	a5,0(s9)
    1248:	feec0fa3          	sb	a4,-1(s8)
    while (xlen > 0) {
    124c:	4702                	lw	a4,0(sp)
    124e:	feec14e3          	bne	s8,a4,1236 <randombytes+0x70>
        --xlen;
    }
}
    1252:	54b6                	lw	s1,108(sp)
    1254:	5926                	lw	s2,104(sp)
    1256:	5996                	lw	s3,100(sp)
    1258:	5a06                	lw	s4,96(sp)
    125a:	4af6                	lw	s5,92(sp)
    125c:	4b66                	lw	s6,88(sp)
    125e:	4bd6                	lw	s7,84(sp)
    1260:	4c46                	lw	s8,80(sp)
    1262:	4cb6                	lw	s9,76(sp)
    1264:	4d26                	lw	s10,72(sp)
    1266:	4d96                	lw	s11,68(sp)
    1268:	6165                	addi	sp,sp,112
    126a:	8082                	ret
            if (!++in[0]) {
    126c:	000d2783          	lw	a5,0(s10)
    1270:	0785                	addi	a5,a5,1
    1272:	00fd2023          	sw	a5,0(s10)
    1276:	e395                	bnez	a5,129a <randombytes+0xd4>
                if (!++in[1]) {
    1278:	004d2703          	lw	a4,4(s10)
    127c:	0705                	addi	a4,a4,1
    127e:	00ed2223          	sw	a4,4(s10)
    1282:	ef01                	bnez	a4,129a <randombytes+0xd4>
                    if (!++in[2]) {
    1284:	008d2703          	lw	a4,8(s10)
    1288:	0705                	addi	a4,a4,1
    128a:	00ed2423          	sw	a4,8(s10)
    128e:	e711                	bnez	a4,129a <randombytes+0xd4>
                        ++in[3];
    1290:	00cd2703          	lw	a4,12(s10)
    1294:	0705                	addi	a4,a4,1
    1296:	00ed2623          	sw	a4,12(s10)
    129a:	4732                	lw	a4,12(sp)
    129c:	004d0613          	addi	a2,s10,4
void randombytes(uint8_t *buf, size_t xlen) {
    12a0:	45a5                	li	a1,9
    12a2:	03470693          	addi	a3,a4,52
    12a6:	0818                	addi	a4,sp,16
    12a8:	a029                	j	12b2 <randombytes+0xec>
        t[i] = in[i] ^ seed[12 + i];
    12aa:	421c                	lw	a5,0(a2)
    12ac:	428c                	lw	a1,0(a3)
    12ae:	0611                	addi	a2,a2,4
    12b0:	0691                	addi	a3,a3,4
    12b2:	8fad                	xor	a5,a5,a1
    12b4:	c31c                	sw	a5,0(a4)
    for (i = 0; i < 12; ++i) {
    12b6:	0711                	addi	a4,a4,4
    12b8:	feeb99e3          	bne	s7,a4,12aa <randombytes+0xe4>
        out[i] = seed[24 + i];
    12bc:	47a1                	li	a5,8
    12be:	00fb2423          	sw	a5,8(s6)
    12c2:	4789                	li	a5,2
    12c4:	00fb2823          	sw	a5,16(s6)
    12c8:	479d                	li	a5,7
    12ca:	00fb2a23          	sw	a5,20(s6)
    12ce:	47a5                	li	a5,9
    12d0:	00fb2c23          	sw	a5,24(s6)
    x = t[11];
    12d4:	5e72                	lw	t3,60(sp)
        out[i] = seed[24 + i];
    12d6:	4795                	li	a5,5
    12d8:	42c2                	lw	t0,16(sp)
    12da:	4fd2                	lw	t6,20(sp)
    12dc:	4f62                	lw	t5,24(sp)
    12de:	4ef2                	lw	t4,28(sp)
    12e0:	5362                	lw	t1,56(sp)
    12e2:	58d2                	lw	a7,52(sp)
    12e4:	5842                	lw	a6,48(sp)
    12e6:	5512                	lw	a0,36(sp)
    12e8:	55b2                	lw	a1,44(sp)
    12ea:	5622                	lw	a2,40(sp)
    12ec:	5682                	lw	a3,32(sp)
    12ee:	00fb2e23          	sw	a5,28(s6)
    x = t[11];
    12f2:	e377a7b7          	lui	a5,0xe377a
        out[i] = seed[24 + i];
    12f6:	01bb2023          	sw	s11,0(s6)
    12fa:	01bb2223          	sw	s11,4(s6)
    12fe:	01bb2623          	sw	s11,12(s6)
    x = t[11];
    1302:	b9078993          	addi	s3,a5,-1136 # e3779b90 <_sp+0xe36992e0>
    1306:	448d                	li	s1,3
    1308:	4792                	lw	a5,4(sp)
    130a:	97ce                	add	a5,a5,s3
            sum += 0x9e3779b9;
    130c:	97d2                	add	a5,a5,s4
            MUSH(0, 5)
    130e:	01be5913          	srli	s2,t3,0x1b
    1312:	003e4713          	xori	a4,t3,3
    1316:	005e1393          	slli	t2,t3,0x5
    131a:	0123e3b3          	or	t2,t2,s2
    131e:	973e                	add	a4,a4,a5
    1320:	00774733          	xor	a4,a4,t2
    1324:	92ba                	add	t0,t0,a4
            MUSH(1, 7)
    1326:	0192d913          	srli	s2,t0,0x19
    132a:	0012c713          	xori	a4,t0,1
    132e:	00729393          	slli	t2,t0,0x7
    1332:	0123e3b3          	or	t2,t2,s2
    1336:	973e                	add	a4,a4,a5
    1338:	00774733          	xor	a4,a4,t2
    133c:	9fba                	add	t6,t6,a4
            MUSH(2, 9)
    133e:	017fd913          	srli	s2,t6,0x17
    1342:	004fc713          	xori	a4,t6,4
    1346:	009f9393          	slli	t2,t6,0x9
    134a:	0123e3b3          	or	t2,t2,s2
    134e:	973e                	add	a4,a4,a5
    1350:	00774733          	xor	a4,a4,t2
    1354:	9f3a                	add	t5,t5,a4
            MUSH(3, 13)
    1356:	013f5913          	srli	s2,t5,0x13
    135a:	001f4713          	xori	a4,t5,1
    135e:	00df1393          	slli	t2,t5,0xd
    1362:	0123e3b3          	or	t2,t2,s2
    1366:	973e                	add	a4,a4,a5
    1368:	00774733          	xor	a4,a4,t2
    136c:	9eba                	add	t4,t4,a4
            MUSH(4, 5)
    136e:	01bed913          	srli	s2,t4,0x1b
    1372:	005ec713          	xori	a4,t4,5
    1376:	005e9393          	slli	t2,t4,0x5
    137a:	0123e3b3          	or	t2,t2,s2
    137e:	973e                	add	a4,a4,a5
    1380:	00774733          	xor	a4,a4,t2
    1384:	96ba                	add	a3,a3,a4
            MUSH(5, 7)
    1386:	0196d913          	srli	s2,a3,0x19
    138a:	0096c713          	xori	a4,a3,9
    138e:	00769393          	slli	t2,a3,0x7
    1392:	0123e3b3          	or	t2,t2,s2
    1396:	973e                	add	a4,a4,a5
    1398:	00774733          	xor	a4,a4,t2
    139c:	953a                	add	a0,a0,a4
            MUSH(6, 9)
    139e:	01755913          	srli	s2,a0,0x17
    13a2:	00254713          	xori	a4,a0,2
    13a6:	00951393          	slli	t2,a0,0x9
    13aa:	0123e3b3          	or	t2,t2,s2
    13ae:	973e                	add	a4,a4,a5
    13b0:	00774733          	xor	a4,a4,t2
    13b4:	963a                	add	a2,a2,a4
            MUSH(7, 13)
    13b6:	01365913          	srli	s2,a2,0x13
    13ba:	00664713          	xori	a4,a2,6
    13be:	00d61393          	slli	t2,a2,0xd
    13c2:	0123e3b3          	or	t2,t2,s2
    13c6:	973e                	add	a4,a4,a5
    13c8:	00774733          	xor	a4,a4,t2
    13cc:	95ba                	add	a1,a1,a4
            MUSH(8, 5)
    13ce:	01b5d913          	srli	s2,a1,0x1b
    13d2:	0055c713          	xori	a4,a1,5
    13d6:	00559393          	slli	t2,a1,0x5
    13da:	0123e3b3          	or	t2,t2,s2
    13de:	973e                	add	a4,a4,a5
    13e0:	00774733          	xor	a4,a4,t2
    13e4:	983a                	add	a6,a6,a4
            MUSH(9, 7)
    13e6:	01985913          	srli	s2,a6,0x19
    13ea:	00384713          	xori	a4,a6,3
    13ee:	00781393          	slli	t2,a6,0x7
    13f2:	0123e3b3          	or	t2,t2,s2
    13f6:	973e                	add	a4,a4,a5
    13f8:	00774733          	xor	a4,a4,t2
    13fc:	98ba                	add	a7,a7,a4
            MUSH(10, 9)
    13fe:	0178d913          	srli	s2,a7,0x17
    1402:	0058c713          	xori	a4,a7,5
    1406:	00989393          	slli	t2,a7,0x9
    140a:	0123e3b3          	or	t2,t2,s2
    140e:	973e                	add	a4,a4,a5
    1410:	00774733          	xor	a4,a4,t2
    1414:	933a                	add	t1,t1,a4
            MUSH(11, 13)
    1416:	00834713          	xori	a4,t1,8
    141a:	00d31393          	slli	t2,t1,0xd
    141e:	01335913          	srli	s2,t1,0x13
    1422:	973e                	add	a4,a4,a5
    1424:	0123e3b3          	or	t2,t2,s2
    1428:	00774733          	xor	a4,a4,t2
    142c:	9e3a                	add	t3,t3,a4
        for (r = 0; r < 16; ++r) {
    142e:	ed379fe3          	bne	a5,s3,130c <randombytes+0x146>
    1432:	d036                	sw	a3,32(sp)
    1434:	d22a                	sw	a0,36(sp)
    1436:	d432                	sw	a2,40(sp)
    1438:	d62e                	sw	a1,44(sp)
    143a:	d842                	sw	a6,48(sp)
    143c:	da46                	sw	a7,52(sp)
    143e:	dc1a                	sw	t1,56(sp)
    1440:	de72                	sw	t3,60(sp)
    1442:	87da                	mv	a5,s6
    1444:	01010393          	addi	t2,sp,16
            MUSH(4, 5)
    1448:	8736                	mv	a4,a3
    144a:	a021                	j	1452 <randombytes+0x28c>
            out[i] ^= t[i + 4];
    144c:	4384                	lw	s1,0(a5)
    144e:	0103a703          	lw	a4,16(t2)
    1452:	8f25                	xor	a4,a4,s1
    1454:	c398                	sw	a4,0(a5)
        for (i = 0; i < 8; ++i) {
    1456:	0791                	addi	a5,a5,4
    1458:	0391                	addi	t2,t2,4
    145a:	fefa99e3          	bne	s5,a5,144c <randombytes+0x286>
    for (loop = 0; loop < 2; ++loop) {
    145e:	e377a7b7          	lui	a5,0xe377a
    1462:	b9078793          	addi	a5,a5,-1136 # e3779b90 <_sp+0xe36992e0>
    1466:	99be                	add	s3,s3,a5
    1468:	47a2                	lw	a5,8(sp)
    146a:	00f98563          	beq	s3,a5,1474 <randombytes+0x2ae>
            out[i] ^= t[i + 4];
    146e:	000b2483          	lw	s1,0(s6)
    1472:	bd59                	j	1308 <randombytes+0x142>
            outleft = 8;
    1474:	479d                	li	a5,7
    1476:	b3d1                	j	123a <randombytes+0x74>

00001478 <dma_load_transaction.constprop.0.isra.0>:
    dma_cb.trans = p_trans;
    1478:	000807b7          	lui	a5,0x80
    147c:	6bc78793          	addi	a5,a5,1724 # 806bc <dma_cb>
    dma_cb.peri->INTERRUPT_EN |= INTR_EN_TRANS_DONE;
    1480:	4794                	lw	a3,8(a5)
    dma_cb.peri->SRC_PTR = dma_cb.trans->src->ptr;
    1482:	00052803          	lw	a6,0(a0)
    dma_cb.peri->DST_PTR = dma_cb.trans->dst->ptr;
    1486:	00452e83          	lw	t4,4(a0)
    peri_ptr[index] &= ~(DMA_PTR_INC_SRC_PTR_INC_MASK);
    148a:	4ad8                	lw	a4,20(a3)
    dma_cb.peri->INTERRUPT_EN |= INTR_EN_TRANS_DONE;
    148c:	56d0                	lw	a2,44(a3)
    dma_cb.peri->SRC_PTR = dma_cb.trans->src->ptr;
    148e:	00482e03          	lw	t3,4(a6)
    peri_ptr[index] &= ~(DMA_PTR_INC_SRC_PTR_INC_MASK);
    1492:	f0077713          	andi	a4,a4,-256
    dma_cb.peri->DST_PTR = dma_cb.trans->dst->ptr;
    1496:	004ea303          	lw	t1,4(t4)
    peri_ptr[index] &= ~(DMA_PTR_INC_SRC_PTR_INC_MASK);
    149a:	cad8                	sw	a4,20(a3)


uint32_t get_increment_b( dma_target_t * p_tgt )
{
    uint32_t inc_b = 0;
    if(  p_tgt->trig  == DMA_TRIG_MEMORY )
    149c:	01482883          	lw	a7,20(a6)
    dma_cb.peri->INTERRUPT_EN |= INTR_EN_TRANS_DONE;
    14a0:	00166613          	ori	a2,a2,1
    dma_cb.trans = p_trans;
    14a4:	c388                	sw	a0,0(a5)
    dma_cb.peri->INTERRUPT_EN |= INTR_EN_TRANS_DONE;
    14a6:	d6d0                	sw	a2,44(a3)
    dma_cb.peri->SRC_PTR = dma_cb.trans->src->ptr;
    14a8:	01c6a023          	sw	t3,0(a3)
    dma_cb.peri->DST_PTR = dma_cb.trans->dst->ptr;
    14ac:	0066a223          	sw	t1,4(a3)
    uint32_t inc_b = 0;
    14b0:	4781                	li	a5,0
    if(  p_tgt->trig  == DMA_TRIG_MEMORY )
    14b2:	00089b63          	bnez	a7,14c8 <dma_load_transaction.constprop.0.isra.0+0x50>
    {
        /* If the transaction increment has been overriden (due to misalignments), then that value is used (it's always set to 1). */
        inc_b = dma_cb.trans->inc_b;
        
        uint8_t dataSize_b = DMA_DATA_TYPE_2_SIZE( dma_cb.trans->type );
    14b6:	01452883          	lw	a7,20(a0)
        inc_b = ( p_tgt->inc_du * dataSize_b );
    14ba:	00885603          	lhu	a2,8(a6)
        uint8_t dataSize_b = DMA_DATA_TYPE_2_SIZE( dma_cb.trans->type );
    14be:	4791                	li	a5,4
    14c0:	4117d7b3          	sra	a5,a5,a7
        inc_b = ( p_tgt->inc_du * dataSize_b );
    14c4:	02c787b3          	mul	a5,a5,a2
    peri_ptr[index] |= (get_increment_b( dma_cb.trans->src ) & DMA_PTR_INC_SRC_PTR_INC_MASK);
    14c8:	0ff7f793          	zext.b	a5,a5
    14cc:	8fd9                	or	a5,a5,a4
    peri_ptr[index] &= ~(DMA_PTR_INC_DST_PTR_INC_MASK << 8);
    14ce:	7741                	lui	a4,0xffff0
    14d0:	0ff70713          	addi	a4,a4,255 # ffff00ff <_sp+0xfff0f84f>
    14d4:	8ff9                	and	a5,a5,a4
    14d6:	cadc                	sw	a5,20(a3)
    if(  p_tgt->trig  == DMA_TRIG_MEMORY )
    14d8:	014ea603          	lw	a2,20(t4)
    uint32_t inc_b = 0;
    14dc:	4701                	li	a4,0
    if(  p_tgt->trig  == DMA_TRIG_MEMORY )
    14de:	ea09                	bnez	a2,14f0 <dma_load_transaction.constprop.0.isra.0+0x78>
        uint8_t dataSize_b = DMA_DATA_TYPE_2_SIZE( dma_cb.trans->type );
    14e0:	4948                	lw	a0,20(a0)
        inc_b = ( p_tgt->inc_du * dataSize_b );
    14e2:	008ed603          	lhu	a2,8(t4)
        uint8_t dataSize_b = DMA_DATA_TYPE_2_SIZE( dma_cb.trans->type );
    14e6:	4711                	li	a4,4
    14e8:	40a75733          	sra	a4,a4,a0
        inc_b = ( p_tgt->inc_du * dataSize_b );
    14ec:	02c70733          	mul	a4,a4,a2
    peri_ptr[index] |= (get_increment_b( dma_cb.trans->dst ) & DMA_PTR_INC_DST_PTR_INC_MASK) << 8;
    14f0:	6641                	lui	a2,0x10
    14f2:	0722                	slli	a4,a4,0x8
    14f4:	167d                	addi	a2,a2,-1
    14f6:	8f71                	and	a4,a4,a2
    14f8:	8f5d                	or	a4,a4,a5
    14fa:	cad8                	sw	a4,20(a3)
    dma_cb.peri->SIZE = size;
    14fc:	c6cc                	sw	a1,12(a3)
}
    14fe:	8082                	ret

00001500 <ntt_driver>:
#include "stdasm.h"



void ntt_driver(uint32_t* Din, uint32_t* Dout)
{
    1500:	7131                	addi	sp,sp,-192
    1502:	db4a                	sw	s2,180(sp)
    uint32_t volatile *ctrl_reg = (uint32_t*)ATHOS_IP_CTRL_START_ADDR;
    uint32_t volatile *Dout_reg_start = (uint32_t*)ATHOS_IP_DOUT_START_ADDR;
    dma_config_flags_t res;

    //Needed to be reset for the new-interrupt
    plic_intr_flag = 0;
    1504:	00080937          	lui	s2,0x80
    //Define the src of DMA transaction
    uint32_t* ext_addr_4B_PTR = (uint32_t*)ATHOS_IP_DIN_START_ADDR;
  
    //dma_init(NULL);
    *ctrl_reg = (1 << ATHOS_IP_CTRL_CTRL_C1_BIT) | (2 << ATHOS_IP_CTRL_CTRL_OPERATION_OFFSET);
    1508:	6785                	lui	a5,0x1
    plic_intr_flag = 0;
    150a:	6a890913          	addi	s2,s2,1704 # 806a8 <plic_intr_flag>
{
    150e:	dd26                	sw	s1,184(sp)
    1510:	d94e                	sw	s3,176(sp)
    *ctrl_reg = (1 << ATHOS_IP_CTRL_CTRL_C1_BIT) | (2 << ATHOS_IP_CTRL_CTRL_OPERATION_OFFSET);
    1512:	80278693          	addi	a3,a5,-2046 # 802 <main+0x5ec>
{
    1516:	df06                	sw	ra,188(sp)
    plic_intr_flag = 0;
    1518:	00090023          	sb	zero,0(s2)
    *ctrl_reg = (1 << ATHOS_IP_CTRL_CTRL_C1_BIT) | (2 << ATHOS_IP_CTRL_CTRL_OPERATION_OFFSET);
    151c:	20080737          	lui	a4,0x20080
    1520:	c314                	sw	a3,0(a4)
    *ctrl_reg = (0 << ATHOS_IP_CTRL_CTRL_C1_BIT) | (2 << ATHOS_IP_CTRL_CTRL_OPERATION_OFFSET);
    1522:	80078793          	addi	a5,a5,-2048
    1526:	c31c                	sw	a5,0(a4)
{
    1528:	872a                	mv	a4,a0

    //Define transaction parameter
    dma_target_t tgt_src = {
    152a:	c6ba                	sw	a4,76(sp)
                                .ptr        = Din,
                                .inc_du     = 1,
                                .trig       = DMA_TRIG_MEMORY,
                                .type       = DMA_DATA_TYPE_WORD,
                                };
    dma_target_t tgt_dst = {
    152c:	f0000737          	lui	a4,0xf0000
    1530:	da3a                	sw	a4,52(sp)
                                .ptr        = ext_addr_4B_PTR,
                                };
    dma_trans_t trans = {
    1532:	00b8                	addi	a4,sp,72
    dma_target_t tgt_src = {
    1534:	4785                	li	a5,1
    1536:	c882                	sw	zero,80(sp)
    dma_trans_t trans = {
    1538:	c53a                	sw	a4,136(sp)
{
    153a:	89ae                	mv	s3,a1
    dma_trans_t trans = {
    153c:	1818                	addi	a4,sp,48
                                .dst        = &tgt_dst,
                                .mode       = DMA_TRANS_MODE_SINGLE,
                                .win_du     = 0,
                                .end        = DMA_TRANS_END_INTR,
                                };
    res = dma_load_transaction(&trans, 1024); //4,0
    153e:	40000593          	li	a1,1024
    1542:	0128                	addi	a0,sp,136
    return (dma_cb.peri->STATUS & (1U << DMA_STATUS_READY_BIT));
    1544:	000804b7          	lui	s1,0x80
    dma_target_t tgt_src = {
    1548:	04f11823          	sh	a5,80(sp)
    dma_trans_t trans = {
    154c:	c73a                	sw	a4,140(sp)
    154e:	d53e                	sw	a5,168(sp)
    dma_target_t tgt_src = {
    1550:	c482                	sw	zero,72(sp)
    1552:	ca82                	sw	zero,84(sp)
    1554:	cc82                	sw	zero,88(sp)
    1556:	ce82                	sw	zero,92(sp)
    dma_target_t tgt_dst = {
    1558:	d802                	sw	zero,48(sp)
    155a:	dc02                	sw	zero,56(sp)
    155c:	de02                	sw	zero,60(sp)
    155e:	c082                	sw	zero,64(sp)
    1560:	c282                	sw	zero,68(sp)
    dma_trans_t trans = {
    1562:	c902                	sw	zero,144(sp)
    1564:	cb02                	sw	zero,148(sp)
    1566:	cd02                	sw	zero,152(sp)
    1568:	cf02                	sw	zero,156(sp)
    156a:	d102                	sw	zero,160(sp)
    156c:	d302                	sw	zero,164(sp)
    156e:	d702                	sw	zero,172(sp)
    1570:	6bc48493          	addi	s1,s1,1724 # 806bc <dma_cb>
    res = dma_load_transaction(&trans, 1024); //4,0
    1574:	3711                	jal	1478 <dma_load_transaction.constprop.0.isra.0>
    1576:	449c                	lw	a5,8(s1)
 
    //Wait for the DMA transaction to finish
    do{
        CSR_SET_BITS(CSR_REG_MSTATUS, 0x0);
    1578:	4701                	li	a4,0
        if ( dma_is_ready() == 0 ) {
            wait_for_interrupt();
        }
        CSR_SET_BITS(CSR_REG_MSTATUS, 0x8);
    157a:	46a1                	li	a3,8
    157c:	4b9c                	lw	a5,16(a5)
    157e:	8b85                	andi	a5,a5,1
        CSR_SET_BITS(CSR_REG_MSTATUS, 0x0);
    1580:	30072073          	csrs	mstatus,a4
        if ( dma_is_ready() == 0 ) {
    1584:	c3cd                	beqz	a5,1626 <ntt_driver+0x126>
        CSR_SET_BITS(CSR_REG_MSTATUS, 0x8);
    1586:	47a1                	li	a5,8
    1588:	3007a073          	csrs	mstatus,a5
    }
    while( !dma_is_ready());

    //Start IP execution
    *ctrl_reg = (1 << ATHOS_IP_CTRL_CTRL_C0_BIT) | (2 << ATHOS_IP_CTRL_CTRL_OPERATION_OFFSET);
    158c:	6785                	lui	a5,0x1
    158e:	20080737          	lui	a4,0x20080
    1592:	80178693          	addi	a3,a5,-2047 # 801 <main+0x5eb>
    1596:	c314                	sw	a3,0(a4)
    *ctrl_reg = (0 << ATHOS_IP_CTRL_CTRL_C0_BIT) | (2 << ATHOS_IP_CTRL_CTRL_OPERATION_OFFSET);
    1598:	80078793          	addi	a5,a5,-2048
    159c:	c31c                	sw	a5,0(a4)

    //Wait for IP interrupt
    while(plic_intr_flag==0) {
    159e:	00094783          	lbu	a5,0(s2)
    15a2:	e791                	bnez	a5,15ae <ntt_driver+0xae>
 * Hints to the processor that we don't have anything better to be doing, and to
 * go into low-power mode until an interrupt is serviced.
 *
 * This function may behave as if it is a no-op.
 */
inline void wait_for_interrupt(void) { asm volatile("wfi"); }
    15a4:	10500073          	wfi
    15a8:	00094783          	lbu	a5,0(s2)
    15ac:	dfe5                	beqz	a5,15a4 <ntt_driver+0xa4>
        wait_for_interrupt();
    }

    //Read the output of the IP
    *ctrl_reg = (1 << ATHOS_IP_CTRL_CTRL_C5_BIT) | (2 << ATHOS_IP_CTRL_CTRL_OPERATION_OFFSET);
    15ae:	6785                	lui	a5,0x1
    15b0:	82078693          	addi	a3,a5,-2016 # 820 <main+0x60a>
    15b4:	20080737          	lui	a4,0x20080
    15b8:	c314                	sw	a3,0(a4)
    *ctrl_reg = (0 << ATHOS_IP_CTRL_CTRL_C5_BIT) | (2 << ATHOS_IP_CTRL_CTRL_OPERATION_OFFSET);
    15ba:	80078793          	addi	a5,a5,-2048
    15be:	c31c                	sw	a5,0(a4)
  
    //Define the src of the second DMA transaction
    ext_addr_4B_PTR = (uint32_t*)ATHOS_IP_DOUT_START_ADDR;
    dma_target_t tgt_src2 = {
    15c0:	f00007b7          	lui	a5,0xf0000
    15c4:	0c878793          	addi	a5,a5,200 # f00000c8 <_sp+0xeff1f818>
                                .ptr        = ext_addr_4B_PTR,
                                .trig       = DMA_TRIG_MEMORY,
                                .type       = DMA_DATA_TYPE_WORD,
                              };    
    dma_target_t tgt_dst2 = {
    15c8:	4705                	li	a4,1
    15ca:	c402                	sw	zero,8(sp)
    dma_target_t tgt_src2 = {
    15cc:	ce3e                	sw	a5,28(sp)
                                .dst        = &tgt_dst2,
                                .mode       = DMA_TRANS_MODE_SINGLE,
                                .win_du     = 0,
                                .end        = DMA_TRANS_END_INTR,
                                };
    res = dma_load_transaction(&trans2, 512); //0,4
    15ce:	20000593          	li	a1,512
    dma_trans_t trans2 = {
    15d2:	083c                	addi	a5,sp,24
    res = dma_load_transaction(&trans2, 512); //0,4
    15d4:	1088                	addi	a0,sp,96
    dma_target_t tgt_dst2 = {
    15d6:	00e11423          	sh	a4,8(sp)
    dma_trans_t trans2 = {
    15da:	d0be                	sw	a5,96(sp)
    15dc:	c13a                	sw	a4,128(sp)
    dma_target_t tgt_src2 = {
    15de:	cc02                	sw	zero,24(sp)
    15e0:	d002                	sw	zero,32(sp)
    15e2:	d202                	sw	zero,36(sp)
    15e4:	d402                	sw	zero,40(sp)
    15e6:	d602                	sw	zero,44(sp)
    dma_target_t tgt_dst2 = {
    15e8:	c002                	sw	zero,0(sp)
    15ea:	c602                	sw	zero,12(sp)
    15ec:	c802                	sw	zero,16(sp)
    15ee:	ca02                	sw	zero,20(sp)
    15f0:	c24e                	sw	s3,4(sp)
    dma_trans_t trans2 = {
    15f2:	d482                	sw	zero,104(sp)
    15f4:	d682                	sw	zero,108(sp)
    15f6:	d882                	sw	zero,112(sp)
    15f8:	da82                	sw	zero,116(sp)
    15fa:	dc82                	sw	zero,120(sp)
    15fc:	de82                	sw	zero,124(sp)
    15fe:	c302                	sw	zero,132(sp)
    1600:	d28a                	sw	sp,100(sp)
    res = dma_load_transaction(&trans2, 512); //0,4
    1602:	3d9d                	jal	1478 <dma_load_transaction.constprop.0.isra.0>
    1604:	449c                	lw	a5,8(s1)

    //Wait for the DMA transaction to finish
    do{
        CSR_SET_BITS(CSR_REG_MSTATUS, 0x0);
    1606:	4701                	li	a4,0
        if ( dma_is_ready() == 0 ) {
            wait_for_interrupt();
        }
        CSR_SET_BITS(CSR_REG_MSTATUS, 0x8);
    1608:	46a1                	li	a3,8
    160a:	4b9c                	lw	a5,16(a5)
    160c:	8b85                	andi	a5,a5,1
        CSR_SET_BITS(CSR_REG_MSTATUS, 0x0);
    160e:	30072073          	csrs	mstatus,a4
        if ( dma_is_ready() == 0 ) {
    1612:	c39d                	beqz	a5,1638 <ntt_driver+0x138>
        CSR_SET_BITS(CSR_REG_MSTATUS, 0x8);
    1614:	47a1                	li	a5,8
    1616:	3007a073          	csrs	mstatus,a5
    }
    while( ! dma_is_ready());

}
    161a:	50fa                	lw	ra,188(sp)
    161c:	54ea                	lw	s1,184(sp)
    161e:	595a                	lw	s2,180(sp)
    1620:	59ca                	lw	s3,176(sp)
    1622:	6129                	addi	sp,sp,192
    1624:	8082                	ret
    1626:	10500073          	wfi
    162a:	449c                	lw	a5,8(s1)
    162c:	4b9c                	lw	a5,16(a5)
        CSR_SET_BITS(CSR_REG_MSTATUS, 0x8);
    162e:	3006a073          	csrs	mstatus,a3
    1632:	8b85                	andi	a5,a5,1
    while( !dma_is_ready());
    1634:	d7b1                	beqz	a5,1580 <ntt_driver+0x80>
    1636:	bf99                	j	158c <ntt_driver+0x8c>
    1638:	10500073          	wfi
    163c:	449c                	lw	a5,8(s1)
    163e:	4b9c                	lw	a5,16(a5)
        CSR_SET_BITS(CSR_REG_MSTATUS, 0x8);
    1640:	3006a073          	csrs	mstatus,a3
    1644:	8b85                	andi	a5,a5,1
    while( ! dma_is_ready());
    1646:	d7e1                	beqz	a5,160e <ntt_driver+0x10e>
    1648:	bfc9                	j	161a <ntt_driver+0x11a>

0000164a <intt_driver>:
#include "fast_intr_ctrl.h"
#include "stdasm.h"

 
void intt_driver(uint32_t* Din, uint32_t* Dout)
{
    164a:	7131                	addi	sp,sp,-192
    164c:	db4a                	sw	s2,180(sp)
    uint32_t volatile *ctrl_reg = (uint32_t*)ATHOS_IP_CTRL_START_ADDR;
    uint32_t volatile *Dout_reg_start = (uint32_t*)ATHOS_IP_DOUT_START_ADDR;
    dma_config_flags_t res;

    //Needed to be reset for the new-interrupt
    plic_intr_flag = 0;
    164e:	00080937          	lui	s2,0x80
    //Define the src of DMA transaction
    uint32_t* ext_addr_4B_PTR = (uint32_t*)ATHOS_IP_DIN_START_ADDR;

    //dma_init(NULL);
    *ctrl_reg = (1 << ATHOS_IP_CTRL_CTRL_C2_BIT) | (3 << ATHOS_IP_CTRL_CTRL_OPERATION_OFFSET);
    1652:	6785                	lui	a5,0x1
    plic_intr_flag = 0;
    1654:	6a890913          	addi	s2,s2,1704 # 806a8 <plic_intr_flag>
{
    1658:	dd26                	sw	s1,184(sp)
    165a:	d94e                	sw	s3,176(sp)
    *ctrl_reg = (1 << ATHOS_IP_CTRL_CTRL_C2_BIT) | (3 << ATHOS_IP_CTRL_CTRL_OPERATION_OFFSET);
    165c:	c0478693          	addi	a3,a5,-1020 # c04 <sw_irq_handler+0x6>
{
    1660:	df06                	sw	ra,188(sp)
    plic_intr_flag = 0;
    1662:	00090023          	sb	zero,0(s2)
    *ctrl_reg = (1 << ATHOS_IP_CTRL_CTRL_C2_BIT) | (3 << ATHOS_IP_CTRL_CTRL_OPERATION_OFFSET);
    1666:	20080737          	lui	a4,0x20080
    166a:	c314                	sw	a3,0(a4)
    *ctrl_reg = (0 << ATHOS_IP_CTRL_CTRL_C2_BIT) | (3 << ATHOS_IP_CTRL_CTRL_OPERATION_OFFSET);
    166c:	c0078793          	addi	a5,a5,-1024
    1670:	c31c                	sw	a5,0(a4)
{
    1672:	872a                	mv	a4,a0

    //Define transaction parameter
    dma_target_t tgt_src = {
    1674:	c6ba                	sw	a4,76(sp)
                                .ptr        = Din,
                                .inc_du     = 1,
                                .trig       = DMA_TRIG_MEMORY,
                                .type       = DMA_DATA_TYPE_WORD,
                                };
    dma_target_t tgt_dst = {
    1676:	f0000737          	lui	a4,0xf0000
    167a:	da3a                	sw	a4,52(sp)
                                .ptr        = ext_addr_4B_PTR,
                                };
    dma_trans_t trans = {
    167c:	00b8                	addi	a4,sp,72
    dma_target_t tgt_src = {
    167e:	4785                	li	a5,1
    1680:	c882                	sw	zero,80(sp)
    dma_trans_t trans = {
    1682:	c53a                	sw	a4,136(sp)
{
    1684:	89ae                	mv	s3,a1
    dma_trans_t trans = {
    1686:	1818                	addi	a4,sp,48
                                .dst        = &tgt_dst,
                                .mode       = DMA_TRANS_MODE_SINGLE,
                                .win_du     = 0,
                                .end        = DMA_TRANS_END_INTR,
                                };
    res = dma_load_transaction(&trans, 1024); //4,0
    1688:	40000593          	li	a1,1024
    168c:	0128                	addi	a0,sp,136
    168e:	000804b7          	lui	s1,0x80
    dma_target_t tgt_src = {
    1692:	04f11823          	sh	a5,80(sp)
    dma_trans_t trans = {
    1696:	c73a                	sw	a4,140(sp)
    1698:	d53e                	sw	a5,168(sp)
    dma_target_t tgt_src = {
    169a:	c482                	sw	zero,72(sp)
    169c:	ca82                	sw	zero,84(sp)
    169e:	cc82                	sw	zero,88(sp)
    16a0:	ce82                	sw	zero,92(sp)
    dma_target_t tgt_dst = {
    16a2:	d802                	sw	zero,48(sp)
    16a4:	dc02                	sw	zero,56(sp)
    16a6:	de02                	sw	zero,60(sp)
    16a8:	c082                	sw	zero,64(sp)
    16aa:	c282                	sw	zero,68(sp)
    dma_trans_t trans = {
    16ac:	c902                	sw	zero,144(sp)
    16ae:	cb02                	sw	zero,148(sp)
    16b0:	cd02                	sw	zero,152(sp)
    16b2:	cf02                	sw	zero,156(sp)
    16b4:	d102                	sw	zero,160(sp)
    16b6:	d302                	sw	zero,164(sp)
    16b8:	d702                	sw	zero,172(sp)
    16ba:	6bc48493          	addi	s1,s1,1724 # 806bc <dma_cb>
    res = dma_load_transaction(&trans, 1024); //4,0
    16be:	3b6d                	jal	1478 <dma_load_transaction.constprop.0.isra.0>
    16c0:	449c                	lw	a5,8(s1)
    //Wait for the DMA transaction to finish
    do {
        CSR_SET_BITS(CSR_REG_MSTATUS, 0x0);
    16c2:	4701                	li	a4,0
        if ( dma_is_ready() == 0 ) {
            wait_for_interrupt();
        }
        CSR_SET_BITS(CSR_REG_MSTATUS, 0x8);
    16c4:	46a1                	li	a3,8
    16c6:	4b9c                	lw	a5,16(a5)
    16c8:	8b85                	andi	a5,a5,1
        CSR_SET_BITS(CSR_REG_MSTATUS, 0x0);
    16ca:	30072073          	csrs	mstatus,a4
        if ( dma_is_ready() == 0 ) {
    16ce:	c3cd                	beqz	a5,1770 <intt_driver+0x126>
        CSR_SET_BITS(CSR_REG_MSTATUS, 0x8);
    16d0:	47a1                	li	a5,8
    16d2:	3007a073          	csrs	mstatus,a5
    }
    while ( ! dma_is_ready());

    //Start IP execution
    *ctrl_reg = (1 << ATHOS_IP_CTRL_CTRL_C8_BIT) | (3 << ATHOS_IP_CTRL_CTRL_OPERATION_OFFSET);
    16d6:	6785                	lui	a5,0x1
    16d8:	20080737          	lui	a4,0x20080
    16dc:	d0078693          	addi	a3,a5,-768 # d00 <fic_irq_spi_flash+0xa>
    16e0:	c314                	sw	a3,0(a4)
    *ctrl_reg = (0 << ATHOS_IP_CTRL_CTRL_C8_BIT) | (3 << ATHOS_IP_CTRL_CTRL_OPERATION_OFFSET);
    16e2:	c0078793          	addi	a5,a5,-1024
    16e6:	c31c                	sw	a5,0(a4)

    // Wait for IP interrupt
    while(plic_intr_flag==0) {
    16e8:	00094783          	lbu	a5,0(s2)
    16ec:	e791                	bnez	a5,16f8 <intt_driver+0xae>
    16ee:	10500073          	wfi
    16f2:	00094783          	lbu	a5,0(s2)
    16f6:	dfe5                	beqz	a5,16ee <intt_driver+0xa4>
        wait_for_interrupt();
    }

    //Read the output of the IP
    *ctrl_reg = (1 << ATHOS_IP_CTRL_CTRL_C5_BIT) | (3 << ATHOS_IP_CTRL_CTRL_OPERATION_OFFSET);
    16f8:	6785                	lui	a5,0x1
    16fa:	c2078693          	addi	a3,a5,-992 # c20 <sw_irq_handler+0x22>
    16fe:	20080737          	lui	a4,0x20080
    1702:	c314                	sw	a3,0(a4)
    *ctrl_reg = (0 << ATHOS_IP_CTRL_CTRL_C5_BIT) | (3 << ATHOS_IP_CTRL_CTRL_OPERATION_OFFSET);
    1704:	c0078793          	addi	a5,a5,-1024
    1708:	c31c                	sw	a5,0(a4)
    
    //Define the src of the second DMA transaction
    ext_addr_4B_PTR = (uint32_t*)ATHOS_IP_DOUT_START_ADDR;
    dma_target_t tgt_src2 = {
    170a:	f00007b7          	lui	a5,0xf0000
    170e:	0c878793          	addi	a5,a5,200 # f00000c8 <_sp+0xeff1f818>
                                .ptr        = ext_addr_4B_PTR,
                                .trig       = DMA_TRIG_MEMORY,
                                .type       = DMA_DATA_TYPE_WORD,
                              };      
    dma_target_t tgt_dst2 = {
    1712:	4705                	li	a4,1
    1714:	c402                	sw	zero,8(sp)
    dma_target_t tgt_src2 = {
    1716:	ce3e                	sw	a5,28(sp)
                                .dst        = &tgt_dst2,
                                .mode       = DMA_TRANS_MODE_SINGLE,
                                .win_du     = 0,
                                .end        = DMA_TRANS_END_INTR,
                                };
    res = dma_load_transaction(&trans2, 512); //0,4
    1718:	20000593          	li	a1,512
    dma_trans_t trans2 = {
    171c:	083c                	addi	a5,sp,24
    res = dma_load_transaction(&trans2, 512); //0,4
    171e:	1088                	addi	a0,sp,96
    dma_target_t tgt_dst2 = {
    1720:	00e11423          	sh	a4,8(sp)
    dma_trans_t trans2 = {
    1724:	d0be                	sw	a5,96(sp)
    1726:	c13a                	sw	a4,128(sp)
    dma_target_t tgt_src2 = {
    1728:	cc02                	sw	zero,24(sp)
    172a:	d002                	sw	zero,32(sp)
    172c:	d202                	sw	zero,36(sp)
    172e:	d402                	sw	zero,40(sp)
    1730:	d602                	sw	zero,44(sp)
    dma_target_t tgt_dst2 = {
    1732:	c002                	sw	zero,0(sp)
    1734:	c602                	sw	zero,12(sp)
    1736:	c802                	sw	zero,16(sp)
    1738:	ca02                	sw	zero,20(sp)
    173a:	c24e                	sw	s3,4(sp)
    dma_trans_t trans2 = {
    173c:	d482                	sw	zero,104(sp)
    173e:	d682                	sw	zero,108(sp)
    1740:	d882                	sw	zero,112(sp)
    1742:	da82                	sw	zero,116(sp)
    1744:	dc82                	sw	zero,120(sp)
    1746:	de82                	sw	zero,124(sp)
    1748:	c302                	sw	zero,132(sp)
    174a:	d28a                	sw	sp,100(sp)
    res = dma_load_transaction(&trans2, 512); //0,4
    174c:	3335                	jal	1478 <dma_load_transaction.constprop.0.isra.0>
    174e:	449c                	lw	a5,8(s1)

    do{
        CSR_SET_BITS(CSR_REG_MSTATUS, 0x0);
    1750:	4701                	li	a4,0
        if ( dma_is_ready() == 0 ) {
            wait_for_interrupt();
        }
        CSR_SET_BITS(CSR_REG_MSTATUS, 0x8);
    1752:	46a1                	li	a3,8
    1754:	4b9c                	lw	a5,16(a5)
    1756:	8b85                	andi	a5,a5,1
        CSR_SET_BITS(CSR_REG_MSTATUS, 0x0);
    1758:	30072073          	csrs	mstatus,a4
        if ( dma_is_ready() == 0 ) {
    175c:	c39d                	beqz	a5,1782 <intt_driver+0x138>
        CSR_SET_BITS(CSR_REG_MSTATUS, 0x8);
    175e:	47a1                	li	a5,8
    1760:	3007a073          	csrs	mstatus,a5
    }
    while( ! dma_is_ready());

}
    1764:	50fa                	lw	ra,188(sp)
    1766:	54ea                	lw	s1,184(sp)
    1768:	595a                	lw	s2,180(sp)
    176a:	59ca                	lw	s3,176(sp)
    176c:	6129                	addi	sp,sp,192
    176e:	8082                	ret
    1770:	10500073          	wfi
    1774:	449c                	lw	a5,8(s1)
    1776:	4b9c                	lw	a5,16(a5)
        CSR_SET_BITS(CSR_REG_MSTATUS, 0x8);
    1778:	3006a073          	csrs	mstatus,a3
    177c:	8b85                	andi	a5,a5,1
    while ( ! dma_is_ready());
    177e:	d7b1                	beqz	a5,16ca <intt_driver+0x80>
    1780:	bf99                	j	16d6 <intt_driver+0x8c>
    1782:	10500073          	wfi
    1786:	449c                	lw	a5,8(s1)
    1788:	4b9c                	lw	a5,16(a5)
        CSR_SET_BITS(CSR_REG_MSTATUS, 0x8);
    178a:	3006a073          	csrs	mstatus,a3
    178e:	8b85                	andi	a5,a5,1
    while( ! dma_is_ready());
    1790:	d7e1                	beqz	a5,1758 <intt_driver+0x10e>
    1792:	bfc9                	j	1764 <intt_driver+0x11a>

00001794 <dma_load_transaction_keccak.isra.0>:
    dma_cb.trans = p_trans;
    1794:	000806b7          	lui	a3,0x80
    1798:	6bc68693          	addi	a3,a3,1724 # 806bc <dma_cb>
    dma_cb.peri->INTERRUPT_EN |= INTR_EN_TRANS_DONE;
    179c:	469c                	lw	a5,8(a3)
    dma_cb.peri->SRC_PTR = dma_cb.trans->src->ptr;
    179e:	410c                	lw	a1,0(a0)
    dma_cb.peri->DST_PTR = dma_cb.trans->dst->ptr;
    17a0:	4158                	lw	a4,4(a0)
    peri_ptr[index] |= (4 & DMA_PTR_INC_DST_PTR_INC_MASK) << 8;
    17a2:	0147a883          	lw	a7,20(a5)
    dma_cb.peri->SRC_PTR = dma_cb.trans->src->ptr;
    17a6:	0045a803          	lw	a6,4(a1)
    dma_cb.peri->INTERRUPT_EN |= INTR_EN_TRANS_DONE;
    17aa:	57d0                	lw	a2,44(a5)
    dma_cb.peri->DST_PTR = dma_cb.trans->dst->ptr;
    17ac:	434c                	lw	a1,4(a4)
    peri_ptr[index] |= (4 & DMA_PTR_INC_DST_PTR_INC_MASK) << 8;
    17ae:	7741                	lui	a4,0xffff0
    17b0:	01177733          	and	a4,a4,a7
    17b4:	40476713          	ori	a4,a4,1028
    dma_cb.peri->INTERRUPT_EN |= INTR_EN_TRANS_DONE;
    17b8:	00166613          	ori	a2,a2,1
    peri_ptr[index] |= (4 & DMA_PTR_INC_DST_PTR_INC_MASK) << 8;
    17bc:	cbd8                	sw	a4,20(a5)
    dma_cb.peri->SIZE = 200;
    17be:	0c800713          	li	a4,200
    dma_cb.trans = p_trans;
    17c2:	c288                	sw	a0,0(a3)
    dma_cb.peri->INTERRUPT_EN |= INTR_EN_TRANS_DONE;
    17c4:	d7d0                	sw	a2,44(a5)
    dma_cb.peri->SRC_PTR = dma_cb.trans->src->ptr;
    17c6:	0107a023          	sw	a6,0(a5)
    dma_cb.peri->DST_PTR = dma_cb.trans->dst->ptr;
    17ca:	c3cc                	sw	a1,4(a5)
    dma_cb.peri->SIZE = 200;
    17cc:	c7d8                	sw	a4,12(a5)
}
    17ce:	8082                	ret

000017d0 <keccak_ip_driver>:
// To manage DMA
#include "dma.h"

 
void keccak_ip_driver(uint32_t* Din, uint32_t* Dout)
{
    17d0:	7159                	addi	sp,sp,-112
    17d2:	d2ca                	sw	s2,100(sp)
  uint32_t volatile *Din_reg_start = (uint32_t*)ATHOS_IP_DIN_START_ADDR;
  uint32_t volatile *ctrl_reg = (uint32_t*)ATHOS_IP_CTRL_START_ADDR;
  uint32_t volatile *Dout_reg_start = (uint32_t*)ATHOS_IP_DOUT_START_ADDR;


  plic_intr_flag = 0;
    17d4:	00080937          	lui	s2,0x80
    17d8:	6a890913          	addi	s2,s2,1704 # 806a8 <plic_intr_flag>
{
    17dc:	d4a6                	sw	s1,104(sp)
    17de:	d0ce                	sw	s3,96(sp)
    17e0:	d686                	sw	ra,108(sp)
  plic_intr_flag = 0;
    17e2:	00090023          	sb	zero,0(s2)


  uint32_t* ext_addr_4B_PTR = (uint32_t*)ATHOS_IP_DIN_START_ADDR;
  *ctrl_reg = (1 << ATHOS_IP_CTRL_CTRL_OPERATION_OFFSET);
    17e6:	200807b7          	lui	a5,0x20080
    17ea:	40000713          	li	a4,1024
    17ee:	c398                	sw	a4,0(a5)
{
    17f0:	872a                	mv	a4,a0
  //The DMA is initialized (i.e. Any current transaction is cleaned.)
  //dma_init(NULL);
  dma_config_flags_t res;
  //First DMA transaction consist on loading Din in ATHOS_IP register file
  dma_target_t tgt_src = {
    17f2:	d23a                	sw	a4,36(sp)
                              .ptr        = Din,
                              .inc_du     = 1,
                              .trig       = DMA_TRIG_MEMORY,
                              .type       = DMA_DATA_TYPE_WORD,
                              };
  dma_target_t tgt_dst = {
    17f4:	f0000737          	lui	a4,0xf0000
    17f8:	c63a                	sw	a4,12(sp)
                              .ptr        = ext_addr_4B_PTR,
                              .inc_du     = 1,
                              .trig       = DMA_TRIG_MEMORY,
                              };
  dma_trans_t trans = {
    17fa:	1018                	addi	a4,sp,32
  dma_target_t tgt_src = {
    17fc:	4785                	li	a5,1
    17fe:	d402                	sw	zero,40(sp)
  dma_target_t tgt_dst = {
    1800:	c802                	sw	zero,16(sp)
  dma_trans_t trans = {
    1802:	dc3a                	sw	a4,56(sp)
                              .dst        = &tgt_dst,
                              .mode       = DMA_TRANS_MODE_SINGLE,
                              .win_du     = 0,
                              .end        = DMA_TRANS_END_INTR,
                              };
  res = dma_load_transaction_keccak(&trans);
    1804:	1828                	addi	a0,sp,56
  dma_trans_t trans = {
    1806:	0038                	addi	a4,sp,8
    return (dma_cb.peri->STATUS & (1U << DMA_STATUS_READY_BIT));
    1808:	000804b7          	lui	s1,0x80
  dma_target_t tgt_src = {
    180c:	02f11423          	sh	a5,40(sp)
  dma_target_t tgt_dst = {
    1810:	00f11823          	sh	a5,16(sp)
  dma_trans_t trans = {
    1814:	de3a                	sw	a4,60(sp)
    1816:	ccbe                	sw	a5,88(sp)
{
    1818:	89ae                	mv	s3,a1
  dma_target_t tgt_src = {
    181a:	d002                	sw	zero,32(sp)
    181c:	d602                	sw	zero,44(sp)
    181e:	d802                	sw	zero,48(sp)
    1820:	da02                	sw	zero,52(sp)
  dma_target_t tgt_dst = {
    1822:	c402                	sw	zero,8(sp)
    1824:	ca02                	sw	zero,20(sp)
    1826:	cc02                	sw	zero,24(sp)
    1828:	ce02                	sw	zero,28(sp)
  dma_trans_t trans = {
    182a:	c082                	sw	zero,64(sp)
    182c:	c282                	sw	zero,68(sp)
    182e:	c482                	sw	zero,72(sp)
    1830:	c682                	sw	zero,76(sp)
    1832:	c882                	sw	zero,80(sp)
    1834:	ca82                	sw	zero,84(sp)
    1836:	ce82                	sw	zero,92(sp)
    1838:	6bc48493          	addi	s1,s1,1724 # 806bc <dma_cb>
  res = dma_load_transaction_keccak(&trans);
    183c:	3fa1                	jal	1794 <dma_load_transaction_keccak.isra.0>
    183e:	449c                	lw	a5,8(s1)
  
  do {
      CSR_SET_BITS(CSR_REG_MSTATUS, 0x0);
    1840:	4701                	li	a4,0
      if ( dma_is_ready() == 0 ) {
          wait_for_interrupt();
      }
      CSR_SET_BITS(CSR_REG_MSTATUS, 0x8);
    1842:	46a1                	li	a3,8
    1844:	4b9c                	lw	a5,16(a5)
    1846:	8b85                	andi	a5,a5,1
      CSR_SET_BITS(CSR_REG_MSTATUS, 0x0);
    1848:	30072073          	csrs	mstatus,a4
      if ( dma_is_ready() == 0 ) {
    184c:	c3ad                	beqz	a5,18ae <keccak_ip_driver+0xde>
      CSR_SET_BITS(CSR_REG_MSTATUS, 0x8);
    184e:	47a1                	li	a5,8
    1850:	3007a073          	csrs	mstatus,a5
  while ( ! dma_is_ready());;

 

    asm volatile ("": : : "memory");
    *ctrl_reg = (1 << ATHOS_IP_CTRL_CTRL_C0_BIT) | (1 << ATHOS_IP_CTRL_CTRL_OPERATION_OFFSET);
    1854:	200807b7          	lui	a5,0x20080
    1858:	40100713          	li	a4,1025
    185c:	c398                	sw	a4,0(a5)
    //*ctrl_reg = to_write; 
    asm volatile ("": : : "memory");
    *ctrl_reg = (0 << ATHOS_IP_CTRL_CTRL_C0_BIT) | (1 << ATHOS_IP_CTRL_CTRL_OPERATION_OFFSET);
    185e:	40000713          	li	a4,1024
    1862:	c398                	sw	a4,0(a5)



  // Wait till ATHOS_IP is done
  while(plic_intr_flag==0) {
    1864:	00094783          	lbu	a5,0(s2)
    1868:	e791                	bnez	a5,1874 <keccak_ip_driver+0xa4>
    186a:	10500073          	wfi
    186e:	00094783          	lbu	a5,0(s2)
    1872:	dfe5                	beqz	a5,186a <keccak_ip_driver+0x9a>
      wait_for_interrupt();
  }

  ext_addr_4B_PTR = (uint32_t*)ATHOS_IP_DOUT_START_ADDR;
  tgt_src.ptr = ext_addr_4B_PTR;
    1874:	f00007b7          	lui	a5,0xf0000
    1878:	0c878793          	addi	a5,a5,200 # f00000c8 <_sp+0xeff1f818>
  tgt_dst.ptr = Dout;


  res = dma_load_transaction_keccak(&trans);
    187c:	1828                	addi	a0,sp,56
  tgt_src.ptr = ext_addr_4B_PTR;
    187e:	d23e                	sw	a5,36(sp)
  tgt_dst.ptr = Dout;
    1880:	c64e                	sw	s3,12(sp)
  res = dma_load_transaction_keccak(&trans);
    1882:	3f09                	jal	1794 <dma_load_transaction_keccak.isra.0>
    1884:	449c                	lw	a5,8(s1)


   do{
      CSR_SET_BITS(CSR_REG_MSTATUS, 0x0);
    1886:	4701                	li	a4,0
      if ( dma_is_ready() == 0 ) {
          wait_for_interrupt();
      }
      CSR_SET_BITS(CSR_REG_MSTATUS, 0x8);
    1888:	46a1                	li	a3,8
    188a:	4b9c                	lw	a5,16(a5)
    188c:	8b85                	andi	a5,a5,1
      CSR_SET_BITS(CSR_REG_MSTATUS, 0x0);
    188e:	30072073          	csrs	mstatus,a4
      if ( dma_is_ready() == 0 ) {
    1892:	c79d                	beqz	a5,18c0 <keccak_ip_driver+0xf0>
      CSR_SET_BITS(CSR_REG_MSTATUS, 0x8);
    1894:	47a1                	li	a5,8
    1896:	3007a073          	csrs	mstatus,a5
  *ctrl_reg = 0;




}
    189a:	50b6                	lw	ra,108(sp)
  *ctrl_reg = 0;
    189c:	200807b7          	lui	a5,0x20080
    18a0:	0007a023          	sw	zero,0(a5) # 20080000 <_sp+0x1ff9f750>
}
    18a4:	54a6                	lw	s1,104(sp)
    18a6:	5916                	lw	s2,100(sp)
    18a8:	5986                	lw	s3,96(sp)
    18aa:	6165                	addi	sp,sp,112
    18ac:	8082                	ret
    18ae:	10500073          	wfi
    18b2:	449c                	lw	a5,8(s1)
    18b4:	4b9c                	lw	a5,16(a5)
      CSR_SET_BITS(CSR_REG_MSTATUS, 0x8);
    18b6:	3006a073          	csrs	mstatus,a3
    18ba:	8b85                	andi	a5,a5,1
  while ( ! dma_is_ready());;
    18bc:	d7d1                	beqz	a5,1848 <keccak_ip_driver+0x78>
    18be:	bf59                	j	1854 <keccak_ip_driver+0x84>
    18c0:	10500073          	wfi
    18c4:	449c                	lw	a5,8(s1)
    18c6:	4b9c                	lw	a5,16(a5)
      CSR_SET_BITS(CSR_REG_MSTATUS, 0x8);
    18c8:	3006a073          	csrs	mstatus,a3
    18cc:	8b85                	andi	a5,a5,1
  while( ! dma_is_ready());
    18ce:	d3e1                	beqz	a5,188e <keccak_ip_driver+0xbe>
}
    18d0:	50b6                	lw	ra,108(sp)
  *ctrl_reg = 0;
    18d2:	200807b7          	lui	a5,0x20080
    18d6:	0007a023          	sw	zero,0(a5) # 20080000 <_sp+0x1ff9f750>
}
    18da:	54a6                	lw	s1,104(sp)
    18dc:	5916                	lw	s2,100(sp)
    18de:	5986                	lw	s3,96(sp)
    18e0:	6165                	addi	sp,sp,112
    18e2:	8082                	ret

000018e4 <keccak_squeezeblocks>:
    while (nblocks > 0) {
    18e4:	c5d1                	beqz	a1,1970 <keccak_squeezeblocks+0x8c>
                                 uint64_t *s, uint32_t r) {
    18e6:	1101                	addi	sp,sp,-32
    18e8:	cc26                	sw	s1,24(sp)
    18ea:	ca4a                	sw	s2,20(sp)
    18ec:	c84e                	sw	s3,16(sp)
    18ee:	c652                	sw	s4,12(sp)
    18f0:	c456                	sw	s5,8(sp)
    18f2:	c25a                	sw	s6,4(sp)
    18f4:	c05e                	sw	s7,0(sp)
    18f6:	ce06                	sw	ra,28(sp)
    18f8:	8bae                	mv	s7,a1
    18fa:	8a2a                	mv	s4,a0
    18fc:	8ab2                	mv	s5,a2
    18fe:	8936                	mv	s2,a3
    1900:	ff86fb13          	andi	s6,a3,-8
        x[i] = (uint8_t) (u >> 8 * i);
    1904:	49fd                	li	s3,31
    for (size_t i = 0; i < 8; ++i) {
    1906:	04000493          	li	s1,64
        keccak_ip_driver(s,s);
    190a:	85d6                	mv	a1,s5
    190c:	8556                	mv	a0,s5
    190e:	35c9                	jal	17d0 <keccak_ip_driver>
    1910:	4e81                	li	t4,0
            store64(h + 8 * i, s[i]);
    1912:	01da87b3          	add	a5,s5,t4
    1916:	0047ae03          	lw	t3,4(a5)
    191a:	0007a303          	lw	t1,0(a5)
    for (size_t i = 0; i < 8; ++i) {
    191e:	01da0633          	add	a2,s4,t4
            store64(h + 8 * i, s[i]);
    1922:	4781                	li	a5,0
        x[i] = (uint8_t) (u >> 8 * i);
    1924:	001e1893          	slli	a7,t3,0x1
    1928:	40f98733          	sub	a4,s3,a5
    192c:	00f356b3          	srl	a3,t1,a5
    1930:	00e89733          	sll	a4,a7,a4
    1934:	fe078813          	addi	a6,a5,-32
    1938:	8ed9                	or	a3,a3,a4
    193a:	00084463          	bltz	a6,1942 <keccak_squeezeblocks+0x5e>
    193e:	010e56b3          	srl	a3,t3,a6
    1942:	00d60023          	sb	a3,0(a2) # 10000 <randombytes.c.5b81a8f2+0xbe9>
    for (size_t i = 0; i < 8; ++i) {
    1946:	07a1                	addi	a5,a5,8
    1948:	0605                	addi	a2,a2,1
    194a:	fc979fe3          	bne	a5,s1,1928 <keccak_squeezeblocks+0x44>
        for (size_t i = 0; i < (r >> 3); i++) {
    194e:	0ea1                	addi	t4,t4,8
    1950:	fd6e91e3          	bne	t4,s6,1912 <keccak_squeezeblocks+0x2e>
        nblocks--;
    1954:	1bfd                	addi	s7,s7,-1
        h += r;
    1956:	9a4a                	add	s4,s4,s2
    while (nblocks > 0) {
    1958:	fa0b99e3          	bnez	s7,190a <keccak_squeezeblocks+0x26>
}
    195c:	40f2                	lw	ra,28(sp)
    195e:	44e2                	lw	s1,24(sp)
    1960:	4952                	lw	s2,20(sp)
    1962:	49c2                	lw	s3,16(sp)
    1964:	4a32                	lw	s4,12(sp)
    1966:	4aa2                	lw	s5,8(sp)
    1968:	4b12                	lw	s6,4(sp)
    196a:	4b82                	lw	s7,0(sp)
    196c:	6105                	addi	sp,sp,32
    196e:	8082                	ret
    1970:	8082                	ret

00001972 <keccak_absorb>:
                          size_t mlen, uint8_t p) {
    1972:	7111                	addi	sp,sp,-256
    1974:	d3da                	sw	s6,228(sp)
    1976:	d1de                	sw	s7,224(sp)
    1978:	cfe2                	sw	s8,220(sp)
    197a:	8b2e                	mv	s6,a1
    197c:	8c32                	mv	s8,a2
    197e:	8bb6                	mv	s7,a3
        s[i] = 0;
    1980:	0c800613          	li	a2,200
    1984:	4581                	li	a1,0
                          size_t mlen, uint8_t p) {
    1986:	dda6                	sw	s1,248(sp)
    1988:	dbca                	sw	s2,244(sp)
    198a:	d9ce                	sw	s3,240(sp)
    198c:	d7d2                	sw	s4,236(sp)
    198e:	d5d6                	sw	s5,232(sp)
    1990:	df86                	sw	ra,252(sp)
    1992:	8aaa                	mv	s5,a0
    1994:	893a                	mv	s2,a4
    for (i = 0; i < r / 8; ++i) {
    1996:	003b5a13          	srli	s4,s6,0x3
        s[i] = 0;
    199a:	41a010ef          	jal	ra,2db4 <memset>
    while (mlen >= r) {
    199e:	49fd                	li	s3,31
    19a0:	04000493          	li	s1,64
    19a4:	096be063          	bltu	s7,s6,1a24 <keccak_absorb+0xb2>
        for (i = 0; i < r / 8; ++i) {
    19a8:	8356                	mv	t1,s5
    19aa:	8ee2                	mv	t4,s8
    19ac:	4e01                	li	t3,0
    19ae:	86f6                	mv	a3,t4
    19b0:	4781                	li	a5,0
    uint64_t r = 0;
    19b2:	4501                	li	a0,0
    19b4:	4581                	li	a1,0
    19b6:	a819                	j	19cc <keccak_absorb+0x5a>
        r |= (uint64_t)x[i] << 8 * i;
    19b8:	4801                	li	a6,0
    19ba:	00c71733          	sll	a4,a4,a2
    for (size_t i = 0; i < 8; ++i) {
    19be:	07a1                	addi	a5,a5,8
        r |= (uint64_t)x[i] << 8 * i;
    19c0:	01056533          	or	a0,a0,a6
    19c4:	8dd9                	or	a1,a1,a4
    for (size_t i = 0; i < 8; ++i) {
    19c6:	0685                	addi	a3,a3,1
    19c8:	02978763          	beq	a5,s1,19f6 <keccak_absorb+0x84>
        r |= (uint64_t)x[i] << 8 * i;
    19cc:	fe078613          	addi	a2,a5,-32
    19d0:	0006c703          	lbu	a4,0(a3)
    19d4:	40f988b3          	sub	a7,s3,a5
    19d8:	fe0650e3          	bgez	a2,19b8 <keccak_absorb+0x46>
    19dc:	00175613          	srli	a2,a4,0x1
    19e0:	00f71833          	sll	a6,a4,a5
    19e4:	01165733          	srl	a4,a2,a7
    for (size_t i = 0; i < 8; ++i) {
    19e8:	07a1                	addi	a5,a5,8
        r |= (uint64_t)x[i] << 8 * i;
    19ea:	01056533          	or	a0,a0,a6
    19ee:	8dd9                	or	a1,a1,a4
    for (size_t i = 0; i < 8; ++i) {
    19f0:	0685                	addi	a3,a3,1
    19f2:	fc979de3          	bne	a5,s1,19cc <keccak_absorb+0x5a>
            s[i] ^= load64(m + 8 * i);
    19f6:	00032703          	lw	a4,0(t1)
    19fa:	00432783          	lw	a5,4(t1)
        for (i = 0; i < r / 8; ++i) {
    19fe:	0e05                	addi	t3,t3,1
            s[i] ^= load64(m + 8 * i);
    1a00:	8f29                	xor	a4,a4,a0
    1a02:	8fad                	xor	a5,a5,a1
    1a04:	00e32023          	sw	a4,0(t1)
    1a08:	00f32223          	sw	a5,4(t1)
        for (i = 0; i < r / 8; ++i) {
    1a0c:	0ea1                	addi	t4,t4,8
    1a0e:	0321                	addi	t1,t1,8
    1a10:	f94e6fe3          	bltu	t3,s4,19ae <keccak_absorb+0x3c>
        keccak_ip_driver(s, s);
    1a14:	85d6                	mv	a1,s5
    1a16:	8556                	mv	a0,s5
        mlen -= r;
    1a18:	416b8bb3          	sub	s7,s7,s6
        keccak_ip_driver(s, s);
    1a1c:	3b55                	jal	17d0 <keccak_ip_driver>
        m += r;
    1a1e:	9c5a                	add	s8,s8,s6
    while (mlen >= r) {
    1a20:	f96bf4e3          	bgeu	s7,s6,19a8 <keccak_absorb+0x36>
        t[i] = 0;
    1a24:	865a                	mv	a2,s6
    1a26:	4581                	li	a1,0
    1a28:	0028                	addi	a0,sp,8
    1a2a:	38a010ef          	jal	ra,2db4 <memset>
    for (i = 0; i < mlen; ++i) {
    1a2e:	000b8763          	beqz	s7,1a3c <keccak_absorb+0xca>
        t[i] = m[i];
    1a32:	865e                	mv	a2,s7
    1a34:	85e2                	mv	a1,s8
    1a36:	0028                	addi	a0,sp,8
    1a38:	1c6020ef          	jal	ra,3bfe <memcpy>
    t[i] = p;
    1a3c:	0d0b8793          	addi	a5,s7,208
    1a40:	00278bb3          	add	s7,a5,sp
    t[r - 1] |= 128;
    1a44:	0cfb0793          	addi	a5,s6,207
    t[i] = p;
    1a48:	f32b8c23          	sb	s2,-200(s7)
    t[r - 1] |= 128;
    1a4c:	978a                	add	a5,a5,sp
    1a4e:	f387c703          	lbu	a4,-200(a5)
    1a52:	00810e93          	addi	t4,sp,8
    for (i = 0; i < r / 8; ++i) {
    1a56:	4f01                	li	t5,0
    t[r - 1] |= 128;
    1a58:	f8076713          	ori	a4,a4,-128
    1a5c:	f2e78c23          	sb	a4,-200(a5)
        r |= (uint64_t)x[i] << 8 * i;
    1a60:	4e7d                	li	t3,31
    for (size_t i = 0; i < 8; ++i) {
    1a62:	04000313          	li	t1,64
    for (i = 0; i < r / 8; ++i) {
    1a66:	86f6                	mv	a3,t4
    1a68:	4781                	li	a5,0
    uint64_t r = 0;
    1a6a:	4501                	li	a0,0
    1a6c:	4581                	li	a1,0
    1a6e:	a819                	j	1a84 <keccak_absorb+0x112>
        r |= (uint64_t)x[i] << 8 * i;
    1a70:	4801                	li	a6,0
    1a72:	00c71733          	sll	a4,a4,a2
    for (size_t i = 0; i < 8; ++i) {
    1a76:	07a1                	addi	a5,a5,8
        r |= (uint64_t)x[i] << 8 * i;
    1a78:	01056533          	or	a0,a0,a6
    1a7c:	8dd9                	or	a1,a1,a4
    for (size_t i = 0; i < 8; ++i) {
    1a7e:	0685                	addi	a3,a3,1
    1a80:	02678763          	beq	a5,t1,1aae <keccak_absorb+0x13c>
        r |= (uint64_t)x[i] << 8 * i;
    1a84:	fe078613          	addi	a2,a5,-32
    1a88:	0006c703          	lbu	a4,0(a3)
    1a8c:	40fe08b3          	sub	a7,t3,a5
    1a90:	fe0650e3          	bgez	a2,1a70 <keccak_absorb+0xfe>
    1a94:	00175613          	srli	a2,a4,0x1
    1a98:	00f71833          	sll	a6,a4,a5
    1a9c:	01165733          	srl	a4,a2,a7
    for (size_t i = 0; i < 8; ++i) {
    1aa0:	07a1                	addi	a5,a5,8
        r |= (uint64_t)x[i] << 8 * i;
    1aa2:	01056533          	or	a0,a0,a6
    1aa6:	8dd9                	or	a1,a1,a4
    for (size_t i = 0; i < 8; ++i) {
    1aa8:	0685                	addi	a3,a3,1
    1aaa:	fc679de3          	bne	a5,t1,1a84 <keccak_absorb+0x112>
        s[i] ^= load64(t + 8 * i);
    1aae:	000aa703          	lw	a4,0(s5)
    1ab2:	004aa783          	lw	a5,4(s5)
    for (i = 0; i < r / 8; ++i) {
    1ab6:	0f05                	addi	t5,t5,1
        s[i] ^= load64(t + 8 * i);
    1ab8:	8f29                	xor	a4,a4,a0
    1aba:	8fad                	xor	a5,a5,a1
    1abc:	00eaa023          	sw	a4,0(s5)
    1ac0:	00faa223          	sw	a5,4(s5)
    for (i = 0; i < r / 8; ++i) {
    1ac4:	0ea1                	addi	t4,t4,8
    1ac6:	0aa1                	addi	s5,s5,8
    1ac8:	f94f6fe3          	bltu	t5,s4,1a66 <keccak_absorb+0xf4>
}
    1acc:	50fe                	lw	ra,252(sp)
    1ace:	54ee                	lw	s1,248(sp)
    1ad0:	595e                	lw	s2,244(sp)
    1ad2:	59ce                	lw	s3,240(sp)
    1ad4:	5a3e                	lw	s4,236(sp)
    1ad6:	5aae                	lw	s5,232(sp)
    1ad8:	5b1e                	lw	s6,228(sp)
    1ada:	5b8e                	lw	s7,224(sp)
    1adc:	4c7e                	lw	s8,220(sp)
    1ade:	6111                	addi	sp,sp,256
    1ae0:	8082                	ret

00001ae2 <sha3_512>:
 *
 * Arguments:   - uint8_t *output:      pointer to output
 *              - const uint8_t *input: pointer to input
 *              - size_t inlen:   length of input in bytes
 **************************************************/
void sha3_512(uint8_t *output, const uint8_t *input, size_t inlen) {
    1ae2:	712d                	addi	sp,sp,-288
    1ae4:	10912c23          	sw	s1,280(sp)
    1ae8:	86b2                	mv	a3,a2
    1aea:	84aa                	mv	s1,a0
    uint64_t s[25];
    uint8_t t[SHA3_512_RATE];

    /* Absorb input */
    keccak_absorb(s, SHA3_512_RATE, input, inlen, 0x06);
    1aec:	4719                	li	a4,6
    1aee:	862e                	mv	a2,a1
    1af0:	00a8                	addi	a0,sp,72
    1af2:	04800593          	li	a1,72
void sha3_512(uint8_t *output, const uint8_t *input, size_t inlen) {
    1af6:	10112e23          	sw	ra,284(sp)
    keccak_absorb(s, SHA3_512_RATE, input, inlen, 0x06);
    1afa:	3da5                	jal	1972 <keccak_absorb>

    /* Squeeze output */
    keccak_squeezeblocks(t, 1, s, SHA3_512_RATE);
    1afc:	00b0                	addi	a2,sp,72
    1afe:	850a                	mv	a0,sp
    1b00:	4585                	li	a1,1
    1b02:	04800693          	li	a3,72
    1b06:	3bf9                	jal	18e4 <keccak_squeezeblocks>

    for (size_t i = 0; i < 64; i++) {
        output[i] = t[i];
    1b08:	858a                	mv	a1,sp
    1b0a:	8526                	mv	a0,s1
    1b0c:	04000613          	li	a2,64
    1b10:	0ee020ef          	jal	ra,3bfe <memcpy>
    }
    1b14:	11c12083          	lw	ra,284(sp)
    1b18:	11812483          	lw	s1,280(sp)
    1b1c:	6115                	addi	sp,sp,288
    1b1e:	8082                	ret

00001b20 <sha3_256.constprop.0>:
void sha3_256(uint8_t *output, const uint8_t *input, size_t inlen) {
    1b20:	710d                	addi	sp,sp,-352
    1b22:	14912c23          	sw	s1,344(sp)
    1b26:	862e                	mv	a2,a1
    1b28:	84aa                	mv	s1,a0
    keccak_absorb(s, SHA3_256_RATE, input, inlen, 0x06);
    1b2a:	4719                	li	a4,6
    1b2c:	0128                	addi	a0,sp,136
    1b2e:	4a000693          	li	a3,1184
    1b32:	08800593          	li	a1,136
void sha3_256(uint8_t *output, const uint8_t *input, size_t inlen) {
    1b36:	14112e23          	sw	ra,348(sp)
    keccak_absorb(s, SHA3_256_RATE, input, inlen, 0x06);
    1b3a:	3d25                	jal	1972 <keccak_absorb>
    keccak_squeezeblocks(t, 1, s, SHA3_256_RATE);
    1b3c:	0130                	addi	a2,sp,136
    1b3e:	850a                	mv	a0,sp
    1b40:	4585                	li	a1,1
    1b42:	08800693          	li	a3,136
    1b46:	3b79                	jal	18e4 <keccak_squeezeblocks>
        output[i] = t[i];
    1b48:	858a                	mv	a1,sp
    1b4a:	8526                	mv	a0,s1
    1b4c:	02000613          	li	a2,32
    1b50:	0ae020ef          	jal	ra,3bfe <memcpy>
}
    1b54:	15c12083          	lw	ra,348(sp)
    1b58:	15812483          	lw	s1,344(sp)
    1b5c:	6135                	addi	sp,sp,352
    1b5e:	8082                	ret

00001b60 <keccak_inc_absorb.constprop.0>:
    while (mlen + s_inc[25] >= r) {
    1b60:	0c852783          	lw	a5,200(a0)
static void keccak_inc_absorb(uint64_t *s_inc, uint32_t r, const uint8_t *m,
    1b64:	1101                	addi	sp,sp,-32
    1b66:	c652                	sw	s4,12(sp)
    1b68:	8a32                	mv	s4,a2
    while (mlen + s_inc[25] >= r) {
    1b6a:	0cc52603          	lw	a2,204(a0)
    1b6e:	00fa06b3          	add	a3,s4,a5
    1b72:	0146b733          	sltu	a4,a3,s4
static void keccak_inc_absorb(uint64_t *s_inc, uint32_t r, const uint8_t *m,
    1b76:	ca4a                	sw	s2,20(sp)
    1b78:	c84e                	sw	s3,16(sp)
    1b7a:	ce06                	sw	ra,28(sp)
    1b7c:	cc26                	sw	s1,24(sp)
    1b7e:	c456                	sw	s5,8(sp)
    1b80:	c25a                	sw	s6,4(sp)
    while (mlen + s_inc[25] >= r) {
    1b82:	9732                	add	a4,a4,a2
static void keccak_inc_absorb(uint64_t *s_inc, uint32_t r, const uint8_t *m,
    1b84:	892a                	mv	s2,a0
    1b86:	89ae                	mv	s3,a1
    while (mlen + s_inc[25] >= r) {
    1b88:	12070663          	beqz	a4,1cb4 <keccak_inc_absorb.constprop.0+0x154>
        for (i = 0; i < r - (uint32_t)s_inc[25]; i++) {
    1b8c:	08800a93          	li	s5,136
            s_inc[(s_inc[25] + i) >> 3] ^= (uint64_t)m[i] << (8 * ((s_inc[25] + i) & 0x07));
    1b90:	4b7d                	li	s6,31
    while (mlen + s_inc[25] >= r) {
    1b92:	08700493          	li	s1,135
        for (i = 0; i < r - (uint32_t)s_inc[25]; i++) {
    1b96:	4701                	li	a4,0
    1b98:	03579663          	bne	a5,s5,1bc4 <keccak_inc_absorb.constprop.0+0x64>
    1b9c:	a8b9                	j	1bfa <keccak_inc_absorb.constprop.0+0x9a>
            s_inc[(s_inc[25] + i) >> 3] ^= (uint64_t)m[i] << (8 * ((s_inc[25] + i) & 0x07));
    1b9e:	01089833          	sll	a6,a7,a6
    1ba2:	4881                	li	a7,0
    1ba4:	4390                	lw	a2,0(a5)
    1ba6:	43d4                	lw	a3,4(a5)
        for (i = 0; i < r - (uint32_t)s_inc[25]; i++) {
    1ba8:	0705                	addi	a4,a4,1
            s_inc[(s_inc[25] + i) >> 3] ^= (uint64_t)m[i] << (8 * ((s_inc[25] + i) & 0x07));
    1baa:	011648b3          	xor	a7,a2,a7
    1bae:	0106c6b3          	xor	a3,a3,a6
    1bb2:	c3d4                	sw	a3,4(a5)
    1bb4:	0117a023          	sw	a7,0(a5)
        for (i = 0; i < r - (uint32_t)s_inc[25]; i++) {
    1bb8:	0c892783          	lw	a5,200(s2)
    1bbc:	40fa86b3          	sub	a3,s5,a5
    1bc0:	02d77963          	bgeu	a4,a3,1bf2 <keccak_inc_absorb.constprop.0+0x92>
            s_inc[(s_inc[25] + i) >> 3] ^= (uint64_t)m[i] << (8 * ((s_inc[25] + i) & 0x07));
    1bc4:	97ba                	add	a5,a5,a4
    1bc6:	0077f693          	andi	a3,a5,7
    1bca:	068e                	slli	a3,a3,0x3
    1bcc:	00e98633          	add	a2,s3,a4
    1bd0:	9be1                	andi	a5,a5,-8
    1bd2:	fe068813          	addi	a6,a3,-32
    1bd6:	00064883          	lbu	a7,0(a2)
    1bda:	40db05b3          	sub	a1,s6,a3
    1bde:	97ca                	add	a5,a5,s2
    1be0:	fa085fe3          	bgez	a6,1b9e <keccak_inc_absorb.constprop.0+0x3e>
    1be4:	0018d813          	srli	a6,a7,0x1
    1be8:	00b85833          	srl	a6,a6,a1
    1bec:	00d898b3          	sll	a7,a7,a3
    1bf0:	bf55                	j	1ba4 <keccak_inc_absorb.constprop.0+0x44>
        mlen -= (size_t)(r - s_inc[25]);
    1bf2:	f7878793          	addi	a5,a5,-136
    1bf6:	9a3e                	add	s4,s4,a5
        m += r - s_inc[25];
    1bf8:	99b6                	add	s3,s3,a3
        s_inc[25] = 0;
    1bfa:	4781                	li	a5,0
    1bfc:	4801                	li	a6,0
    1bfe:	0cf92423          	sw	a5,200(s2)
        keccak_ip_driver(s_inc, s_inc);
    1c02:	85ca                	mv	a1,s2
        s_inc[25] = 0;
    1c04:	0d092623          	sw	a6,204(s2)
        keccak_ip_driver(s_inc, s_inc);
    1c08:	854a                	mv	a0,s2
    1c0a:	36d9                	jal	17d0 <keccak_ip_driver>
    while (mlen + s_inc[25] >= r) {
    1c0c:	0c892683          	lw	a3,200(s2)
    1c10:	0cc92603          	lw	a2,204(s2)
    1c14:	00da05b3          	add	a1,s4,a3
    1c18:	0145b733          	sltu	a4,a1,s4
    1c1c:	9732                	add	a4,a4,a2
    1c1e:	87b6                	mv	a5,a3
    1c20:	fb3d                	bnez	a4,1b96 <keccak_inc_absorb.constprop.0+0x36>
    1c22:	f6b4eae3          	bltu	s1,a1,1b96 <keccak_inc_absorb.constprop.0+0x36>
    for (i = 0; i < mlen; i++) {
    1c26:	060a0663          	beqz	s4,1c92 <keccak_inc_absorb.constprop.0+0x132>
        for (i = 0; i < r - (uint32_t)s_inc[25]; i++) {
    1c2a:	4701                	li	a4,0
        s_inc[(s_inc[25] + i) >> 3] ^= (uint64_t)m[i] << (8 * ((s_inc[25] + i) & 0x07));
    1c2c:	487d                	li	a6,31
    1c2e:	a839                	j	1c4c <keccak_inc_absorb.constprop.0+0xec>
    1c30:	4388                	lw	a0,0(a5)
    1c32:	43d4                	lw	a3,4(a5)
    1c34:	00c59633          	sll	a2,a1,a2
    1c38:	4581                	li	a1,0
    1c3a:	8da9                	xor	a1,a1,a0
    1c3c:	8eb1                	xor	a3,a3,a2
    for (i = 0; i < mlen; i++) {
    1c3e:	0705                	addi	a4,a4,1
        s_inc[(s_inc[25] + i) >> 3] ^= (uint64_t)m[i] << (8 * ((s_inc[25] + i) & 0x07));
    1c40:	c38c                	sw	a1,0(a5)
    1c42:	c3d4                	sw	a3,4(a5)
    for (i = 0; i < mlen; i++) {
    1c44:	05477363          	bgeu	a4,s4,1c8a <keccak_inc_absorb.constprop.0+0x12a>
    s_inc[25] += mlen;
    1c48:	0c892783          	lw	a5,200(s2)
        s_inc[(s_inc[25] + i) >> 3] ^= (uint64_t)m[i] << (8 * ((s_inc[25] + i) & 0x07));
    1c4c:	97ba                	add	a5,a5,a4
    1c4e:	0077f693          	andi	a3,a5,7
    1c52:	068e                	slli	a3,a3,0x3
    1c54:	00e985b3          	add	a1,s3,a4
    1c58:	9be1                	andi	a5,a5,-8
    1c5a:	fe068613          	addi	a2,a3,-32
    1c5e:	0005c583          	lbu	a1,0(a1)
    1c62:	40d80533          	sub	a0,a6,a3
    1c66:	97ca                	add	a5,a5,s2
    1c68:	fc0654e3          	bgez	a2,1c30 <keccak_inc_absorb.constprop.0+0xd0>
    1c6c:	0015d613          	srli	a2,a1,0x1
    1c70:	00a65633          	srl	a2,a2,a0
    1c74:	00d595b3          	sll	a1,a1,a3
    1c78:	4388                	lw	a0,0(a5)
    1c7a:	43d4                	lw	a3,4(a5)
    for (i = 0; i < mlen; i++) {
    1c7c:	0705                	addi	a4,a4,1
        s_inc[(s_inc[25] + i) >> 3] ^= (uint64_t)m[i] << (8 * ((s_inc[25] + i) & 0x07));
    1c7e:	8da9                	xor	a1,a1,a0
    1c80:	8eb1                	xor	a3,a3,a2
    1c82:	c38c                	sw	a1,0(a5)
    1c84:	c3d4                	sw	a3,4(a5)
    for (i = 0; i < mlen; i++) {
    1c86:	fd4761e3          	bltu	a4,s4,1c48 <keccak_inc_absorb.constprop.0+0xe8>
    1c8a:	0c892683          	lw	a3,200(s2)
    1c8e:	0cc92603          	lw	a2,204(s2)
    s_inc[25] += mlen;
    1c92:	9a36                	add	s4,s4,a3
}
    1c94:	40f2                	lw	ra,28(sp)
    s_inc[25] += mlen;
    1c96:	00da37b3          	sltu	a5,s4,a3
    1c9a:	97b2                	add	a5,a5,a2
    1c9c:	0d492423          	sw	s4,200(s2)
    1ca0:	0cf92623          	sw	a5,204(s2)
}
    1ca4:	44e2                	lw	s1,24(sp)
    1ca6:	4952                	lw	s2,20(sp)
    1ca8:	49c2                	lw	s3,16(sp)
    1caa:	4a32                	lw	s4,12(sp)
    1cac:	4aa2                	lw	s5,8(sp)
    1cae:	4b12                	lw	s6,4(sp)
    1cb0:	6105                	addi	sp,sp,32
    1cb2:	8082                	ret
    while (mlen + s_inc[25] >= r) {
    1cb4:	08700713          	li	a4,135
    1cb8:	ecd76ae3          	bltu	a4,a3,1b8c <keccak_inc_absorb.constprop.0+0x2c>
    1cbc:	b7bd                	j	1c2a <keccak_inc_absorb.constprop.0+0xca>

00001cbe <print_exc_msg>:
/**
 * Default Error Handling
 * @param msg error message supplied by caller
 * TODO - this will be soon by a real print formatting
 */
static void print_exc_msg(const char *msg) {
    1cbe:	85aa                	mv	a1,a0
  printf("%s", msg);
    1cc0:	00080537          	lui	a0,0x80
static void print_exc_msg(const char *msg) {
    1cc4:	1141                	addi	sp,sp,-16
  printf("%s", msg);
    1cc6:	0b850513          	addi	a0,a0,184 # 800b8 <no_exception_handler_msg+0x23>
static void print_exc_msg(const char *msg) {
    1cca:	c606                	sw	ra,12(sp)
  printf("%s", msg);
    1ccc:	781010ef          	jal	ra,3c4c <iprintf>
  CSR_READ(CSR_REG_MTVAL, &mtval);
    1cd0:	343025f3          	csrr	a1,mtval
  printf("MTVAL value is 0x%x\n", get_mtval());
    1cd4:	00080537          	lui	a0,0x80
    1cd8:	0bc50513          	addi	a0,a0,188 # 800bc <no_exception_handler_msg+0x27>
    1cdc:	771010ef          	jal	ra,3c4c <iprintf>
  while (1) {
    1ce0:	a001                	j	1ce0 <print_exc_msg+0x22>

00001ce2 <PQCLEAN_KYBER768_CLEAN_poly_getnoise_eta1>:
void PQCLEAN_KYBER768_CLEAN_poly_getnoise_eta1(poly *r, const uint8_t seed[KYBER_SYMBYTES], uint8_t nonce) {
    1ce2:	7169                	addi	sp,sp,-304
    1ce4:	12912423          	sw	s1,296(sp)
    1ce8:	84aa                	mv	s1,a0
    state->ctx = malloc(PQC_SHAKECTX_BYTES);
    1cea:	0c800513          	li	a0,200
    1cee:	13312023          	sw	s3,288(sp)
    1cf2:	11412e23          	sw	s4,284(sp)
    1cf6:	12112623          	sw	ra,300(sp)
    1cfa:	13212223          	sw	s2,292(sp)
    1cfe:	89ae                	mv	s3,a1
    1d00:	8a32                	mv	s4,a2
    1d02:	6e5010ef          	jal	ra,3be6 <malloc>
    if (state->ctx == NULL) {
    1d06:	14050b63          	beqz	a0,1e5c <PQCLEAN_KYBER768_CLEAN_poly_getnoise_eta1+0x17a>
    keccak_absorb(state->ctx, SHAKE256_RATE, input, inlen, 0x1F);
    1d0a:	477d                	li	a4,31
    1d0c:	86d2                	mv	a3,s4
    1d0e:	864e                	mv	a2,s3
    1d10:	08800593          	li	a1,136
    1d14:	892a                	mv	s2,a0
    1d16:	39b1                	jal	1972 <keccak_absorb>
        keccak_ip_driver(s,s);
    1d18:	85ca                	mv	a1,s2
    1d1a:	854a                	mv	a0,s2
    1d1c:	3c55                	jal	17d0 <keccak_ip_driver>
    1d1e:	08810e93          	addi	t4,sp,136
    1d22:	4301                	li	t1,0
        x[i] = (uint8_t) (u >> 8 * i);
    1d24:	4e7d                	li	t3,31
    for (size_t i = 0; i < 8; ++i) {
    1d26:	04000593          	li	a1,64
        for (size_t i = 0; i < (r >> 3); i++) {
    1d2a:	08800f13          	li	t5,136
            store64(h + 8 * i, s[i]);
    1d2e:	006907b3          	add	a5,s2,t1
    1d32:	43c8                	lw	a0,4(a5)
    1d34:	0007a883          	lw	a7,0(a5)
    1d38:	86f6                	mv	a3,t4
    1d3a:	4701                	li	a4,0
        x[i] = (uint8_t) (u >> 8 * i);
    1d3c:	00151813          	slli	a6,a0,0x1
    1d40:	a809                	j	1d52 <PQCLEAN_KYBER768_CLEAN_poly_getnoise_eta1+0x70>
    1d42:	00f557b3          	srl	a5,a0,a5
    1d46:	00f68023          	sb	a5,0(a3)
    for (size_t i = 0; i < 8; ++i) {
    1d4a:	0721                	addi	a4,a4,8
    1d4c:	0685                	addi	a3,a3,1
    1d4e:	02b70363          	beq	a4,a1,1d74 <PQCLEAN_KYBER768_CLEAN_poly_getnoise_eta1+0x92>
        x[i] = (uint8_t) (u >> 8 * i);
    1d52:	fe070793          	addi	a5,a4,-32 # efffffe0 <_sp+0xeff1f730>
    1d56:	fe07d6e3          	bgez	a5,1d42 <PQCLEAN_KYBER768_CLEAN_poly_getnoise_eta1+0x60>
    1d5a:	40ee0633          	sub	a2,t3,a4
    1d5e:	00e8d7b3          	srl	a5,a7,a4
    1d62:	00c81633          	sll	a2,a6,a2
    1d66:	8fd1                	or	a5,a5,a2
    1d68:	00f68023          	sb	a5,0(a3)
    for (size_t i = 0; i < 8; ++i) {
    1d6c:	0721                	addi	a4,a4,8
    1d6e:	0685                	addi	a3,a3,1
    1d70:	feb711e3          	bne	a4,a1,1d52 <PQCLEAN_KYBER768_CLEAN_poly_getnoise_eta1+0x70>
        for (size_t i = 0; i < (r >> 3); i++) {
    1d74:	0321                	addi	t1,t1,8
    1d76:	0ea1                	addi	t4,t4,8
    1d78:	fbe31be3          	bne	t1,t5,1d2e <PQCLEAN_KYBER768_CLEAN_poly_getnoise_eta1+0x4c>
            output[i] = t[i];
    1d7c:	013c                	addi	a5,sp,136
    1d7e:	0038                	addi	a4,sp,8
    1d80:	10810813          	addi	a6,sp,264
    1d84:	4388                	lw	a0,0(a5)
    1d86:	43cc                	lw	a1,4(a5)
    1d88:	4790                	lw	a2,8(a5)
    1d8a:	47d4                	lw	a3,12(a5)
    1d8c:	c308                	sw	a0,0(a4)
    1d8e:	c34c                	sw	a1,4(a4)
    1d90:	c710                	sw	a2,8(a4)
    1d92:	c754                	sw	a3,12(a4)
    1d94:	07c1                	addi	a5,a5,16
    1d96:	0741                	addi	a4,a4,16
    1d98:	ff0796e3          	bne	a5,a6,1d84 <PQCLEAN_KYBER768_CLEAN_poly_getnoise_eta1+0xa2>
    free(state->ctx);
    1d9c:	854a                	mv	a0,s2
    1d9e:	655010ef          	jal	ra,3bf2 <free>
static void cbd2(poly *r, const uint8_t buf[2 * KYBER_N / 4]) {
    unsigned int i, j;
    uint32_t t, d;
    int16_t a, b;

    for (i = 0; i < KYBER_N / 8; i++) {
    1da2:	0030                	addi	a2,sp,8
    1da4:	4781                	li	a5,0
        //    b = (d >> (4 * j + 2)) & 0x3;
        //    r->coeffs[8 * i + j] = a - b;
        //}
        asm volatile (".insn i 0x2b, 2, %[dst], %[src], 0\r\n" : [dst] "=r" (d) : [src] "r" (buf + 4 * i) : );

        asm volatile (".insn r 0x0b, 0x5, 0x9, %[dst], %[src], %[x]\r\n" : [dst] "=r" (r->coeffs[8 * i])      : [src] "r" (d), [x] "r" (0) : );
    1da6:	4f81                	li	t6,0
        asm volatile (".insn r 0x0b, 0x5, 0x10, %[dst], %[src], %[x]\r\n" : [dst] "=r" (r->coeffs[8 * i + 1]) : [src] "r" (d), [x] "r" (1) : );
    1da8:	4f05                	li	t5,1
        asm volatile (".insn r 0x0b, 0x5, 0x11, %[dst], %[src], %[x]\r\n" : [dst] "=r" (r->coeffs[8 * i + 2]) : [src] "r" (d), [x] "r" (2) : );
    1daa:	4e89                	li	t4,2
        asm volatile (".insn r 0x0b, 0x5, 0x12, %[dst], %[src], %[x]\r\n" : [dst] "=r" (r->coeffs[8 * i + 3]) : [src] "r" (d), [x] "r" (3) : );
    1dac:	4e0d                	li	t3,3
        asm volatile (".insn r 0x0b, 0x5, 0x13, %[dst], %[src], %[x]\r\n" : [dst] "=r" (r->coeffs[8 * i + 4]) : [src] "r" (d), [x] "r" (4) : );
    1dae:	4311                	li	t1,4
        asm volatile (".insn r 0x0b, 0x5, 0x14, %[dst], %[src], %[x]\r\n" : [dst] "=r" (r->coeffs[8 * i + 5]) : [src] "r" (d), [x] "r" (5) : );
    1db0:	4895                	li	a7,5
        asm volatile (".insn r 0x0b, 0x5, 0x15, %[dst], %[src], %[x]\r\n" : [dst] "=r" (r->coeffs[8 * i + 6]) : [src] "r" (d), [x] "r" (6) : );
    1db2:	4819                	li	a6,6
        asm volatile (".insn r 0x0b, 0x5, 0x16, %[dst], %[src], %[x]\r\n" : [dst] "=r" (r->coeffs[8 * i + 7]) : [src] "r" (d), [x] "r" (7) : );
    1db4:	451d                	li	a0,7
    for (i = 0; i < KYBER_N / 8; i++) {
    1db6:	10000593          	li	a1,256
        asm volatile (".insn i 0x2b, 2, %[dst], %[src], 0\r\n" : [dst] "=r" (d) : [src] "r" (buf + 4 * i) : );
    1dba:	0006272b          	0x6272b
        asm volatile (".insn r 0x0b, 0x5, 0x9, %[dst], %[src], %[x]\r\n" : [dst] "=r" (r->coeffs[8 * i])      : [src] "r" (d), [x] "r" (0) : );
    1dbe:	13f7528b          	0x13f7528b
    1dc2:	00179693          	slli	a3,a5,0x1
    1dc6:	96a6                	add	a3,a3,s1
    1dc8:	00569023          	sh	t0,0(a3)
        asm volatile (".insn r 0x0b, 0x5, 0x10, %[dst], %[src], %[x]\r\n" : [dst] "=r" (r->coeffs[8 * i + 1]) : [src] "r" (d), [x] "r" (1) : );
    1dcc:	21e7528b          	0x21e7528b
    1dd0:	00178693          	addi	a3,a5,1
    1dd4:	0686                	slli	a3,a3,0x1
    1dd6:	96a6                	add	a3,a3,s1
    1dd8:	00569023          	sh	t0,0(a3)
        asm volatile (".insn r 0x0b, 0x5, 0x11, %[dst], %[src], %[x]\r\n" : [dst] "=r" (r->coeffs[8 * i + 2]) : [src] "r" (d), [x] "r" (2) : );
    1ddc:	23d7528b          	0x23d7528b
    1de0:	00278693          	addi	a3,a5,2
    1de4:	0686                	slli	a3,a3,0x1
    1de6:	96a6                	add	a3,a3,s1
    1de8:	00569023          	sh	t0,0(a3)
        asm volatile (".insn r 0x0b, 0x5, 0x12, %[dst], %[src], %[x]\r\n" : [dst] "=r" (r->coeffs[8 * i + 3]) : [src] "r" (d), [x] "r" (3) : );
    1dec:	25c7528b          	0x25c7528b
    1df0:	00378693          	addi	a3,a5,3
    1df4:	0686                	slli	a3,a3,0x1
    1df6:	96a6                	add	a3,a3,s1
    1df8:	00569023          	sh	t0,0(a3)
        asm volatile (".insn r 0x0b, 0x5, 0x13, %[dst], %[src], %[x]\r\n" : [dst] "=r" (r->coeffs[8 * i + 4]) : [src] "r" (d), [x] "r" (4) : );
    1dfc:	2667528b          	0x2667528b
    1e00:	00478693          	addi	a3,a5,4
    1e04:	0686                	slli	a3,a3,0x1
    1e06:	96a6                	add	a3,a3,s1
    1e08:	00569023          	sh	t0,0(a3)
        asm volatile (".insn r 0x0b, 0x5, 0x14, %[dst], %[src], %[x]\r\n" : [dst] "=r" (r->coeffs[8 * i + 5]) : [src] "r" (d), [x] "r" (5) : );
    1e0c:	2917528b          	0x2917528b
    1e10:	00578693          	addi	a3,a5,5
    1e14:	0686                	slli	a3,a3,0x1
    1e16:	96a6                	add	a3,a3,s1
    1e18:	00569023          	sh	t0,0(a3)
        asm volatile (".insn r 0x0b, 0x5, 0x15, %[dst], %[src], %[x]\r\n" : [dst] "=r" (r->coeffs[8 * i + 6]) : [src] "r" (d), [x] "r" (6) : );
    1e1c:	2b07528b          	0x2b07528b
    1e20:	00678693          	addi	a3,a5,6
    1e24:	0686                	slli	a3,a3,0x1
    1e26:	96a6                	add	a3,a3,s1
    1e28:	00569023          	sh	t0,0(a3)
        asm volatile (".insn r 0x0b, 0x5, 0x16, %[dst], %[src], %[x]\r\n" : [dst] "=r" (r->coeffs[8 * i + 7]) : [src] "r" (d), [x] "r" (7) : );
    1e2c:	2ca7570b          	0x2ca7570b
    1e30:	00778693          	addi	a3,a5,7
    1e34:	0686                	slli	a3,a3,0x1
    1e36:	96a6                	add	a3,a3,s1
    1e38:	00e69023          	sh	a4,0(a3)
    for (i = 0; i < KYBER_N / 8; i++) {
    1e3c:	07a1                	addi	a5,a5,8
    1e3e:	0611                	addi	a2,a2,4
    1e40:	f6b79de3          	bne	a5,a1,1dba <PQCLEAN_KYBER768_CLEAN_poly_getnoise_eta1+0xd8>
}
    1e44:	12c12083          	lw	ra,300(sp)
    1e48:	12812483          	lw	s1,296(sp)
    1e4c:	12412903          	lw	s2,292(sp)
    1e50:	12012983          	lw	s3,288(sp)
    1e54:	11c12a03          	lw	s4,284(sp)
    1e58:	6155                	addi	sp,sp,304
    1e5a:	8082                	ret
        exit(111);
    1e5c:	06f00513          	li	a0,111
    1e60:	b8cfe0ef          	jal	ra,1ec <exit>

00001e64 <PQCLEAN_KYBER768_CLEAN_gen_matrix.constprop.0>:
void PQCLEAN_KYBER768_CLEAN_gen_matrix(polyvec *a, const uint8_t seed[KYBER_SYMBYTES], int transposed) {
    1e64:	da010113          	addi	sp,sp,-608
    1e68:	24912c23          	sw	s1,600(sp)
    memcpy(extseed, seed, KYBER_SYMBYTES);
    1e6c:	02000613          	li	a2,32
void PQCLEAN_KYBER768_CLEAN_gen_matrix(polyvec *a, const uint8_t seed[KYBER_SYMBYTES], int transposed) {
    1e70:	84aa                	mv	s1,a0
    memcpy(extseed, seed, KYBER_SYMBYTES);
    1e72:	0808                	addi	a0,sp,16
void PQCLEAN_KYBER768_CLEAN_gen_matrix(polyvec *a, const uint8_t seed[KYBER_SYMBYTES], int transposed) {
    1e74:	25312823          	sw	s3,592(sp)
    1e78:	23912c23          	sw	s9,568(sp)
    1e7c:	24112e23          	sw	ra,604(sp)
    1e80:	25212a23          	sw	s2,596(sp)
    1e84:	25412623          	sw	s4,588(sp)
    1e88:	25512423          	sw	s5,584(sp)
    1e8c:	25612223          	sw	s6,580(sp)
    1e90:	25712023          	sw	s7,576(sp)
    1e94:	23812e23          	sw	s8,572(sp)
    1e98:	23a12a23          	sw	s10,564(sp)
    1e9c:	23b12823          	sw	s11,560(sp)
    for (i = 0; i < KYBER_K; i++) {
    1ea0:	4981                	li	s3,0
    memcpy(extseed, seed, KYBER_SYMBYTES);
    1ea2:	55d010ef          	jal	ra,3bfe <memcpy>
    keccak_absorb(state->ctx, SHAKE128_RATE, input, inlen, 0x1F);
    1ea6:	4cfd                	li	s9,31
    1ea8:	0ff9f793          	zext.b	a5,s3
    1eac:	c63e                	sw	a5,12(sp)
void PQCLEAN_KYBER768_CLEAN_gen_matrix(polyvec *a, const uint8_t seed[KYBER_SYMBYTES], int transposed) {
    1eae:	8a26                	mv	s4,s1
        for (j = 0; j < KYBER_K; j++) {
    1eb0:	4901                	li	s2,0
            while (ctr < KYBER_N) {
    1eb2:	0ff00a93          	li	s5,255
                extseed[KYBER_SYMBYTES + 1] = (uint8_t)i;
    1eb6:	47b2                	lw	a5,12(sp)
    state->ctx = malloc(PQC_SHAKECTX_BYTES);
    1eb8:	0c800513          	li	a0,200
                extseed[KYBER_SYMBYTES + 0] = (uint8_t)j;
    1ebc:	03210823          	sb	s2,48(sp)
                extseed[KYBER_SYMBYTES + 1] = (uint8_t)i;
    1ec0:	02f108a3          	sb	a5,49(sp)
    1ec4:	523010ef          	jal	ra,3be6 <malloc>
    1ec8:	8d2a                	mv	s10,a0
    if (state->ctx == NULL) {
    1eca:	16050263          	beqz	a0,202e <PQCLEAN_KYBER768_CLEAN_gen_matrix.constprop.0+0x1ca>
    keccak_absorb(state->ctx, SHAKE128_RATE, input, inlen, 0x1F);
    1ece:	477d                	li	a4,31
    1ed0:	02200693          	li	a3,34
    1ed4:	0810                	addi	a2,sp,16
    1ed6:	0a800593          	li	a1,168
    1eda:	3c61                	jal	1972 <keccak_absorb>
    1edc:	03410d93          	addi	s11,sp,52
    for (size_t i = 0; i < 8; ++i) {
    1ee0:	04000c13          	li	s8,64
        for (size_t i = 0; i < (r >> 3); i++) {
    1ee4:	0a800b13          	li	s6,168
        keccak_ip_driver(s,s);
    1ee8:	856a                	mv	a0,s10
    1eea:	85ea                	mv	a1,s10
    1eec:	8e5ff0ef          	jal	ra,17d0 <keccak_ip_driver>
    1ef0:	4501                	li	a0,0
            store64(h + 8 * i, s[i]);
    1ef2:	00ad07b3          	add	a5,s10,a0
    1ef6:	43cc                	lw	a1,4(a5)
    1ef8:	0007a883          	lw	a7,0(a5)
    1efc:	00ad86b3          	add	a3,s11,a0
    1f00:	4701                	li	a4,0
        x[i] = (uint8_t) (u >> 8 * i);
    1f02:	00159813          	slli	a6,a1,0x1
    1f06:	a809                	j	1f18 <PQCLEAN_KYBER768_CLEAN_gen_matrix.constprop.0+0xb4>
    1f08:	00f5d7b3          	srl	a5,a1,a5
    1f0c:	00f68023          	sb	a5,0(a3)
    for (size_t i = 0; i < 8; ++i) {
    1f10:	0721                	addi	a4,a4,8
    1f12:	0685                	addi	a3,a3,1
    1f14:	03870363          	beq	a4,s8,1f3a <PQCLEAN_KYBER768_CLEAN_gen_matrix.constprop.0+0xd6>
        x[i] = (uint8_t) (u >> 8 * i);
    1f18:	fe070793          	addi	a5,a4,-32
    1f1c:	fe07d6e3          	bgez	a5,1f08 <PQCLEAN_KYBER768_CLEAN_gen_matrix.constprop.0+0xa4>
    1f20:	40ec8633          	sub	a2,s9,a4
    1f24:	00e8d7b3          	srl	a5,a7,a4
    1f28:	00c81633          	sll	a2,a6,a2
    1f2c:	8fd1                	or	a5,a5,a2
    1f2e:	00f68023          	sb	a5,0(a3)
    for (size_t i = 0; i < 8; ++i) {
    1f32:	0721                	addi	a4,a4,8
    1f34:	0685                	addi	a3,a3,1
    1f36:	ff8711e3          	bne	a4,s8,1f18 <PQCLEAN_KYBER768_CLEAN_gen_matrix.constprop.0+0xb4>
        for (size_t i = 0; i < (r >> 3); i++) {
    1f3a:	0521                	addi	a0,a0,8
    1f3c:	fb651be3          	bne	a0,s6,1ef2 <PQCLEAN_KYBER768_CLEAN_gen_matrix.constprop.0+0x8e>
        h += r;
    1f40:	0a8d8d93          	addi	s11,s11,168
    while (nblocks > 0) {
    1f44:	147c                	addi	a5,sp,556
    1f46:	fafd91e3          	bne	s11,a5,1ee8 <PQCLEAN_KYBER768_CLEAN_gen_matrix.constprop.0+0x84>
            ctr = rej_uniform(a[i].vec[j].coeffs, KYBER_N, buf, buflen);
    1f4a:	1f800693          	li	a3,504
    1f4e:	1850                	addi	a2,sp,52
    1f50:	10000593          	li	a1,256
    1f54:	8552                	mv	a0,s4
    1f56:	9faff0ef          	jal	ra,1150 <rej_uniform>
    1f5a:	8b2a                	mv	s6,a0
    for (size_t i = 0; i < 8; ++i) {
    1f5c:	04000d93          	li	s11,64
        for (size_t i = 0; i < (r >> 3); i++) {
    1f60:	0a800b93          	li	s7,168
                ctr += rej_uniform(a[i].vec[j].coeffs + ctr, KYBER_N - ctr, buf, buflen);
    1f64:	10000c13          	li	s8,256
            while (ctr < KYBER_N) {
    1f68:	06aaed63          	bltu	s5,a0,1fe2 <PQCLEAN_KYBER768_CLEAN_gen_matrix.constprop.0+0x17e>
        keccak_ip_driver(s,s);
    1f6c:	85ea                	mv	a1,s10
    1f6e:	856a                	mv	a0,s10
    1f70:	861ff0ef          	jal	ra,17d0 <keccak_ip_driver>
    1f74:	03410e93          	addi	t4,sp,52
    1f78:	4e01                	li	t3,0
            store64(h + 8 * i, s[i]);
    1f7a:	01cd07b3          	add	a5,s10,t3
    1f7e:	43cc                	lw	a1,4(a5)
    1f80:	0007a803          	lw	a6,0(a5)
    1f84:	86f6                	mv	a3,t4
    1f86:	4701                	li	a4,0
        x[i] = (uint8_t) (u >> 8 * i);
    1f88:	00159513          	slli	a0,a1,0x1
    1f8c:	a809                	j	1f9e <PQCLEAN_KYBER768_CLEAN_gen_matrix.constprop.0+0x13a>
    1f8e:	00f5d7b3          	srl	a5,a1,a5
    1f92:	00f68023          	sb	a5,0(a3)
    for (size_t i = 0; i < 8; ++i) {
    1f96:	0721                	addi	a4,a4,8
    1f98:	0685                	addi	a3,a3,1
    1f9a:	03b70363          	beq	a4,s11,1fc0 <PQCLEAN_KYBER768_CLEAN_gen_matrix.constprop.0+0x15c>
        x[i] = (uint8_t) (u >> 8 * i);
    1f9e:	fe070793          	addi	a5,a4,-32
    1fa2:	fe07d6e3          	bgez	a5,1f8e <PQCLEAN_KYBER768_CLEAN_gen_matrix.constprop.0+0x12a>
    1fa6:	40ec8633          	sub	a2,s9,a4
    1faa:	00e857b3          	srl	a5,a6,a4
    1fae:	00c51633          	sll	a2,a0,a2
    1fb2:	8fd1                	or	a5,a5,a2
    1fb4:	00f68023          	sb	a5,0(a3)
    for (size_t i = 0; i < 8; ++i) {
    1fb8:	0721                	addi	a4,a4,8
    1fba:	0685                	addi	a3,a3,1
    1fbc:	ffb711e3          	bne	a4,s11,1f9e <PQCLEAN_KYBER768_CLEAN_gen_matrix.constprop.0+0x13a>
        for (size_t i = 0; i < (r >> 3); i++) {
    1fc0:	0e21                	addi	t3,t3,8
    1fc2:	0ea1                	addi	t4,t4,8
    1fc4:	fb7e1be3          	bne	t3,s7,1f7a <PQCLEAN_KYBER768_CLEAN_gen_matrix.constprop.0+0x116>
                ctr += rej_uniform(a[i].vec[j].coeffs + ctr, KYBER_N - ctr, buf, buflen);
    1fc8:	001b1513          	slli	a0,s6,0x1
    1fcc:	416c05b3          	sub	a1,s8,s6
    1fd0:	0a800693          	li	a3,168
    1fd4:	1850                	addi	a2,sp,52
    1fd6:	9552                	add	a0,a0,s4
    1fd8:	978ff0ef          	jal	ra,1150 <rej_uniform>
    1fdc:	9b2a                	add	s6,s6,a0
            while (ctr < KYBER_N) {
    1fde:	f96af7e3          	bgeu	s5,s6,1f6c <PQCLEAN_KYBER768_CLEAN_gen_matrix.constprop.0+0x108>
        for (j = 0; j < KYBER_K; j++) {
    1fe2:	0905                	addi	s2,s2,1
    1fe4:	478d                	li	a5,3
    1fe6:	200a0a13          	addi	s4,s4,512
    1fea:	ecf916e3          	bne	s2,a5,1eb6 <PQCLEAN_KYBER768_CLEAN_gen_matrix.constprop.0+0x52>
    for (i = 0; i < KYBER_K; i++) {
    1fee:	0985                	addi	s3,s3,1
    1ff0:	60048493          	addi	s1,s1,1536
    1ff4:	eb299ae3          	bne	s3,s2,1ea8 <PQCLEAN_KYBER768_CLEAN_gen_matrix.constprop.0+0x44>
}
    1ff8:	25c12083          	lw	ra,604(sp)
    1ffc:	25812483          	lw	s1,600(sp)
    2000:	25412903          	lw	s2,596(sp)
    2004:	25012983          	lw	s3,592(sp)
    2008:	24c12a03          	lw	s4,588(sp)
    200c:	24812a83          	lw	s5,584(sp)
    2010:	24412b03          	lw	s6,580(sp)
    2014:	24012b83          	lw	s7,576(sp)
    2018:	23c12c03          	lw	s8,572(sp)
    201c:	23812c83          	lw	s9,568(sp)
    2020:	23412d03          	lw	s10,564(sp)
    2024:	23012d83          	lw	s11,560(sp)
    2028:	26010113          	addi	sp,sp,608
    202c:	8082                	ret
        exit(111);
    202e:	06f00513          	li	a0,111
    2032:	9bafe0ef          	jal	ra,1ec <exit>

00002036 <PQCLEAN_KYBER768_CLEAN_indcpa_enc>:
                                       const uint8_t coins[KYBER_SYMBYTES]) {
    2036:	711d                	addi	sp,sp,-96
    2038:	72f5                	lui	t0,0xffffd
    203a:	cca6                	sw	s1,88(sp)
    203c:	c6d2                	sw	s4,76(sp)
    203e:	84aa                	mv	s1,a0
    PQCLEAN_KYBER768_CLEAN_polyvec_frombytes(pk, packedpk);
    2040:	6a0d                	lui	s4,0x3
    2042:	7579                	lui	a0,0xffffe
                                       const uint8_t coins[KYBER_SYMBYTES]) {
    2044:	ce86                	sw	ra,92(sp)
    2046:	caca                	sw	s2,84(sp)
    2048:	c8ce                	sw	s3,80(sp)
    204a:	c4d6                	sw	s5,72(sp)
    204c:	c2da                	sw	s6,68(sp)
    204e:	c0de                	sw	s7,64(sp)
    2050:	de62                	sw	s8,60(sp)
    2052:	dc66                	sw	s9,56(sp)
    2054:	da6a                	sw	s10,52(sp)
    2056:	d86e                	sw	s11,48(sp)
    PQCLEAN_KYBER768_CLEAN_polyvec_frombytes(pk, packedpk);
    2058:	20050513          	addi	a0,a0,512 # ffffe200 <_sp+0xfff1d950>
                                       const uint8_t coins[KYBER_SYMBYTES]) {
    205c:	9116                	add	sp,sp,t0
    PQCLEAN_KYBER768_CLEAN_polyvec_frombytes(pk, packedpk);
    205e:	020a0793          	addi	a5,s4,32 # 3020 <__swbuf_r+0x78>
    2062:	97aa                	add	a5,a5,a0
    2064:	0818                	addi	a4,sp,16
    2066:	00e78533          	add	a0,a5,a4
                                       const uint8_t coins[KYBER_SYMBYTES]) {
    206a:	8c2e                	mv	s8,a1
    PQCLEAN_KYBER768_CLEAN_polyvec_frombytes(pk, packedpk);
    206c:	85b2                	mv	a1,a2
                                       const uint8_t coins[KYBER_SYMBYTES]) {
    206e:	8932                	mv	s2,a2
    2070:	89b6                	mv	s3,a3
    PQCLEAN_KYBER768_CLEAN_polyvec_frombytes(pk, packedpk);
    2072:	ef1fe0ef          	jal	ra,f62 <PQCLEAN_KYBER768_CLEAN_polyvec_frombytes>
    memcpy(seed, packedpk + KYBER_POLYVECBYTES, KYBER_SYMBYTES);
    2076:	77f5                	lui	a5,0xffffd
    2078:	020a0713          	addi	a4,s4,32
    207c:	973e                	add	a4,a4,a5
    207e:	081c                	addi	a5,sp,16
    2080:	97ba                	add	a5,a5,a4
    2082:	02000613          	li	a2,32
    2086:	48090593          	addi	a1,s2,1152
    208a:	fe078513          	addi	a0,a5,-32 # ffffcfe0 <_sp+0xfff1c730>
    208e:	c63e                	sw	a5,12(sp)
    2090:	36f010ef          	jal	ra,3bfe <memcpy>
            asm volatile (".insn r 0x0b, 0x006, 27, %[dst], %[src], %[src2]\r\n" : [dst] "=r" (r->coeffs[8*i+0])  : [src] "r" (msg[i]), [src2] "r" (0) :   );
    2094:	7af5                	lui	s5,0xffffd
    2096:	4e85                	li	t4,1
    2098:	4b81                	li	s7,0
            asm volatile (".insn r 0x0b, 0x006, 27, %[dst], %[src], %[src2]\r\n" : [dst] "=r" (r->coeffs[8*i+1])  : [src] "r" (msg[i]), [src2] "r" (1) :   );
    209a:	4b05                	li	s6,1
            asm volatile (".insn r 0x0b, 0x006, 27, %[dst], %[src], %[src2]\r\n" : [dst] "=r" (r->coeffs[8*i+2])  : [src] "r" (msg[i]), [src2] "r" (2) :   );
    209c:	4a09                	li	s4,2
            asm volatile (".insn r 0x0b, 0x006, 27, %[dst], %[src], %[src2]\r\n" : [dst] "=r" (r->coeffs[8*i+3])  : [src] "r" (msg[i]), [src2] "r" (3) :   );
    209e:	408d                	li	ra,3
            asm volatile (".insn r 0x0b, 0x006, 27, %[dst], %[src], %[src2]\r\n" : [dst] "=r" (r->coeffs[8*i+4])  : [src] "r" (msg[i]), [src2] "r" (4) :   );
    20a0:	4391                	li	t2,4
            asm volatile (".insn r 0x0b, 0x006, 27, %[dst], %[src], %[src2]\r\n" : [dst] "=r" (r->coeffs[8*i+5])  : [src] "r" (msg[i]), [src2] "r" (5) :   );
    20a2:	4295                	li	t0,5
            asm volatile (".insn r 0x0b, 0x006, 27, %[dst], %[src], %[src2]\r\n" : [dst] "=r" (r->coeffs[8*i+6])  : [src] "r" (msg[i]), [src2] "r" (6) :   );
    20a4:	4f99                	li	t6,6
            asm volatile (".insn r 0x0b, 0x006, 27, %[dst], %[src], %[src2]\r\n" : [dst] "=r" (r->coeffs[8*i+7])  : [src] "r" (msg[i]), [src2] "r" (7) :   );
    20a6:	4f1d                	li	t5,7
    for (i = 0; i < KYBER_N / 8; i++) {
    20a8:	10100c93          	li	s9,257
            asm volatile (".insn r 0x0b, 0x006, 27, %[dst], %[src], %[src2]\r\n" : [dst] "=r" (r->coeffs[8*i+0])  : [src] "r" (msg[i]), [src2] "r" (0) :   );
    20ac:	4732                	lw	a4,12(sp)
    20ae:	fffe8313          	addi	t1,t4,-1
            asm volatile (".insn r 0x0b, 0x006, 27, %[dst], %[src], %[src2]\r\n" : [dst] "=r" (r->coeffs[8*i+2])  : [src] "r" (msg[i]), [src2] "r" (2) :   );
    20b2:	001e8893          	addi	a7,t4,1
            asm volatile (".insn r 0x0b, 0x006, 27, %[dst], %[src], %[src2]\r\n" : [dst] "=r" (r->coeffs[8*i+3])  : [src] "r" (msg[i]), [src2] "r" (3) :   );
    20b6:	002e8693          	addi	a3,t4,2
            asm volatile (".insn r 0x0b, 0x006, 27, %[dst], %[src], %[src2]\r\n" : [dst] "=r" (r->coeffs[8*i+4])  : [src] "r" (msg[i]), [src2] "r" (4) :   );
    20ba:	003e8813          	addi	a6,t4,3
            asm volatile (".insn r 0x0b, 0x006, 27, %[dst], %[src], %[src2]\r\n" : [dst] "=r" (r->coeffs[8*i+5])  : [src] "r" (msg[i]), [src2] "r" (5) :   );
    20be:	004e8513          	addi	a0,t4,4
            asm volatile (".insn r 0x0b, 0x006, 27, %[dst], %[src], %[src2]\r\n" : [dst] "=r" (r->coeffs[8*i+6])  : [src] "r" (msg[i]), [src2] "r" (6) :   );
    20c2:	005e8593          	addi	a1,t4,5
            asm volatile (".insn r 0x0b, 0x006, 27, %[dst], %[src], %[src2]\r\n" : [dst] "=r" (r->coeffs[8*i+7])  : [src] "r" (msg[i]), [src2] "r" (7) :   );
    20c6:	006e8613          	addi	a2,t4,6
    20ca:	000c4783          	lbu	a5,0(s8)
    20ce:	0306                	slli	t1,t1,0x1
    20d0:	001e9e13          	slli	t3,t4,0x1
    20d4:	0886                	slli	a7,a7,0x1
    20d6:	0686                	slli	a3,a3,0x1
    20d8:	0806                	slli	a6,a6,0x1
    20da:	0506                	slli	a0,a0,0x1
    20dc:	0586                	slli	a1,a1,0x1
    20de:	0606                	slli	a2,a2,0x1
    20e0:	4921                	li	s2,8
            asm volatile (".insn r 0x0b, 0x006, 27, %[dst], %[src], %[src2]\r\n" : [dst] "=r" (r->coeffs[8*i+0])  : [src] "r" (msg[i]), [src2] "r" (0) :   );
    20e2:	933a                	add	t1,t1,a4
            asm volatile (".insn r 0x0b, 0x006, 27, %[dst], %[src], %[src2]\r\n" : [dst] "=r" (r->coeffs[8*i+1])  : [src] "r" (msg[i]), [src2] "r" (1) :   );
    20e4:	9e3a                	add	t3,t3,a4
            asm volatile (".insn r 0x0b, 0x006, 27, %[dst], %[src], %[src2]\r\n" : [dst] "=r" (r->coeffs[8*i+2])  : [src] "r" (msg[i]), [src2] "r" (2) :   );
    20e6:	98ba                	add	a7,a7,a4
            asm volatile (".insn r 0x0b, 0x006, 27, %[dst], %[src], %[src2]\r\n" : [dst] "=r" (r->coeffs[8*i+3])  : [src] "r" (msg[i]), [src2] "r" (3) :   );
    20e8:	96ba                	add	a3,a3,a4
            asm volatile (".insn r 0x0b, 0x006, 27, %[dst], %[src], %[src2]\r\n" : [dst] "=r" (r->coeffs[8*i+4])  : [src] "r" (msg[i]), [src2] "r" (4) :   );
    20ea:	983a                	add	a6,a6,a4
            asm volatile (".insn r 0x0b, 0x006, 27, %[dst], %[src], %[src2]\r\n" : [dst] "=r" (r->coeffs[8*i+5])  : [src] "r" (msg[i]), [src2] "r" (5) :   );
    20ec:	953a                	add	a0,a0,a4
            asm volatile (".insn r 0x0b, 0x006, 27, %[dst], %[src], %[src2]\r\n" : [dst] "=r" (r->coeffs[8*i+6])  : [src] "r" (msg[i]), [src2] "r" (6) :   );
    20ee:	95ba                	add	a1,a1,a4
            asm volatile (".insn r 0x0b, 0x006, 27, %[dst], %[src], %[src2]\r\n" : [dst] "=r" (r->coeffs[8*i+7])  : [src] "r" (msg[i]), [src2] "r" (7) :   );
    20f0:	963a                	add	a2,a2,a4
            asm volatile (".insn r 0x0b, 0x006, 27, %[dst], %[src], %[src2]\r\n" : [dst] "=r" (r->coeffs[8*i+0])  : [src] "r" (msg[i]), [src2] "r" (0) :   );
    20f2:	3777e70b          	0x3777e70b
    20f6:	20e31023          	sh	a4,512(t1)
            asm volatile (".insn r 0x0b, 0x006, 27, %[dst], %[src], %[src2]\r\n" : [dst] "=r" (r->coeffs[8*i+1])  : [src] "r" (msg[i]), [src2] "r" (1) :   );
    20fa:	3767e70b          	0x3767e70b
    20fe:	20ee1023          	sh	a4,512(t3)
            asm volatile (".insn r 0x0b, 0x006, 27, %[dst], %[src], %[src2]\r\n" : [dst] "=r" (r->coeffs[8*i+2])  : [src] "r" (msg[i]), [src2] "r" (2) :   );
    2102:	3747e70b          	0x3747e70b
    2106:	20e89023          	sh	a4,512(a7)
            asm volatile (".insn r 0x0b, 0x006, 27, %[dst], %[src], %[src2]\r\n" : [dst] "=r" (r->coeffs[8*i+3])  : [src] "r" (msg[i]), [src2] "r" (3) :   );
    210a:	3617e70b          	0x3617e70b
    210e:	20e69023          	sh	a4,512(a3)
            asm volatile (".insn r 0x0b, 0x006, 27, %[dst], %[src], %[src2]\r\n" : [dst] "=r" (r->coeffs[8*i+4])  : [src] "r" (msg[i]), [src2] "r" (4) :   );
    2112:	3677e70b          	0x3677e70b
    2116:	20e81023          	sh	a4,512(a6)
            asm volatile (".insn r 0x0b, 0x006, 27, %[dst], %[src], %[src2]\r\n" : [dst] "=r" (r->coeffs[8*i+5])  : [src] "r" (msg[i]), [src2] "r" (5) :   );
    211a:	3657e70b          	0x3657e70b
    211e:	20e51023          	sh	a4,512(a0)
            asm volatile (".insn r 0x0b, 0x006, 27, %[dst], %[src], %[src2]\r\n" : [dst] "=r" (r->coeffs[8*i+6])  : [src] "r" (msg[i]), [src2] "r" (6) :   );
    2122:	37f7e70b          	0x37f7e70b
    2126:	20e59023          	sh	a4,512(a1)
            asm volatile (".insn r 0x0b, 0x006, 27, %[dst], %[src], %[src2]\r\n" : [dst] "=r" (r->coeffs[8*i+7])  : [src] "r" (msg[i]), [src2] "r" (7) :   );
    212a:	37e7e70b          	0x37e7e70b
    212e:	20e61023          	sh	a4,512(a2)
        for (j = 0; j < 8; j++) {
    2132:	197d                	addi	s2,s2,-1
    2134:	fa091fe3          	bnez	s2,20f2 <PQCLEAN_KYBER768_CLEAN_indcpa_enc+0xbc>
    for (i = 0; i < KYBER_N / 8; i++) {
    2138:	0ea1                	addi	t4,t4,8
    213a:	0c05                	addi	s8,s8,1
    213c:	f79e98e3          	bne	t4,s9,20ac <PQCLEAN_KYBER768_CLEAN_indcpa_enc+0x76>
    PQCLEAN_KYBER768_CLEAN_gen_matrix(at, seed, 0);
    2140:	6d8d                	lui	s11,0x3
    2142:	7a7d                	lui	s4,0xfffff
    2144:	e00a0c93          	addi	s9,s4,-512 # ffffee00 <_sp+0xfff1e550>
    2148:	020d8793          	addi	a5,s11,32 # 3020 <__swbuf_r+0x78>
    214c:	0818                	addi	a4,sp,16
    214e:	97e6                	add	a5,a5,s9
    2150:	00e78cb3          	add	s9,a5,a4
    2154:	fe0a8593          	addi	a1,s5,-32 # ffffcfe0 <_sp+0xfff1c730>
    2158:	020d8793          	addi	a5,s11,32
    215c:	97ae                	add	a5,a5,a1
    215e:	00e785b3          	add	a1,a5,a4
    2162:	8566                	mv	a0,s9
    2164:	4601                	li	a2,0
    2166:	39fd                	jal	1e64 <PQCLEAN_KYBER768_CLEAN_gen_matrix.constprop.0>
        PQCLEAN_KYBER768_CLEAN_poly_getnoise_eta1(sp.vec + i, coins, nonce++);
    2168:	800a0a13          	addi	s4,s4,-2048
    216c:	020d8793          	addi	a5,s11,32
    2170:	97d2                	add	a5,a5,s4
    2172:	0818                	addi	a4,sp,16
    2174:	00e78bb3          	add	s7,a5,a4
    2178:	85ce                	mv	a1,s3
    217a:	4601                	li	a2,0
    217c:	855e                	mv	a0,s7
    217e:	3695                	jal	1ce2 <PQCLEAN_KYBER768_CLEAN_poly_getnoise_eta1>
    2180:	200b8d13          	addi	s10,s7,512
    2184:	85ce                	mv	a1,s3
    2186:	4605                	li	a2,1
    2188:	856a                	mv	a0,s10
    218a:	3ea1                	jal	1ce2 <PQCLEAN_KYBER768_CLEAN_poly_getnoise_eta1>
    218c:	400b8a13          	addi	s4,s7,1024
    2190:	85ce                	mv	a1,s3
    2192:	8552                	mv	a0,s4
    2194:	4609                	li	a2,2
    2196:	36b1                	jal	1ce2 <PQCLEAN_KYBER768_CLEAN_poly_getnoise_eta1>
        PQCLEAN_KYBER768_CLEAN_poly_getnoise_eta2(ep.vec + i, coins, nonce++);
    2198:	7c79                	lui	s8,0xffffe
    219a:	c00c0813          	addi	a6,s8,-1024 # ffffdc00 <_sp+0xfff1d350>
    219e:	020d8793          	addi	a5,s11,32
    21a2:	97c2                	add	a5,a5,a6
    21a4:	0818                	addi	a4,sp,16
    21a6:	00e78b33          	add	s6,a5,a4
    21aa:	85ce                	mv	a1,s3
    21ac:	460d                	li	a2,3
    21ae:	855a                	mv	a0,s6
    21b0:	3e0d                	jal	1ce2 <PQCLEAN_KYBER768_CLEAN_poly_getnoise_eta1>
    21b2:	85ce                	mv	a1,s3
    21b4:	4611                	li	a2,4
    21b6:	200b0513          	addi	a0,s6,512
    21ba:	3625                	jal	1ce2 <PQCLEAN_KYBER768_CLEAN_poly_getnoise_eta1>
    21bc:	85ce                	mv	a1,s3
    21be:	4615                	li	a2,5
    21c0:	400b0513          	addi	a0,s6,1024
    21c4:	3e39                	jal	1ce2 <PQCLEAN_KYBER768_CLEAN_poly_getnoise_eta1>
    PQCLEAN_KYBER768_CLEAN_poly_getnoise_eta2(&epp, coins, nonce++);
    21c6:	4532                	lw	a0,12(sp)
    21c8:	4619                	li	a2,6
    21ca:	85ce                	mv	a1,s3
    21cc:	3e19                	jal	1ce2 <PQCLEAN_KYBER768_CLEAN_poly_getnoise_eta1>
    ntt_driver(sp.vec[0].coeffs, sp.vec[0].coeffs);
    21ce:	85de                	mv	a1,s7
    21d0:	855e                	mv	a0,s7
    21d2:	b2eff0ef          	jal	ra,1500 <ntt_driver>
    ntt_driver(sp.vec[1].coeffs, sp.vec[1].coeffs);
    21d6:	85ea                	mv	a1,s10
    21d8:	856a                	mv	a0,s10
    21da:	b26ff0ef          	jal	ra,1500 <ntt_driver>
    ntt_driver(sp.vec[2].coeffs, sp.vec[2].coeffs);
    21de:	85d2                	mv	a1,s4
    21e0:	8552                	mv	a0,s4
    21e2:	b1eff0ef          	jal	ra,1500 <ntt_driver>
        PQCLEAN_KYBER768_CLEAN_polyvec_basemul_acc_montgomery(&b.vec[i], &at[i], &sp);
    21e6:	600a8593          	addi	a1,s5,1536
    21ea:	020d8793          	addi	a5,s11,32
    21ee:	97ae                	add	a5,a5,a1
    21f0:	0818                	addi	a4,sp,16
    21f2:	00e789b3          	add	s3,a5,a4
    21f6:	85e6                	mv	a1,s9
    21f8:	865e                	mv	a2,s7
    21fa:	854e                	mv	a0,s3
    21fc:	e99fe0ef          	jal	ra,1094 <PQCLEAN_KYBER768_CLEAN_polyvec_basemul_acc_montgomery>
    2200:	20098a13          	addi	s4,s3,512
    2204:	600c8593          	addi	a1,s9,1536
    2208:	865e                	mv	a2,s7
    220a:	8552                	mv	a0,s4
    220c:	e89fe0ef          	jal	ra,1094 <PQCLEAN_KYBER768_CLEAN_polyvec_basemul_acc_montgomery>
    2210:	40098c93          	addi	s9,s3,1024
    2214:	a30d8793          	addi	a5,s11,-1488
    2218:	002785b3          	add	a1,a5,sp
    221c:	865e                	mv	a2,s7
    221e:	8566                	mv	a0,s9
    2220:	e75fe0ef          	jal	ra,1094 <PQCLEAN_KYBER768_CLEAN_polyvec_basemul_acc_montgomery>
    PQCLEAN_KYBER768_CLEAN_polyvec_basemul_acc_montgomery(&v, &pkpv, &sp);
    2224:	400a8a93          	addi	s5,s5,1024
    2228:	020d8713          	addi	a4,s11,32
    222c:	0814                	addi	a3,sp,16
    222e:	9756                	add	a4,a4,s5
    2230:	200c0593          	addi	a1,s8,512
    2234:	020d8793          	addi	a5,s11,32
    2238:	00d70ab3          	add	s5,a4,a3
    223c:	97ae                	add	a5,a5,a1
    223e:	00d785b3          	add	a1,a5,a3
    2242:	865e                	mv	a2,s7
    2244:	8556                	mv	a0,s5
    2246:	e4ffe0ef          	jal	ra,1094 <PQCLEAN_KYBER768_CLEAN_polyvec_basemul_acc_montgomery>
    intt_driver(b.vec[0].coeffs, b.vec[0].coeffs);
    224a:	85ce                	mv	a1,s3
    224c:	854e                	mv	a0,s3
    224e:	bfcff0ef          	jal	ra,164a <intt_driver>
    intt_driver(b.vec[1].coeffs, b.vec[1].coeffs);
    2252:	85d2                	mv	a1,s4
    2254:	8552                	mv	a0,s4
    2256:	bf4ff0ef          	jal	ra,164a <intt_driver>
    intt_driver(b.vec[2].coeffs, b.vec[2].coeffs);    
    225a:	85e6                	mv	a1,s9
    225c:	8566                	mv	a0,s9
    225e:	becff0ef          	jal	ra,164a <intt_driver>
    intt_driver(v.coeffs, v.coeffs);
    2262:	85d6                	mv	a1,s5
    2264:	8556                	mv	a0,s5
    2266:	be4ff0ef          	jal	ra,164a <intt_driver>
    for (i = 0; i < KYBER_K; i++) {
    226a:	6885                	lui	a7,0x1
    226c:	80088893          	addi	a7,a7,-2048 # 800 <main+0x5ea>
    2270:	885a                	mv	a6,s6
    2272:	854e                	mv	a0,s3
    2274:	85d2                	mv	a1,s4
    2276:	98ce                	add	a7,a7,s3
    for (i = 0; i < KYBER_N; i++) {
    2278:	e0058793          	addi	a5,a1,-512
    memcpy(seed, packedpk + KYBER_POLYVECBYTES, KYBER_SYMBYTES);
    227c:	86c2                	mv	a3,a6
        r->coeffs[i] = a->coeffs[i] + b->coeffs[i];
    227e:	0007d703          	lhu	a4,0(a5)
    2282:	0006d603          	lhu	a2,0(a3)
    for (i = 0; i < KYBER_N; i++) {
    2286:	0789                	addi	a5,a5,2
    2288:	0689                	addi	a3,a3,2
        r->coeffs[i] = a->coeffs[i] + b->coeffs[i];
    228a:	9732                	add	a4,a4,a2
    228c:	fee79f23          	sh	a4,-2(a5)
    for (i = 0; i < KYBER_N; i++) {
    2290:	feb797e3          	bne	a5,a1,227e <PQCLEAN_KYBER768_CLEAN_indcpa_enc+0x248>
    2294:	20078593          	addi	a1,a5,512
    2298:	20080813          	addi	a6,a6,512
    229c:	fd159ee3          	bne	a1,a7,2278 <PQCLEAN_KYBER768_CLEAN_indcpa_enc+0x242>
    22a0:	76f5                	lui	a3,0xffffd
    22a2:	670d                	lui	a4,0x3
    22a4:	40068893          	addi	a7,a3,1024 # ffffd400 <_sp+0xfff1cb50>
    22a8:	02070793          	addi	a5,a4,32 # 3020 <__swbuf_r+0x78>
    22ac:	97c6                	add	a5,a5,a7
    22ae:	0810                	addi	a2,sp,16
    22b0:	00c788b3          	add	a7,a5,a2
    22b4:	02070793          	addi	a5,a4,32
    22b8:	97b6                	add	a5,a5,a3
    22ba:	00c786b3          	add	a3,a5,a2
    22be:	20088313          	addi	t1,a7,512
    22c2:	87c6                	mv	a5,a7
        r->coeffs[i] = a->coeffs[i] + b->coeffs[i];
    22c4:	0007d703          	lhu	a4,0(a5)
    22c8:	0006d603          	lhu	a2,0(a3)
    for (i = 0; i < KYBER_N; i++) {
    22cc:	0789                	addi	a5,a5,2
    22ce:	0689                	addi	a3,a3,2
        r->coeffs[i] = a->coeffs[i] + b->coeffs[i];
    22d0:	9732                	add	a4,a4,a2
    22d2:	fee79f23          	sh	a4,-2(a5)
    for (i = 0; i < KYBER_N; i++) {
    22d6:	fe6797e3          	bne	a5,t1,22c4 <PQCLEAN_KYBER768_CLEAN_indcpa_enc+0x28e>
    22da:	76f5                	lui	a3,0xffffd
    22dc:	678d                	lui	a5,0x3
    22de:	20068693          	addi	a3,a3,512 # ffffd200 <_sp+0xfff1c950>
    22e2:	02078793          	addi	a5,a5,32 # 3020 <__swbuf_r+0x78>
    22e6:	97b6                	add	a5,a5,a3
    22e8:	0818                	addi	a4,sp,16
    22ea:	00e786b3          	add	a3,a5,a4
    22ee:	87c6                	mv	a5,a7
        r->coeffs[i] = a->coeffs[i] + b->coeffs[i];
    22f0:	0007d703          	lhu	a4,0(a5)
    22f4:	0006d603          	lhu	a2,0(a3)
    for (i = 0; i < KYBER_N; i++) {
    22f8:	0789                	addi	a5,a5,2
    22fa:	0689                	addi	a3,a3,2
        r->coeffs[i] = a->coeffs[i] + b->coeffs[i];
    22fc:	9732                	add	a4,a4,a2
    22fe:	fee79f23          	sh	a4,-2(a5)
    for (i = 0; i < KYBER_N; i++) {
    2302:	fe6797e3          	bne	a5,t1,22f0 <PQCLEAN_KYBER768_CLEAN_indcpa_enc+0x2ba>
    2306:	60098e13          	addi	t3,s3,1536
    230a:	85ce                	mv	a1,s3
    for (i = 0; i < KYBER_N; i++) {
    230c:	10000813          	li	a6,256
        PQCLEAN_KYBER768_CLEAN_poly_reduce(&r->vec[i]);
    2310:	862e                	mv	a2,a1
    2312:	4781                	li	a5,0
        asm volatile (".insn r 0x0b, 0x004, 0, %[dst], %[src], x0\r\n" : [dst] "=r" (r->coeffs[i]) : [src] "r" (r->coeffs[i]) : );
    2314:	00065683          	lhu	a3,0(a2)
    2318:	0006c68b          	0x6c68b
    231c:	00179713          	slli	a4,a5,0x1
    2320:	972e                	add	a4,a4,a1
    2322:	00d71023          	sh	a3,0(a4)
    for (i = 0; i < KYBER_N; i++) {
    2326:	0785                	addi	a5,a5,1
    2328:	0609                	addi	a2,a2,2
    232a:	ff0795e3          	bne	a5,a6,2314 <PQCLEAN_KYBER768_CLEAN_indcpa_enc+0x2de>
    for (i = 0; i < KYBER_K; i++) {
    232e:	20058593          	addi	a1,a1,512
    2332:	fdc59fe3          	bne	a1,t3,2310 <PQCLEAN_KYBER768_CLEAN_indcpa_enc+0x2da>
        asm volatile (".insn r 0x0b, 0x004, 0, %[dst], %[src], x0\r\n" : [dst] "=r" (r->coeffs[i]) : [src] "r" (r->coeffs[i]) : );
    2336:	670d                	lui	a4,0x3
    2338:	77f5                	lui	a5,0xffffd
    233a:	02070713          	addi	a4,a4,32 # 3020 <__swbuf_r+0x78>
    233e:	973e                	add	a4,a4,a5
    2340:	081c                	addi	a5,sp,16
    2342:	97ba                	add	a5,a5,a4
    2344:	86c6                	mv	a3,a7
    2346:	c63e                	sw	a5,12(sp)
    for (i = 0; i < KYBER_N; i++) {
    2348:	10000613          	li	a2,256
        asm volatile (".insn r 0x0b, 0x004, 0, %[dst], %[src], x0\r\n" : [dst] "=r" (r->coeffs[i]) : [src] "r" (r->coeffs[i]) : );
    234c:	0006d703          	lhu	a4,0(a3)
    2350:	0007470b          	0x7470b
    2354:	45b2                	lw	a1,12(sp)
    2356:	00191793          	slli	a5,s2,0x1
    for (i = 0; i < KYBER_N; i++) {
    235a:	0905                	addi	s2,s2,1
        asm volatile (".insn r 0x0b, 0x004, 0, %[dst], %[src], x0\r\n" : [dst] "=r" (r->coeffs[i]) : [src] "r" (r->coeffs[i]) : );
    235c:	97ae                	add	a5,a5,a1
    235e:	40e79023          	sh	a4,1024(a5) # ffffd400 <_sp+0xfff1cb50>
    for (i = 0; i < KYBER_N; i++) {
    2362:	0689                	addi	a3,a3,2
    2364:	fec914e3          	bne	s2,a2,234c <PQCLEAN_KYBER768_CLEAN_indcpa_enc+0x316>
    2368:	14048f13          	addi	t5,s1,320
    236c:	50048f93          	addi	t6,s1,1280
            asm volatile (".insn r 0x0b, 0x6, 36, %[dst], %[src], %[x]\r\n" : [dst] "=r" (t[0])  : [src] "r" (a->vec[i].coeffs[4 * j ]), [x] "r" (0) :  );
    2370:	4e01                	li	t3,0
    2372:	ec0f0613          	addi	a2,t5,-320
        for (j = 0; j < KYBER_N / 4; j++) {
    2376:	882a                	mv	a6,a0
            asm volatile (".insn r 0x0b, 0x6, 36, %[dst], %[src], %[x]\r\n" : [dst] "=r" (t[0])  : [src] "r" (a->vec[i].coeffs[4 * j ]), [x] "r" (0) :  );
    2378:	00085583          	lhu	a1,0(a6)
    237c:	49c5e58b          	0x49c5e58b
    2380:	05c2                	slli	a1,a1,0x10
            asm volatile (".insn r 0x0b, 0x6, 36, %[dst], %[src], %[x]\r\n" : [dst] "=r" (t[1])  : [src] "r" (a->vec[i].coeffs[4 * j + 1]), [x] "r" (0) :  );
    2382:	00285703          	lhu	a4,2(a6)
            asm volatile (".insn r 0x0b, 0x6, 36, %[dst], %[src], %[x]\r\n" : [dst] "=r" (t[0])  : [src] "r" (a->vec[i].coeffs[4 * j ]), [x] "r" (0) :  );
    2386:	81c1                	srli	a1,a1,0x10
            asm volatile (".insn r 0x0b, 0x6, 36, %[dst], %[src], %[x]\r\n" : [dst] "=r" (t[1])  : [src] "r" (a->vec[i].coeffs[4 * j + 1]), [x] "r" (0) :  );
    2388:	49c7670b          	0x49c7670b
    238c:	0742                	slli	a4,a4,0x10
            asm volatile (".insn r 0x0b, 0x6, 36, %[dst], %[src], %[x]\r\n" : [dst] "=r" (t[2])  : [src] "r" (a->vec[i].coeffs[4 * j + 2]), [x] "r" (0) :  );
    238e:	00485783          	lhu	a5,4(a6)
            asm volatile (".insn r 0x0b, 0x6, 36, %[dst], %[src], %[x]\r\n" : [dst] "=r" (t[1])  : [src] "r" (a->vec[i].coeffs[4 * j + 1]), [x] "r" (0) :  );
    2392:	8341                	srli	a4,a4,0x10
            asm volatile (".insn r 0x0b, 0x6, 36, %[dst], %[src], %[x]\r\n" : [dst] "=r" (t[2])  : [src] "r" (a->vec[i].coeffs[4 * j + 2]), [x] "r" (0) :  );
    2394:	49c7e78b          	0x49c7e78b
    2398:	07c2                	slli	a5,a5,0x10
            asm volatile (".insn r 0x0b, 0x6, 36, %[dst], %[src], %[x]\r\n" : [dst] "=r" (t[3])  : [src] "r" (a->vec[i].coeffs[4 * j + 3]), [x] "r" (0) :  );
    239a:	00685683          	lhu	a3,6(a6)
            asm volatile (".insn r 0x0b, 0x6, 36, %[dst], %[src], %[x]\r\n" : [dst] "=r" (t[2])  : [src] "r" (a->vec[i].coeffs[4 * j + 2]), [x] "r" (0) :  );
    239e:	83c1                	srli	a5,a5,0x10
            asm volatile (".insn r 0x0b, 0x6, 36, %[dst], %[src], %[x]\r\n" : [dst] "=r" (t[3])  : [src] "r" (a->vec[i].coeffs[4 * j + 3]), [x] "r" (0) :  );
    23a0:	49c6e68b          	0x49c6e68b
    23a4:	06c2                	slli	a3,a3,0x10
    23a6:	82c1                	srli	a3,a3,0x10
            r[1] = (uint8_t)((t[0] >> 8) | (t[1] << 2));
    23a8:	00271913          	slli	s2,a4,0x2
            r[2] = (uint8_t)((t[1] >> 6) | (t[2] << 4));
    23ac:	00479393          	slli	t2,a5,0x4
            r[3] = (uint8_t)((t[2] >> 4) | (t[3] << 6));
    23b0:	00669293          	slli	t0,a3,0x6
            r[1] = (uint8_t)((t[0] >> 8) | (t[1] << 2));
    23b4:	0085de93          	srli	t4,a1,0x8
            r[2] = (uint8_t)((t[1] >> 6) | (t[2] << 4));
    23b8:	8319                	srli	a4,a4,0x6
            r[3] = (uint8_t)((t[2] >> 4) | (t[3] << 6));
    23ba:	8391                	srli	a5,a5,0x4
            r[1] = (uint8_t)((t[0] >> 8) | (t[1] << 2));
    23bc:	012eeeb3          	or	t4,t4,s2
            r[2] = (uint8_t)((t[1] >> 6) | (t[2] << 4));
    23c0:	00776733          	or	a4,a4,t2
            r[3] = (uint8_t)((t[2] >> 4) | (t[3] << 6));
    23c4:	0057e7b3          	or	a5,a5,t0
            r[4] = (uint8_t)(t[3] >> 2);
    23c8:	8289                	srli	a3,a3,0x2
            r[0] = (uint8_t)(t[0] >> 0);
    23ca:	00b60023          	sb	a1,0(a2)
            r[1] = (uint8_t)((t[0] >> 8) | (t[1] << 2));
    23ce:	01d600a3          	sb	t4,1(a2)
            r[2] = (uint8_t)((t[1] >> 6) | (t[2] << 4));
    23d2:	00e60123          	sb	a4,2(a2)
            r[3] = (uint8_t)((t[2] >> 4) | (t[3] << 6));
    23d6:	00f601a3          	sb	a5,3(a2)
            r[4] = (uint8_t)(t[3] >> 2);
    23da:	00d60223          	sb	a3,4(a2)
            r += 5;
    23de:	0615                	addi	a2,a2,5
        for (j = 0; j < KYBER_N / 4; j++) {
    23e0:	0821                	addi	a6,a6,8
    23e2:	f9e61be3          	bne	a2,t5,2378 <PQCLEAN_KYBER768_CLEAN_indcpa_enc+0x342>
    for (i = 0; i < KYBER_K; i++) {
    23e6:	14060f13          	addi	t5,a2,320
    23ea:	20050513          	addi	a0,a0,512
    23ee:	f9ef92e3          	bne	t6,t5,2372 <PQCLEAN_KYBER768_CLEAN_indcpa_enc+0x33c>
    PQCLEAN_KYBER768_CLEAN_poly_compress(r + KYBER_POLYVECCOMPRESSEDBYTES, v);
    23f2:	3c048493          	addi	s1,s1,960
        asm volatile (".insn r 0x0b, 0x6, 17, %[dst], %[src], %[x]\r\n" : [dst] "=r" (t[0])  : [src] "r" (a->coeffs[8 * i]), [x] "r" (0) :  );
    23f6:	4781                	li	a5,0
    23f8:	0008d603          	lhu	a2,0(a7)
    23fc:	22f6660b          	0x22f6660b
        asm volatile (".insn r 0x0b, 0x6, 17, %[dst], %[src], %[x]\r\n" : [dst] "=r" (t[1])  : [src] "r" (a->coeffs[8 * i + 1]), [x] "r" (0) :  );
    2400:	0028de03          	lhu	t3,2(a7)
        asm volatile (".insn r 0x0b, 0x6, 17, %[dst], %[src], %[x]\r\n" : [dst] "=r" (t[0])  : [src] "r" (a->coeffs[8 * i]), [x] "r" (0) :  );
    2404:	0ff67613          	zext.b	a2,a2
        asm volatile (".insn r 0x0b, 0x6, 17, %[dst], %[src], %[x]\r\n" : [dst] "=r" (t[1])  : [src] "r" (a->coeffs[8 * i + 1]), [x] "r" (0) :  );
    2408:	22fe6e0b          	0x22fe6e0b
        asm volatile (".insn r 0x0b, 0x6, 17, %[dst], %[src], %[x]\r\n" : [dst] "=r" (t[2])  : [src] "r" (a->coeffs[8 * i + 2]), [x] "r" (0) :  );
    240c:	0048de83          	lhu	t4,4(a7)
        asm volatile (".insn r 0x0b, 0x6, 17, %[dst], %[src], %[x]\r\n" : [dst] "=r" (t[1])  : [src] "r" (a->coeffs[8 * i + 1]), [x] "r" (0) :  );
    2410:	0ffe7e13          	zext.b	t3,t3
        asm volatile (".insn r 0x0b, 0x6, 17, %[dst], %[src], %[x]\r\n" : [dst] "=r" (t[2])  : [src] "r" (a->coeffs[8 * i + 2]), [x] "r" (0) :  );
    2414:	22feee8b          	0x22feee8b
        asm volatile (".insn r 0x0b, 0x6, 17, %[dst], %[src], %[x]\r\n" : [dst] "=r" (t[3])  : [src] "r" (a->coeffs[8 * i + 3]), [x] "r" (0) :  );
    2418:	0068d803          	lhu	a6,6(a7)
        asm volatile (".insn r 0x0b, 0x6, 17, %[dst], %[src], %[x]\r\n" : [dst] "=r" (t[2])  : [src] "r" (a->coeffs[8 * i + 2]), [x] "r" (0) :  );
    241c:	0ffefe93          	zext.b	t4,t4
        asm volatile (".insn r 0x0b, 0x6, 17, %[dst], %[src], %[x]\r\n" : [dst] "=r" (t[3])  : [src] "r" (a->coeffs[8 * i + 3]), [x] "r" (0) :  );
    2420:	22f8680b          	0x22f8680b
        asm volatile (".insn r 0x0b, 0x6, 17, %[dst], %[src], %[x]\r\n" : [dst] "=r" (t[4])  : [src] "r" (a->coeffs[8 * i + 4]), [x] "r" (0) :  );
    2424:	0088d683          	lhu	a3,8(a7)
        asm volatile (".insn r 0x0b, 0x6, 17, %[dst], %[src], %[x]\r\n" : [dst] "=r" (t[3])  : [src] "r" (a->coeffs[8 * i + 3]), [x] "r" (0) :  );
    2428:	0ff87813          	zext.b	a6,a6
        asm volatile (".insn r 0x0b, 0x6, 17, %[dst], %[src], %[x]\r\n" : [dst] "=r" (t[4])  : [src] "r" (a->coeffs[8 * i + 4]), [x] "r" (0) :  );
    242c:	22f6e68b          	0x22f6e68b
        asm volatile (".insn r 0x0b, 0x6, 17, %[dst], %[src], %[x]\r\n" : [dst] "=r" (t[5])  : [src] "r" (a->coeffs[8 * i + 5]), [x] "r" (0) :  );
    2430:	00a8d503          	lhu	a0,10(a7)
        asm volatile (".insn r 0x0b, 0x6, 17, %[dst], %[src], %[x]\r\n" : [dst] "=r" (t[4])  : [src] "r" (a->coeffs[8 * i + 4]), [x] "r" (0) :  );
    2434:	0ff6f693          	zext.b	a3,a3
        asm volatile (".insn r 0x0b, 0x6, 17, %[dst], %[src], %[x]\r\n" : [dst] "=r" (t[5])  : [src] "r" (a->coeffs[8 * i + 5]), [x] "r" (0) :  );
    2438:	22f5650b          	0x22f5650b
        asm volatile (".insn r 0x0b, 0x6, 17, %[dst], %[src], %[x]\r\n" : [dst] "=r" (t[6])  : [src] "r" (a->coeffs[8 * i + 6]), [x] "r" (0) :  );
    243c:	00c8d703          	lhu	a4,12(a7)
        asm volatile (".insn r 0x0b, 0x6, 17, %[dst], %[src], %[x]\r\n" : [dst] "=r" (t[5])  : [src] "r" (a->coeffs[8 * i + 5]), [x] "r" (0) :  );
    2440:	0ff57513          	zext.b	a0,a0
        asm volatile (".insn r 0x0b, 0x6, 17, %[dst], %[src], %[x]\r\n" : [dst] "=r" (t[6])  : [src] "r" (a->coeffs[8 * i + 6]), [x] "r" (0) :  );
    2444:	22f7670b          	0x22f7670b
        asm volatile (".insn r 0x0b, 0x6, 17, %[dst], %[src], %[x]\r\n" : [dst] "=r" (t[7])  : [src] "r" (a->coeffs[8 * i + 7]), [x] "r" (0) :  );
    2448:	00e8d583          	lhu	a1,14(a7)
        asm volatile (".insn r 0x0b, 0x6, 17, %[dst], %[src], %[x]\r\n" : [dst] "=r" (t[6])  : [src] "r" (a->coeffs[8 * i + 6]), [x] "r" (0) :  );
    244c:	0ff77713          	zext.b	a4,a4
        asm volatile (".insn r 0x0b, 0x6, 17, %[dst], %[src], %[x]\r\n" : [dst] "=r" (t[7])  : [src] "r" (a->coeffs[8 * i + 7]), [x] "r" (0) :  );
    2450:	22f5e58b          	0x22f5e58b
    2454:	0ff5f593          	zext.b	a1,a1
        r[0] = t[0] | (t[1] << 4);
    2458:	0e12                	slli	t3,t3,0x4
        r[1] = t[2] | (t[3] << 4);
    245a:	0812                	slli	a6,a6,0x4
        r[2] = t[4] | (t[5] << 4);
    245c:	0512                	slli	a0,a0,0x4
        r[3] = t[6] | (t[7] << 4);
    245e:	0592                	slli	a1,a1,0x4
        r[0] = t[0] | (t[1] << 4);
    2460:	01c66633          	or	a2,a2,t3
        r[1] = t[2] | (t[3] << 4);
    2464:	010ee833          	or	a6,t4,a6
        r[2] = t[4] | (t[5] << 4);
    2468:	8ec9                	or	a3,a3,a0
        r[3] = t[6] | (t[7] << 4);
    246a:	8f4d                	or	a4,a4,a1
        r[0] = t[0] | (t[1] << 4);
    246c:	00c48023          	sb	a2,0(s1)
        r[1] = t[2] | (t[3] << 4);
    2470:	010480a3          	sb	a6,1(s1)
        r[2] = t[4] | (t[5] << 4);
    2474:	00d48123          	sb	a3,2(s1)
        r[3] = t[6] | (t[7] << 4);
    2478:	00e481a3          	sb	a4,3(s1)
    for (i = 0; i < KYBER_N / 8; i++) {
    247c:	08c1                	addi	a7,a7,16
        r += 4;
    247e:	0491                	addi	s1,s1,4
    for (i = 0; i < KYBER_N / 8; i++) {
    2480:	f6689ce3          	bne	a7,t1,23f8 <PQCLEAN_KYBER768_CLEAN_indcpa_enc+0x3c2>
}
    2484:	628d                	lui	t0,0x3
    2486:	9116                	add	sp,sp,t0
    2488:	40f6                	lw	ra,92(sp)
    248a:	44e6                	lw	s1,88(sp)
    248c:	4956                	lw	s2,84(sp)
    248e:	49c6                	lw	s3,80(sp)
    2490:	4a36                	lw	s4,76(sp)
    2492:	4aa6                	lw	s5,72(sp)
    2494:	4b16                	lw	s6,68(sp)
    2496:	4b86                	lw	s7,64(sp)
    2498:	5c72                	lw	s8,60(sp)
    249a:	5ce2                	lw	s9,56(sp)
    249c:	5d52                	lw	s10,52(sp)
    249e:	5dc2                	lw	s11,48(sp)
    24a0:	6125                	addi	sp,sp,96
    24a2:	8082                	ret

000024a4 <printbytes.constprop.0>:
static void printbytes(const uint8_t *x, size_t xlen) {
    24a4:	1141                	addi	sp,sp,-16
    24a6:	c426                	sw	s1,8(sp)
    24a8:	c24a                	sw	s2,4(sp)
    24aa:	c04e                	sw	s3,0(sp)
    24ac:	c606                	sw	ra,12(sp)
    24ae:	84aa                	mv	s1,a0
    24b0:	00850993          	addi	s3,a0,8
    24b4:	00080937          	lui	s2,0x80
        printf("%02x", x[i]);
    24b8:	0004c583          	lbu	a1,0(s1)
    24bc:	0d490513          	addi	a0,s2,212 # 800d4 <no_exception_handler_msg+0x3f>
    for (i = 0; i < xlen/4; i++) {
    24c0:	0485                	addi	s1,s1,1
        printf("%02x", x[i]);
    24c2:	78a010ef          	jal	ra,3c4c <iprintf>
    for (i = 0; i < xlen/4; i++) {
    24c6:	ff3499e3          	bne	s1,s3,24b8 <printbytes.constprop.0+0x14>
}
    24ca:	40b2                	lw	ra,12(sp)
    24cc:	44a2                	lw	s1,8(sp)
    24ce:	4912                	lw	s2,4(sp)
    24d0:	4982                	lw	s3,0(sp)
    printf("\n");
    24d2:	4529                	li	a0,10
}
    24d4:	0141                	addi	sp,sp,16
    printf("\n");
    24d6:	7d60106f          	j	3cac <putchar>

000024da <init>:
// Solderpad Hardware License, Version 2.1, see LICENSE.md for details.
// SPDX-License-Identifier: Apache-2.0 WITH SHL-2.1
int init()
{
    return 0;
    24da:	4501                	li	a0,0
    24dc:	8082                	ret

000024de <_close>:
}

int _close(int file)
{
    return -1;
}
    24de:	557d                	li	a0,-1
    24e0:	8082                	ret

000024e2 <_exit>:
 * @param offset the offset to write at, in bytes.
 * @param value the value to write.
 */
inline void mmio_region_write32(mmio_region_t base, ptrdiff_t offset,
                                uint32_t value) {
  ((volatile uint32_t *)base.base)[offset / sizeof(uint32_t)] = value;
    24e2:	200007b7          	lui	a5,0x20000
    24e6:	c3c8                	sw	a0,4(a5)
  ((volatile uint8_t *)base.base)[offset / sizeof(uint8_t)] = value;
    24e8:	4705                	li	a4,1
    24ea:	00e78023          	sb	a4,0(a5) # 20000000 <_sp+0x1ff1f750>
    soc_ctrl_t soc_ctrl;
    soc_ctrl.base_addr = mmio_region_from_addr((uintptr_t)SOC_CTRL_START_ADDRESS);
    soc_ctrl_set_exit_value(&soc_ctrl, exit_status);
    soc_ctrl_set_valid(&soc_ctrl, (uint8_t)1);

    asm volatile("wfi");
    24ee:	10500073          	wfi

000024f2 <_fstat>:
    return -1;
}

int _fstat(int file, struct stat *st)
{
    st->st_mode = S_IFCHR;
    24f2:	6789                	lui	a5,0x2
    24f4:	c1dc                	sw	a5,4(a1)
    return 0;
    // errno = -ENOSYS;
    // return -1;
}
    24f6:	4501                	li	a0,0
    24f8:	8082                	ret

000024fa <_isatty>:
    return -1;
}

int _isatty(int file)
{
    return (file == STDOUT_FILENO);
    24fa:	157d                	addi	a0,a0,-1
}
    24fc:	00153513          	seqz	a0,a0
    2500:	8082                	ret

00002502 <_lseek>:
}

off_t _lseek(int file, off_t ptr, int dir)
{
    return 0;
}
    2502:	4501                	li	a0,0
    2504:	8082                	ret

00002506 <_read>:
}

ssize_t _read(int file, void *ptr, size_t len)
{
    return 0;
}
    2506:	4501                	li	a0,0
    2508:	8082                	ret

0000250a <_write>:
    return -1;
}

ssize_t _write(int file, const void *ptr, size_t len)
{
    if (file != STDOUT_FILENO) {
    250a:	4785                	li	a5,1
    250c:	08f51d63          	bne	a0,a5,25a6 <_write+0x9c>
{
    2510:	1141                	addi	sp,sp,-16
  return ((volatile uint32_t *)base.base)[offset / sizeof(uint32_t)];
    2512:	200007b7          	lui	a5,0x20000
    2516:	c24a                	sw	s2,4(sp)
    2518:	8932                	mv	s2,a2
    251a:	4fd0                	lw	a2,28(a5)
    251c:	c606                	sw	ra,12(sp)
    251e:	c426                	sw	s1,8(sp)
  if (uart->baudrate == 0 || uart->clk_freq_hz == 0) {
    2520:	ce11                	beqz	a2,253c <_write+0x32>
  uint64_t nco =
    2522:	84ae                	mv	s1,a1
    2524:	4681                	li	a3,0
    2526:	80000537          	lui	a0,0x80000
    252a:	03e00593          	li	a1,62
    252e:	628020ef          	jal	ra,4b56 <__udivdi3>
  uint32_t nco_masked = nco & UART_CTRL_NCO_MASK;
    2532:	01051793          	slli	a5,a0,0x10
    2536:	83c1                	srli	a5,a5,0x10
  if (nco != nco_masked) {
    2538:	00a78a63          	beq	a5,a0,254c <_write+0x42>
        errno = ENOSYS;
    253c:	000807b7          	lui	a5,0x80
    2540:	05800713          	li	a4,88
    2544:	6ae7a623          	sw	a4,1708(a5) # 806ac <errno>
        return -1;
    2548:	557d                	li	a0,-1
    254a:	a889                	j	259c <_write+0x92>
    254c:	f9e5                	bnez	a1,253c <_write+0x32>
  ((volatile uint32_t *)base.base)[offset / sizeof(uint32_t)] = value;
    254e:	200b0737          	lui	a4,0x200b0
    2552:	00072623          	sw	zero,12(a4) # 200b000c <_sp+0x1ffcf75c>
    2556:	478d                	li	a5,3
    2558:	cf5c                	sw	a5,28(a4)
    255a:	02072223          	sw	zero,36(a4)
    255e:	02072623          	sw	zero,44(a4)
    2562:	00072223          	sw	zero,4(a4)
  bitfield |= (value & field.mask) << field.index;
    2566:	01051793          	slli	a5,a0,0x10
    256a:	56fd                	li	a3,-1
    256c:	c314                	sw	a3,0(a4)
    256e:	0037e793          	ori	a5,a5,3
    2572:	c75c                	sw	a5,12(a4)
    2574:	00072223          	sw	zero,4(a4)
  while (len) {
    2578:	02090163          	beqz	s2,259a <_write+0x90>
    257c:	012485b3          	add	a1,s1,s2
    uart_putchar(uart, *data);
    2580:	0004c683          	lbu	a3,0(s1)
  return ((volatile uint32_t *)base.base)[offset / sizeof(uint32_t)];
    2584:	4b1c                	lw	a5,16(a4)
  while (uart_tx_full(uart)) {
    2586:	8b85                	andi	a5,a5,1
    2588:	fff5                	bnez	a5,2584 <_write+0x7a>
  ((volatile uint32_t *)base.base)[offset / sizeof(uint32_t)] = value;
    258a:	cf14                	sw	a3,24(a4)
  return ((volatile uint32_t *)base.base)[offset / sizeof(uint32_t)];
    258c:	4b1c                	lw	a5,16(a4)
  return (bitfield >> field.index) & field.mask;
    258e:	838d                	srli	a5,a5,0x3
  while (!uart_tx_idle(uart)) {
    2590:	8b85                	andi	a5,a5,1
    2592:	dfed                	beqz	a5,258c <_write+0x82>
    data++;
    2594:	0485                	addi	s1,s1,1
  while (len) {
    2596:	fe9595e3          	bne	a1,s1,2580 <_write+0x76>
    if (uart_init(&uart) != kErrorOk) {
        errno = ENOSYS;
        return -1;
    }

    return uart_write(&uart,(uint8_t *)ptr,len);
    259a:	854a                	mv	a0,s2

}
    259c:	40b2                	lw	ra,12(sp)
    259e:	44a2                	lw	s1,8(sp)
    25a0:	4912                	lw	s2,4(sp)
    25a2:	0141                	addi	sp,sp,16
    25a4:	8082                	ret
        errno = ENOSYS;
    25a6:	000807b7          	lui	a5,0x80
    25aa:	05800713          	li	a4,88
    25ae:	6ae7a623          	sw	a4,1708(a5) # 806ac <errno>
        return -1;
    25b2:	557d                	li	a0,-1
}
    25b4:	8082                	ret

000025b6 <_sbrk>:
    return 0;
}

void *_sbrk(ptrdiff_t incr)
{
    char *old_brk = brk;
    25b6:	00080737          	lui	a4,0x80

    if (__heap_start == __heap_end) {
    25ba:	00081637          	lui	a2,0x81
    25be:	000b17b7          	lui	a5,0xb1
    char *old_brk = brk;
    25c2:	69870713          	addi	a4,a4,1688 # 80698 <brk>
    if (__heap_start == __heap_end) {
    25c6:	8a460613          	addi	a2,a2,-1884 # 808a4 <__BSS_END__>
    25ca:	8a478793          	addi	a5,a5,-1884 # b08a4 <__heap_end>
{
    25ce:	86aa                	mv	a3,a0
    char *old_brk = brk;
    25d0:	4308                	lw	a0,0(a4)
    if (__heap_start == __heap_end) {
    25d2:	00f60b63          	beq	a2,a5,25e8 <_sbrk+0x32>
        return NULL;
    }

    if ((brk += incr) < __heap_end) {
    25d6:	00d50633          	add	a2,a0,a3
    25da:	00f67563          	bgeu	a2,a5,25e4 <_sbrk+0x2e>
        brk += incr;
    25de:	9636                	add	a2,a2,a3
    25e0:	c310                	sw	a2,0(a4)
    25e2:	8082                	ret
    } else {
        brk = __heap_end;
    25e4:	c31c                	sw	a5,0(a4)
    25e6:	8082                	ret
        return NULL;
    25e8:	4501                	li	a0,0
    }
    return old_brk;
}
    25ea:	8082                	ret

000025ec <handler_exception>:
  };
}

// Below functions are default weak exception handlers meant to be overriden
__attribute__((weak)) void handler_exception(void) {
    25ec:	7119                	addi	sp,sp,-128
    25ee:	de86                	sw	ra,124(sp)
    25f0:	dc96                	sw	t0,120(sp)
    25f2:	da9a                	sw	t1,116(sp)
    25f4:	d89e                	sw	t2,112(sp)
    25f6:	d6aa                	sw	a0,108(sp)
    25f8:	d4ae                	sw	a1,104(sp)
    25fa:	d2b2                	sw	a2,100(sp)
    25fc:	d0b6                	sw	a3,96(sp)
    25fe:	ceba                	sw	a4,92(sp)
    2600:	ccbe                	sw	a5,88(sp)
    2602:	cac2                	sw	a6,84(sp)
    2604:	c8c6                	sw	a7,80(sp)
    2606:	c6f2                	sw	t3,76(sp)
    2608:	c4f6                	sw	t4,72(sp)
    260a:	c2fa                	sw	t5,68(sp)
    260c:	c0fe                	sw	t6,64(sp)
  uint32_t mcause;
  exc_id_t exc_cause;

  CSR_READ(CSR_REG_MCAUSE, &mcause);
    260e:	342027f3          	csrr	a5,mcause
  exc_cause = (exc_id_t)(mcause & kIdMax);

  switch (exc_cause) {
    2612:	472d                	li	a4,11
  exc_cause = (exc_id_t)(mcause & kIdMax);
    2614:	8bfd                	andi	a5,a5,31
  switch (exc_cause) {
    2616:	00f76a63          	bltu	a4,a5,262a <handler_exception+0x3e>
    261a:	00080737          	lui	a4,0x80
    261e:	078a                	slli	a5,a5,0x2
    2620:	26070713          	addi	a4,a4,608 # 80260 <no_exception_handler_msg+0x1cb>
    2624:	97ba                	add	a5,a5,a4
    2626:	439c                	lw	a5,0(a5)
    2628:	8782                	jr	a5
      break;
    case kECall:
      handler_ecall();
      break;
    default:
      while (1) {
    262a:	a001                	j	262a <handler_exception+0x3e>
  const char exc_msg[] = "Load/Store fault, mtval shows the fault address\n";
  print_exc_msg(exc_msg);
}

__attribute__((weak)) void handler_ecall(void) {
  printf("Environment call encountered\n");
    262c:	00080537          	lui	a0,0x80
    2630:	15c50513          	addi	a0,a0,348 # 8015c <no_exception_handler_msg+0xc7>
    2634:	06f000ef          	jal	ra,2ea2 <puts>
  while (1) {
    2638:	a001                	j	2638 <handler_exception+0x4c>
  const char fault_msg[] =
    263a:	000807b7          	lui	a5,0x80
    263e:	17c78793          	addi	a5,a5,380 # 8017c <no_exception_handler_msg+0xe7>
    2642:	0048                	addi	a0,sp,4
    2644:	872a                	mv	a4,a0
    2646:	03078893          	addi	a7,a5,48
    264a:	0007a803          	lw	a6,0(a5)
    264e:	43cc                	lw	a1,4(a5)
    2650:	4790                	lw	a2,8(a5)
    2652:	47d4                	lw	a3,12(a5)
    2654:	01072023          	sw	a6,0(a4)
    2658:	c34c                	sw	a1,4(a4)
    265a:	c710                	sw	a2,8(a4)
    265c:	c754                	sw	a3,12(a4)
    265e:	07c1                	addi	a5,a5,16
    2660:	0741                	addi	a4,a4,16
    2662:	ff1794e3          	bne	a5,a7,264a <handler_exception+0x5e>
    2666:	4394                	lw	a3,0(a5)
    2668:	0047c783          	lbu	a5,4(a5)
    266c:	c314                	sw	a3,0(a4)
    266e:	00f70223          	sb	a5,4(a4)
  print_exc_msg(fault_msg);
    2672:	e4cff0ef          	jal	ra,1cbe <print_exc_msg>
  const char fault_msg[] =
    2676:	000807b7          	lui	a5,0x80
    267a:	17c78793          	addi	a5,a5,380 # 8017c <no_exception_handler_msg+0xe7>
    267e:	0048                	addi	a0,sp,4
    2680:	872a                	mv	a4,a0
    2682:	03078893          	addi	a7,a5,48
    2686:	0007a803          	lw	a6,0(a5)
    268a:	43cc                	lw	a1,4(a5)
    268c:	4790                	lw	a2,8(a5)
    268e:	47d4                	lw	a3,12(a5)
    2690:	01072023          	sw	a6,0(a4)
    2694:	c34c                	sw	a1,4(a4)
    2696:	c710                	sw	a2,8(a4)
    2698:	c754                	sw	a3,12(a4)
    269a:	07c1                	addi	a5,a5,16
    269c:	0741                	addi	a4,a4,16
    269e:	ff1794e3          	bne	a5,a7,2686 <handler_exception+0x9a>
    26a2:	b7d1                	j	2666 <handler_exception+0x7a>
  const char fault_msg[] =
    26a4:	000807b7          	lui	a5,0x80
    26a8:	1b478793          	addi	a5,a5,436 # 801b4 <no_exception_handler_msg+0x11f>
    26ac:	0048                	addi	a0,sp,4
    26ae:	872a                	mv	a4,a0
    26b0:	03c78313          	addi	t1,a5,60
    26b4:	0007a883          	lw	a7,0(a5)
    26b8:	0047a803          	lw	a6,4(a5)
    26bc:	478c                	lw	a1,8(a5)
    26be:	47d0                	lw	a2,12(a5)
    26c0:	4b94                	lw	a3,16(a5)
    26c2:	01172023          	sw	a7,0(a4)
    26c6:	01072223          	sw	a6,4(a4)
    26ca:	c70c                	sw	a1,8(a4)
    26cc:	c750                	sw	a2,12(a4)
    26ce:	cb14                	sw	a3,16(a4)
    26d0:	07d1                	addi	a5,a5,20
    26d2:	0751                	addi	a4,a4,20
    26d4:	fe6790e3          	bne	a5,t1,26b4 <handler_exception+0xc8>
  print_exc_msg(exc_msg);
    26d8:	de6ff0ef          	jal	ra,1cbe <print_exc_msg>
  const char exc_msg[] =
    26dc:	000807b7          	lui	a5,0x80
    26e0:	1f078793          	addi	a5,a5,496 # 801f0 <no_exception_handler_msg+0x15b>
    26e4:	0048                	addi	a0,sp,4
    26e6:	872a                	mv	a4,a0
    26e8:	03078893          	addi	a7,a5,48
    26ec:	0007a803          	lw	a6,0(a5)
    26f0:	43cc                	lw	a1,4(a5)
    26f2:	4790                	lw	a2,8(a5)
    26f4:	47d4                	lw	a3,12(a5)
    26f6:	01072023          	sw	a6,0(a4)
    26fa:	c34c                	sw	a1,4(a4)
    26fc:	c710                	sw	a2,8(a4)
    26fe:	c754                	sw	a3,12(a4)
    2700:	07c1                	addi	a5,a5,16
    2702:	0741                	addi	a4,a4,16
    2704:	ff1794e3          	bne	a5,a7,26ec <handler_exception+0x100>
    2708:	4390                	lw	a2,0(a5)
    270a:	43d4                	lw	a3,4(a5)
    270c:	0087c783          	lbu	a5,8(a5)
    2710:	c310                	sw	a2,0(a4)
    2712:	c354                	sw	a3,4(a4)
    2714:	00f70423          	sb	a5,8(a4)
  print_exc_msg(exc_msg);
    2718:	da6ff0ef          	jal	ra,1cbe <print_exc_msg>
  const char exc_msg[] = "Load/Store fault, mtval shows the fault address\n";
    271c:	000807b7          	lui	a5,0x80
    2720:	22c78793          	addi	a5,a5,556 # 8022c <no_exception_handler_msg+0x197>
    2724:	0048                	addi	a0,sp,4
    2726:	872a                	mv	a4,a0
    2728:	03078893          	addi	a7,a5,48
    272c:	0007a803          	lw	a6,0(a5)
    2730:	43cc                	lw	a1,4(a5)
    2732:	4790                	lw	a2,8(a5)
    2734:	47d4                	lw	a3,12(a5)
    2736:	01072023          	sw	a6,0(a4)
    273a:	c34c                	sw	a1,4(a4)
    273c:	c710                	sw	a2,8(a4)
    273e:	c754                	sw	a3,12(a4)
    2740:	07c1                	addi	a5,a5,16
    2742:	0741                	addi	a4,a4,16
    2744:	ff1794e3          	bne	a5,a7,272c <handler_exception+0x140>
    2748:	0007c783          	lbu	a5,0(a5)
    274c:	00f70023          	sb	a5,0(a4)
    2750:	b761                	j	26d8 <handler_exception+0xec>
    2752:	000807b7          	lui	a5,0x80
    2756:	22c78793          	addi	a5,a5,556 # 8022c <no_exception_handler_msg+0x197>
    275a:	0048                	addi	a0,sp,4
    275c:	872a                	mv	a4,a0
    275e:	03078893          	addi	a7,a5,48
    2762:	0007a803          	lw	a6,0(a5)
    2766:	43cc                	lw	a1,4(a5)
    2768:	4790                	lw	a2,8(a5)
    276a:	47d4                	lw	a3,12(a5)
    276c:	01072023          	sw	a6,0(a4)
    2770:	c34c                	sw	a1,4(a4)
    2772:	c710                	sw	a2,8(a4)
    2774:	c754                	sw	a3,12(a4)
    2776:	07c1                	addi	a5,a5,16
    2778:	0741                	addi	a4,a4,16
    277a:	ff1794e3          	bne	a5,a7,2762 <handler_exception+0x176>
    277e:	b7e9                	j	2748 <handler_exception+0x15c>
    2780:	0000                	unimp
	...

00002784 <handler_irq_software>:
__attribute__((weak)) void handler_irq_software(void) {
    2784:	7139                	addi	sp,sp,-64
    2786:	d62a                	sw	a0,44(sp)
  printf("Software IRQ triggered!\n");
    2788:	00080537          	lui	a0,0x80
    278c:	29050513          	addi	a0,a0,656 # 80290 <no_exception_handler_msg+0x1fb>
__attribute__((weak)) void handler_irq_software(void) {
    2790:	de06                	sw	ra,60(sp)
    2792:	dc16                	sw	t0,56(sp)
    2794:	da1a                	sw	t1,52(sp)
    2796:	d81e                	sw	t2,48(sp)
    2798:	d42e                	sw	a1,40(sp)
    279a:	d232                	sw	a2,36(sp)
    279c:	d036                	sw	a3,32(sp)
    279e:	ce3a                	sw	a4,28(sp)
    27a0:	cc3e                	sw	a5,24(sp)
    27a2:	ca42                	sw	a6,20(sp)
    27a4:	c846                	sw	a7,16(sp)
    27a6:	c672                	sw	t3,12(sp)
    27a8:	c476                	sw	t4,8(sp)
    27aa:	c27a                	sw	t5,4(sp)
    27ac:	c07e                	sw	t6,0(sp)
  printf("Software IRQ triggered!\n");
    27ae:	2dd5                	jal	2ea2 <puts>
  while (1) {
    27b0:	a001                	j	27b0 <handler_irq_software+0x2c>
	...

000027b4 <handler_irq_timer>:
__attribute__((weak)) void handler_irq_timer(void) {
    27b4:	7139                	addi	sp,sp,-64
    27b6:	d62a                	sw	a0,44(sp)
  printf("Timer IRQ triggered!\n");
    27b8:	00080537          	lui	a0,0x80
    27bc:	2a850513          	addi	a0,a0,680 # 802a8 <no_exception_handler_msg+0x213>
__attribute__((weak)) void handler_irq_timer(void) {
    27c0:	de06                	sw	ra,60(sp)
    27c2:	dc16                	sw	t0,56(sp)
    27c4:	da1a                	sw	t1,52(sp)
    27c6:	d81e                	sw	t2,48(sp)
    27c8:	d42e                	sw	a1,40(sp)
    27ca:	d232                	sw	a2,36(sp)
    27cc:	d036                	sw	a3,32(sp)
    27ce:	ce3a                	sw	a4,28(sp)
    27d0:	cc3e                	sw	a5,24(sp)
    27d2:	ca42                	sw	a6,20(sp)
    27d4:	c846                	sw	a7,16(sp)
    27d6:	c672                	sw	t3,12(sp)
    27d8:	c476                	sw	t4,8(sp)
    27da:	c27a                	sw	t5,4(sp)
    27dc:	c07e                	sw	t6,0(sp)
  printf("Timer IRQ triggered!\n");
    27de:	25d1                	jal	2ea2 <puts>
  while (1) {
    27e0:	a001                	j	27e0 <handler_irq_timer+0x2c>
	...

000027e4 <handler_irq_external>:
{
    27e4:	715d                	addi	sp,sp,-80
    27e6:	cc4a                	sw	s2,24(sp)
  *claim_data = rv_plic_peri->CC0;
    27e8:	30000937          	lui	s2,0x30000
{
    27ec:	de26                	sw	s1,60(sp)
  *claim_data = rv_plic_peri->CC0;
    27ee:	20c92483          	lw	s1,524(s2) # 3000020c <_sp+0x2ff1f95c>
{
    27f2:	d23e                	sw	a5,36(sp)
    handlers[int_id](int_id);
    27f4:	000807b7          	lui	a5,0x80
{
    27f8:	d43a                	sw	a4,40(sp)
    handlers[int_id](int_id);
    27fa:	6c878793          	addi	a5,a5,1736 # 806c8 <handlers>
    27fe:	00249713          	slli	a4,s1,0x2
    2802:	97ba                	add	a5,a5,a4
    2804:	439c                	lw	a5,0(a5)
{
    2806:	dc2a                	sw	a0,56(sp)
    2808:	c686                	sw	ra,76(sp)
    280a:	c496                	sw	t0,72(sp)
    280c:	c29a                	sw	t1,68(sp)
    280e:	c09e                	sw	t2,64(sp)
    2810:	da2e                	sw	a1,52(sp)
    2812:	d832                	sw	a2,48(sp)
    2814:	d636                	sw	a3,44(sp)
    2816:	d042                	sw	a6,32(sp)
    2818:	ce46                	sw	a7,28(sp)
    281a:	ca72                	sw	t3,20(sp)
    281c:	c876                	sw	t4,16(sp)
    281e:	c67a                	sw	t5,12(sp)
    2820:	c47e                	sw	t6,8(sp)
    handlers[int_id](int_id);
    2822:	8526                	mv	a0,s1
    2824:	9782                	jalr	a5
    plic_intr_flag = 1;
    2826:	000807b7          	lui	a5,0x80
    282a:	4705                	li	a4,1
    282c:	6ae78423          	sb	a4,1704(a5) # 806a8 <plic_intr_flag>
  rv_plic_peri->CC0 = *complete_data;
    2830:	20992623          	sw	s1,524(s2)
}
    2834:	40b6                	lw	ra,76(sp)
    2836:	42a6                	lw	t0,72(sp)
    2838:	4316                	lw	t1,68(sp)
    283a:	4386                	lw	t2,64(sp)
    283c:	54f2                	lw	s1,60(sp)
    283e:	5562                	lw	a0,56(sp)
    2840:	55d2                	lw	a1,52(sp)
    2842:	5642                	lw	a2,48(sp)
    2844:	56b2                	lw	a3,44(sp)
    2846:	5722                	lw	a4,40(sp)
    2848:	5792                	lw	a5,36(sp)
    284a:	5802                	lw	a6,32(sp)
    284c:	48f2                	lw	a7,28(sp)
    284e:	4962                	lw	s2,24(sp)
    2850:	4e52                	lw	t3,20(sp)
    2852:	4ec2                	lw	t4,16(sp)
    2854:	4f32                	lw	t5,12(sp)
    2856:	4fa2                	lw	t6,8(sp)
    2858:	6161                	addi	sp,sp,80
    285a:	30200073          	mret

0000285e <fic_irq_dma>:
    dma_cb.intrFlag = 1;
    285e:	000807b7          	lui	a5,0x80
    2862:	4705                	li	a4,1
    2864:	6ce78023          	sb	a4,1728(a5) # 806c0 <dma_cb+0x4>
}
    2868:	8082                	ret
	...

0000286c <handler_irq_fast_dma>:
    // call the weak fic handler
    fic_irq_timer_3();
}

void handler_irq_fast_dma(void)
{
    286c:	1141                	addi	sp,sp,-16
    286e:	c63a                	sw	a4,12(sp)
    2870:	c43e                	sw	a5,8(sp)
    fast_intr_ctrl_peri->FAST_INTR_CLEAR = reg;
    2872:	4721                	li	a4,8
    2874:	200707b7          	lui	a5,0x20070
    2878:	c3d8                	sw	a4,4(a5)
    dma_cb.intrFlag = 1;
    287a:	000807b7          	lui	a5,0x80
    287e:	4705                	li	a4,1
    2880:	6ce78023          	sb	a4,1728(a5) # 806c0 <dma_cb+0x4>
    // The interrupt is cleared.
    clear_fast_interrupt(kDma_fic_e);
    // call the weak fic handler
    fic_irq_dma();
}
    2884:	4732                	lw	a4,12(sp)
    2886:	47a2                	lw	a5,8(sp)
    2888:	0141                	addi	sp,sp,16
    288a:	30200073          	mret
	...

00002890 <handler_irq_fast_timer_1>:
{
    2890:	7139                	addi	sp,sp,-64
    2892:	ce3a                	sw	a4,28(sp)
    2894:	cc3e                	sw	a5,24(sp)
    2896:	de06                	sw	ra,60(sp)
    2898:	dc16                	sw	t0,56(sp)
    289a:	da1a                	sw	t1,52(sp)
    289c:	d81e                	sw	t2,48(sp)
    289e:	d62a                	sw	a0,44(sp)
    28a0:	d42e                	sw	a1,40(sp)
    28a2:	d232                	sw	a2,36(sp)
    28a4:	d036                	sw	a3,32(sp)
    28a6:	ca42                	sw	a6,20(sp)
    28a8:	c846                	sw	a7,16(sp)
    28aa:	c672                	sw	t3,12(sp)
    28ac:	c476                	sw	t4,8(sp)
    28ae:	c27a                	sw	t5,4(sp)
    28b0:	c07e                	sw	t6,0(sp)
    fast_intr_ctrl_peri->FAST_INTR_CLEAR = reg;
    28b2:	200707b7          	lui	a5,0x20070
    28b6:	4705                	li	a4,1
    28b8:	c3d8                	sw	a4,4(a5)
    fic_irq_timer_1();
    28ba:	c0afe0ef          	jal	ra,cc4 <fic_irq_timer_1>
}
    28be:	50f2                	lw	ra,60(sp)
    28c0:	52e2                	lw	t0,56(sp)
    28c2:	5352                	lw	t1,52(sp)
    28c4:	53c2                	lw	t2,48(sp)
    28c6:	5532                	lw	a0,44(sp)
    28c8:	55a2                	lw	a1,40(sp)
    28ca:	5612                	lw	a2,36(sp)
    28cc:	5682                	lw	a3,32(sp)
    28ce:	4772                	lw	a4,28(sp)
    28d0:	47e2                	lw	a5,24(sp)
    28d2:	4852                	lw	a6,20(sp)
    28d4:	48c2                	lw	a7,16(sp)
    28d6:	4e32                	lw	t3,12(sp)
    28d8:	4ea2                	lw	t4,8(sp)
    28da:	4f12                	lw	t5,4(sp)
    28dc:	4f82                	lw	t6,0(sp)
    28de:	6121                	addi	sp,sp,64
    28e0:	30200073          	mret
    28e4:	0000                	unimp
	...

000028e8 <handler_irq_fast_timer_2>:
{
    28e8:	7139                	addi	sp,sp,-64
    28ea:	ce3a                	sw	a4,28(sp)
    28ec:	cc3e                	sw	a5,24(sp)
    28ee:	de06                	sw	ra,60(sp)
    28f0:	dc16                	sw	t0,56(sp)
    28f2:	da1a                	sw	t1,52(sp)
    28f4:	d81e                	sw	t2,48(sp)
    28f6:	d62a                	sw	a0,44(sp)
    28f8:	d42e                	sw	a1,40(sp)
    28fa:	d232                	sw	a2,36(sp)
    28fc:	d036                	sw	a3,32(sp)
    28fe:	ca42                	sw	a6,20(sp)
    2900:	c846                	sw	a7,16(sp)
    2902:	c672                	sw	t3,12(sp)
    2904:	c476                	sw	t4,8(sp)
    2906:	c27a                	sw	t5,4(sp)
    2908:	c07e                	sw	t6,0(sp)
    fast_intr_ctrl_peri->FAST_INTR_CLEAR = reg;
    290a:	200707b7          	lui	a5,0x20070
    290e:	4709                	li	a4,2
    2910:	c3d8                	sw	a4,4(a5)
    fic_irq_timer_2();
    2912:	bb2fe0ef          	jal	ra,cc4 <fic_irq_timer_1>
}
    2916:	50f2                	lw	ra,60(sp)
    2918:	52e2                	lw	t0,56(sp)
    291a:	5352                	lw	t1,52(sp)
    291c:	53c2                	lw	t2,48(sp)
    291e:	5532                	lw	a0,44(sp)
    2920:	55a2                	lw	a1,40(sp)
    2922:	5612                	lw	a2,36(sp)
    2924:	5682                	lw	a3,32(sp)
    2926:	4772                	lw	a4,28(sp)
    2928:	47e2                	lw	a5,24(sp)
    292a:	4852                	lw	a6,20(sp)
    292c:	48c2                	lw	a7,16(sp)
    292e:	4e32                	lw	t3,12(sp)
    2930:	4ea2                	lw	t4,8(sp)
    2932:	4f12                	lw	t5,4(sp)
    2934:	4f82                	lw	t6,0(sp)
    2936:	6121                	addi	sp,sp,64
    2938:	30200073          	mret
    293c:	0000                	unimp
	...

00002940 <handler_irq_fast_timer_3>:
{
    2940:	7139                	addi	sp,sp,-64
    2942:	ce3a                	sw	a4,28(sp)
    2944:	cc3e                	sw	a5,24(sp)
    2946:	de06                	sw	ra,60(sp)
    2948:	dc16                	sw	t0,56(sp)
    294a:	da1a                	sw	t1,52(sp)
    294c:	d81e                	sw	t2,48(sp)
    294e:	d62a                	sw	a0,44(sp)
    2950:	d42e                	sw	a1,40(sp)
    2952:	d232                	sw	a2,36(sp)
    2954:	d036                	sw	a3,32(sp)
    2956:	ca42                	sw	a6,20(sp)
    2958:	c846                	sw	a7,16(sp)
    295a:	c672                	sw	t3,12(sp)
    295c:	c476                	sw	t4,8(sp)
    295e:	c27a                	sw	t5,4(sp)
    2960:	c07e                	sw	t6,0(sp)
    fast_intr_ctrl_peri->FAST_INTR_CLEAR = reg;
    2962:	200707b7          	lui	a5,0x20070
    2966:	4711                	li	a4,4
    2968:	c3d8                	sw	a4,4(a5)
    fic_irq_timer_3();
    296a:	b5afe0ef          	jal	ra,cc4 <fic_irq_timer_1>
}
    296e:	50f2                	lw	ra,60(sp)
    2970:	52e2                	lw	t0,56(sp)
    2972:	5352                	lw	t1,52(sp)
    2974:	53c2                	lw	t2,48(sp)
    2976:	5532                	lw	a0,44(sp)
    2978:	55a2                	lw	a1,40(sp)
    297a:	5612                	lw	a2,36(sp)
    297c:	5682                	lw	a3,32(sp)
    297e:	4772                	lw	a4,28(sp)
    2980:	47e2                	lw	a5,24(sp)
    2982:	4852                	lw	a6,20(sp)
    2984:	48c2                	lw	a7,16(sp)
    2986:	4e32                	lw	t3,12(sp)
    2988:	4ea2                	lw	t4,8(sp)
    298a:	4f12                	lw	t5,4(sp)
    298c:	4f82                	lw	t6,0(sp)
    298e:	6121                	addi	sp,sp,64
    2990:	30200073          	mret
    2994:	0000                	unimp
	...

00002998 <handler_irq_fast_spi>:

void handler_irq_fast_spi(void)
{
    2998:	7139                	addi	sp,sp,-64
    299a:	ce3a                	sw	a4,28(sp)
    299c:	cc3e                	sw	a5,24(sp)
    299e:	de06                	sw	ra,60(sp)
    29a0:	dc16                	sw	t0,56(sp)
    29a2:	da1a                	sw	t1,52(sp)
    29a4:	d81e                	sw	t2,48(sp)
    29a6:	d62a                	sw	a0,44(sp)
    29a8:	d42e                	sw	a1,40(sp)
    29aa:	d232                	sw	a2,36(sp)
    29ac:	d036                	sw	a3,32(sp)
    29ae:	ca42                	sw	a6,20(sp)
    29b0:	c846                	sw	a7,16(sp)
    29b2:	c672                	sw	t3,12(sp)
    29b4:	c476                	sw	t4,8(sp)
    29b6:	c27a                	sw	t5,4(sp)
    29b8:	c07e                	sw	t6,0(sp)
    fast_intr_ctrl_peri->FAST_INTR_CLEAR = reg;
    29ba:	200707b7          	lui	a5,0x20070
    29be:	4741                	li	a4,16
    29c0:	c3d8                	sw	a4,4(a5)
    // The interrupt is cleared.
    clear_fast_interrupt(kSpi_fic_e);
    // call the weak fic handler
    fic_irq_spi();
    29c2:	b02fe0ef          	jal	ra,cc4 <fic_irq_timer_1>
}
    29c6:	50f2                	lw	ra,60(sp)
    29c8:	52e2                	lw	t0,56(sp)
    29ca:	5352                	lw	t1,52(sp)
    29cc:	53c2                	lw	t2,48(sp)
    29ce:	5532                	lw	a0,44(sp)
    29d0:	55a2                	lw	a1,40(sp)
    29d2:	5612                	lw	a2,36(sp)
    29d4:	5682                	lw	a3,32(sp)
    29d6:	4772                	lw	a4,28(sp)
    29d8:	47e2                	lw	a5,24(sp)
    29da:	4852                	lw	a6,20(sp)
    29dc:	48c2                	lw	a7,16(sp)
    29de:	4e32                	lw	t3,12(sp)
    29e0:	4ea2                	lw	t4,8(sp)
    29e2:	4f12                	lw	t5,4(sp)
    29e4:	4f82                	lw	t6,0(sp)
    29e6:	6121                	addi	sp,sp,64
    29e8:	30200073          	mret
    29ec:	0000                	unimp
	...

000029f0 <handler_irq_fast_spi_flash>:

void handler_irq_fast_spi_flash(void)
{
    29f0:	7139                	addi	sp,sp,-64
    29f2:	ce3a                	sw	a4,28(sp)
    29f4:	cc3e                	sw	a5,24(sp)
    29f6:	de06                	sw	ra,60(sp)
    29f8:	dc16                	sw	t0,56(sp)
    29fa:	da1a                	sw	t1,52(sp)
    29fc:	d81e                	sw	t2,48(sp)
    29fe:	d62a                	sw	a0,44(sp)
    2a00:	d42e                	sw	a1,40(sp)
    2a02:	d232                	sw	a2,36(sp)
    2a04:	d036                	sw	a3,32(sp)
