
sw/applications/PQClean-ATHOS/test/crypto_kem/testvectors-kyber1024_clean.elf:     file format elf32-littleriscv


Disassembly of section .vectors:

00000000 <__vector_start>:

.section .vectors, "ax"
.option norvc
vector_table:
	//  0 : exception Handler and user software interrupt
	j handler_exception
   0:	0480306f          	j	3048 <handler_exception>
	//  1 : supervisor software interrupt
	j __no_irq_handler
   4:	4bb0006f          	j	cbe <__no_irq_handler>
	//  2 : unmapped
	j __no_irq_handler
   8:	4b70006f          	j	cbe <__no_irq_handler>
	//  3 : machine software interrupt handler
	j handler_irq_software
   c:	1d40306f          	j	31e0 <handler_irq_software>
	//  4 : user timer interrupt
	j __no_irq_handler
  10:	4af0006f          	j	cbe <__no_irq_handler>
	//  5 : supervisor timer interrupt
	j __no_irq_handler
  14:	4ab0006f          	j	cbe <__no_irq_handler>
	//  6 : unmapped
	j __no_irq_handler
  18:	4a70006f          	j	cbe <__no_irq_handler>
	//  7 : machine timer interrupt handler
	j handler_irq_timer
  1c:	1f40306f          	j	3210 <handler_irq_timer>
	//  8 : user external interrupt
	j __no_irq_handler
  20:	49f0006f          	j	cbe <__no_irq_handler>
	//  9 : supervisor external interrupt
	j __no_irq_handler
  24:	49b0006f          	j	cbe <__no_irq_handler>
	// 10 : unmapped
	j __no_irq_handler
  28:	4970006f          	j	cbe <__no_irq_handler>
	// 11 : machine external interrupt handler
	j handler_irq_external
  2c:	2140306f          	j	3240 <handler_irq_external>
	// 12 : unmapped
	j __no_irq_handler
  30:	48f0006f          	j	cbe <__no_irq_handler>
	// 13 : unmapped
	j __no_irq_handler
  34:	48b0006f          	j	cbe <__no_irq_handler>
	// 14 : unmapped
	j __no_irq_handler
  38:	4870006f          	j	cbe <__no_irq_handler>
	// 15 : unmapped
	j __no_irq_handler
  3c:	4830006f          	j	cbe <__no_irq_handler>
	// 16 : fast interrupt - timer_1
	j handler_irq_fast_timer_1
  40:	2ac0306f          	j	32ec <handler_irq_fast_timer_1>
	// 17 : fast interrupt - timer_2
	j handler_irq_fast_timer_2
  44:	3000306f          	j	3344 <handler_irq_fast_timer_2>
	// 18 : fast interrupt - timer_3
	j handler_irq_fast_timer_3
  48:	3540306f          	j	339c <handler_irq_fast_timer_3>
	// 19 : fast interrupt - dma
	j handler_irq_fast_dma
  4c:	27c0306f          	j	32c8 <handler_irq_fast_dma>
	// 20 : fast interrupt - spi
	j handler_irq_fast_spi
  50:	3a40306f          	j	33f4 <handler_irq_fast_spi>
	// 21 : fast interrupt - spi_flash
	j handler_irq_fast_spi_flash
  54:	3f80306f          	j	344c <handler_irq_fast_spi_flash>
	// 22 : fast interrupt - gpio_0
	j handler_irq_fast_gpio_0
  58:	44c0306f          	j	34a4 <handler_irq_fast_gpio_0>
	// 23 : fast interrupt - gpio_1
	j handler_irq_fast_gpio_1
  5c:	4a00306f          	j	34fc <handler_irq_fast_gpio_1>
	// 24 : fast interrupt - gpio_2
	j handler_irq_fast_gpio_2
  60:	4f40306f          	j	3554 <handler_irq_fast_gpio_2>
	// 25 : fast interrupt - gpio_3
	j handler_irq_fast_gpio_3
  64:	5480306f          	j	35ac <handler_irq_fast_gpio_3>
	// 26 : fast interrupt - gpio_4
	j handler_irq_fast_gpio_4
  68:	59c0306f          	j	3604 <handler_irq_fast_gpio_4>
	// 27 : fast interrupt - gpio_5
	j handler_irq_fast_gpio_5
  6c:	5f00306f          	j	365c <handler_irq_fast_gpio_5>
	// 28 : fast interrupt - gpio_6
	j handler_irq_fast_gpio_6
  70:	6480306f          	j	36b8 <handler_irq_fast_gpio_6>
	// 29 : fast interrupt - gpio_7
	j handler_irq_fast_gpio_7
  74:	69c0306f          	j	3710 <handler_irq_fast_gpio_7>
	// 30 : fast interrupt - unmapped
	j __no_irq_handler
  78:	4470006f          	j	cbe <__no_irq_handler>
	// vendor interrupts: on Ibex interrupt id 31 is for non-maskable interrupts
	j __no_irq_handler
  7c:	4430006f          	j	cbe <__no_irq_handler>
	// 64-32 : not connected on Ibex
	j verification_irq_handler
  80:	4c70006f          	j	d46 <verification_irq_handler>
	j __no_irq_handler
  84:	43b0006f          	j	cbe <__no_irq_handler>
	j __no_irq_handler
  88:	4370006f          	j	cbe <__no_irq_handler>
	j __no_irq_handler
  8c:	4330006f          	j	cbe <__no_irq_handler>
	j __no_irq_handler
  90:	42f0006f          	j	cbe <__no_irq_handler>
	j __no_irq_handler
  94:	42b0006f          	j	cbe <__no_irq_handler>
	j __no_irq_handler
  98:	4270006f          	j	cbe <__no_irq_handler>
	j __no_irq_handler
  9c:	4230006f          	j	cbe <__no_irq_handler>
	j __no_irq_handler
  a0:	41f0006f          	j	cbe <__no_irq_handler>
	j __no_irq_handler
  a4:	41b0006f          	j	cbe <__no_irq_handler>
	j __no_irq_handler
  a8:	4170006f          	j	cbe <__no_irq_handler>
	j __no_irq_handler
  ac:	4130006f          	j	cbe <__no_irq_handler>
	j __no_irq_handler
  b0:	40f0006f          	j	cbe <__no_irq_handler>
	j __no_irq_handler
  b4:	40b0006f          	j	cbe <__no_irq_handler>
	j __no_irq_handler
  b8:	4070006f          	j	cbe <__no_irq_handler>
	j __no_irq_handler
  bc:	4030006f          	j	cbe <__no_irq_handler>
	j __no_irq_handler
  c0:	3ff0006f          	j	cbe <__no_irq_handler>
	j __no_irq_handler
  c4:	3fb0006f          	j	cbe <__no_irq_handler>
	j __no_irq_handler
  c8:	3f70006f          	j	cbe <__no_irq_handler>
	j __no_irq_handler
  cc:	3f30006f          	j	cbe <__no_irq_handler>
	j __no_irq_handler
  d0:	3ef0006f          	j	cbe <__no_irq_handler>
	j __no_irq_handler
  d4:	3eb0006f          	j	cbe <__no_irq_handler>
	j __no_irq_handler
  d8:	3e70006f          	j	cbe <__no_irq_handler>
	j __no_irq_handler
  dc:	3e30006f          	j	cbe <__no_irq_handler>
	j __no_irq_handler
  e0:	3df0006f          	j	cbe <__no_irq_handler>
	j __no_irq_handler
  e4:	3db0006f          	j	cbe <__no_irq_handler>
	j __no_irq_handler
  e8:	3d70006f          	j	cbe <__no_irq_handler>
	j __no_irq_handler
  ec:	3d30006f          	j	cbe <__no_irq_handler>
	j __no_irq_handler
  f0:	3cf0006f          	j	cbe <__no_irq_handler>
	j __no_irq_handler
  f4:	3cb0006f          	j	cbe <__no_irq_handler>
	j __no_irq_handler
  f8:	3c70006f          	j	cbe <__no_irq_handler>
	j __no_irq_handler
  fc:	3c30006f          	j	cbe <__no_irq_handler>
	j __no_irq_handler
 100:	3bf0006f          	j	cbe <__no_irq_handler>

Disassembly of section .init:

00000180 <_start>:

_start:
/* initialize global pointer */
.option push
.option norelax
1: auipc gp, %pcrel_hi(__global_pointer$)
 180:	00081197          	auipc	gp,0x81
   addi  gp, gp, %pcrel_lo(1b)
 184:	bb418193          	addi	gp,gp,-1100 # 80d34 <__global_pointer$>
.option pop

/* initialize stack pointer */
   la sp, _sp
 188:	000e0117          	auipc	sp,0xe0
 18c:	62810113          	addi	sp,sp,1576 # e07b0 <_sp>

/* set the frequency */
   li a0, SOC_CTRL_START_ADDRESS
 190:	20000537          	lui	a0,0x20000
   li a2, REFERENCE_CLOCK_Hz
 194:	05f5e637          	lui	a2,0x5f5e
 198:	10060613          	addi	a2,a2,256 # 5f5e100 <_sp+0x5e7d950>
   sw a2, SOC_CTRL_SYSTEM_FREQUENCY_HZ_REG_OFFSET(a0)
 19c:	cd50                	sw	a2,28(a0)
    sub    a2, a2, a0
    li     a1, 0
    call   memset
#else
/* clear the bss segment */
   la a0, __bss_start
 19e:	00080517          	auipc	a0,0x80
 1a2:	40650513          	addi	a0,a0,1030 # 805a4 <outleft>
   la a2, __bss_end
 1a6:	00080617          	auipc	a2,0x80
 1aa:	5fe60613          	addi	a2,a2,1534 # 807a4 <__BSS_END__>
   sub a2, a2, a0
 1ae:	8e09                	sub	a2,a2,a0
   li a1, 0
 1b0:	4581                	li	a1,0
   call memset
 1b2:	65e030ef          	jal	ra,3810 <memset>
    blt a1, a2, loop_init_data
    end_init_data:
#endif

/* set vector table address and vectored mode */
    la a0, __vector_start
 1b6:	00000517          	auipc	a0,0x0
 1ba:	e4a50513          	addi	a0,a0,-438 # 0 <__vector_start>
    ori a0, a0, 0x1
 1be:	00156513          	ori	a0,a0,1
    csrw mtvec, a0
 1c2:	30551073          	csrw	mtvec,a0

/* new-style constructors and destructors */
    la a0, __libc_fini_array
 1c6:	00003517          	auipc	a0,0x3
 1ca:	5aa50513          	addi	a0,a0,1450 # 3770 <__libc_fini_array>
    call atexit
 1ce:	598030ef          	jal	ra,3766 <atexit>
    call __libc_init_array
 1d2:	5d8030ef          	jal	ra,37aa <__libc_init_array>

/* call main */
    lw a0, 0(sp)                    /* a0 = argc */
 1d6:	4502                	lw	a0,0(sp)
    addi a1, sp, __SIZEOF_POINTER__ /* a1 = argv */
 1d8:	004c                	addi	a1,sp,4
    li a2, 0                        /* a2 = envp = NULL */
 1da:	4601                	li	a2,0
    call main
 1dc:	03a000ef          	jal	ra,216 <main>
    tail exit
 1e0:	00c0006f          	j	1ec <exit>

000001e4 <_init>:
.global _init
.type   _init, @function
.global _fini
.type   _fini, @function
_init:
    call init
 1e4:	553020ef          	jal	ra,2f36 <init>

000001e8 <_fini>:
_fini:
 /* These don't have to do anything since we use init_array/fini_array. Prevent
    missing symbol error */
    ret
 1e8:	8082                	ret

Disassembly of section .text:

000001ec <exit>:
     1ec:	1141                	addi	sp,sp,-16
     1ee:	6791                	lui	a5,0x4
     1f0:	c422                	sw	s0,8(sp)
     1f2:	c606                	sw	ra,12(sp)
     1f4:	c6278793          	addi	a5,a5,-926 # 3c62 <__call_exitprocs>
     1f8:	842a                	mv	s0,a0
     1fa:	c781                	beqz	a5,202 <exit+0x16>
     1fc:	4581                	li	a1,0
     1fe:	265030ef          	jal	ra,3c62 <__call_exitprocs>
     202:	000807b7          	lui	a5,0x80
     206:	5947a503          	lw	a0,1428(a5) # 80594 <_global_impure_ptr>
     20a:	551c                	lw	a5,40(a0)
     20c:	c391                	beqz	a5,210 <exit+0x24>
     20e:	9782                	jalr	a5
     210:	8522                	mv	a0,s0
     212:	52d020ef          	jal	ra,2f3e <_exit>

00000216 <main>:

#define crypto_kem_keypair NAMESPACE(crypto_kem_keypair)
#define crypto_kem_enc NAMESPACE(crypto_kem_enc)
#define crypto_kem_dec NAMESPACE(crypto_kem_dec)

int main(void) {
     216:	72ed                	lui	t0,0xffffb
     218:	7139                	addi	sp,sp,-64
     21a:	32028293          	addi	t0,t0,800 # ffffb320 <_sp+0xfff1ab70>
    uint8_t sk_a[CRYPTO_SECRETKEYBYTES];
    int i, j;
    unsigned int cycles_keygen, cycles_enc, cycles_dec;
    

    printf("Hi testvectors KEM!\n");
     21e:	00080537          	lui	a0,0x80
int main(void) {
     222:	de06                	sw	ra,60(sp)
     224:	dc26                	sw	s1,56(sp)
     226:	da4a                	sw	s2,52(sp)
     228:	d84e                	sw	s3,48(sp)
     22a:	d652                	sw	s4,44(sp)
     22c:	d456                	sw	s5,40(sp)
     22e:	d25a                	sw	s6,36(sp)
     230:	d05e                	sw	s7,32(sp)
     232:	ce62                	sw	s8,28(sp)
     234:	cc66                	sw	s9,24(sp)
    printf("Hi testvectors KEM!\n");
     236:	0dc50513          	addi	a0,a0,220 # 800dc <no_exception_handler_msg+0x47>
int main(void) {
     23a:	9116                	add	sp,sp,t0
    printf("Hi testvectors KEM!\n");
     23c:	6c2030ef          	jal	ra,38fe <puts>
    init_athos();
     240:	40f000ef          	jal	ra,e4e <init_athos>
    CSR_CLEAR_BITS(CSR_REG_MCOUNTINHIBIT, 0x1);
     244:	4785                	li	a5,1
     246:	3207b073          	csrc	mcountinhibit,a5
    // Starting the performance counter
    CSR_WRITE(CSR_REG_MCYCLE, 0);
     24a:	4781                	li	a5,0
     24c:	b0079073          	csrw	mcycle,a5
* Returns 0 (success)
**************************************************/
int PQCLEAN_KYBER1024_CLEAN_crypto_kem_keypair(uint8_t *pk,
        uint8_t *sk) {
    uint8_t coins[2 * KYBER_SYMBYTES];
    randombytes(coins, 2 * KYBER_SYMBYTES);
     250:	6495                	lui	s1,0x5
     252:	79ed                	lui	s3,0xffffb
     254:	34098913          	addi	s2,s3,832 # ffffb340 <_sp+0xfff1ab90>
     258:	ce048793          	addi	a5,s1,-800 # 4ce0 <__sfvwrite_r+0x1d4>
     25c:	97ca                	add	a5,a5,s2
     25e:	0818                	addi	a4,sp,16
     260:	00e78933          	add	s2,a5,a4
     264:	854a                	mv	a0,s2
     266:	04000593          	li	a1,64
     26a:	0db010ef          	jal	ra,1b44 <randombytes>
    const uint8_t *noiseseed = buf + KYBER_SYMBYTES;
    uint8_t nonce = 0;
    polyvec a[KYBER_K], e, pkpv, skpv;

    //hash_g(buf, coins, KYBER_SYMBYTES);
    sha3_512(buf, coins, KYBER_SYMBYTES);
     26e:	38098993          	addi	s3,s3,896
     272:	ce048793          	addi	a5,s1,-800
     276:	97ce                	add	a5,a5,s3
     278:	0818                	addi	a4,sp,16
     27a:	00e789b3          	add	s3,a5,a4
     27e:	85ca                	mv	a1,s2
     280:	854e                	mv	a0,s3
     282:	02000613          	li	a2,32
     286:	1da020ef          	jal	ra,2460 <sha3_512>

    PQCLEAN_KYBER1024_CLEAN_gen_matrix(a, publicseed, 0);
     28a:	7579                	lui	a0,0xffffe
     28c:	ce048793          	addi	a5,s1,-800
     290:	97aa                	add	a5,a5,a0
     292:	0818                	addi	a4,sp,16
     294:	00e78533          	add	a0,a5,a4
     298:	85ce                	mv	a1,s3
     29a:	4601                	li	a2,0
     29c:	54a020ef          	jal	ra,27e6 <PQCLEAN_KYBER1024_CLEAN_gen_matrix>

    for (i = 0; i < KYBER_K; i++) {
     2a0:	7975                	lui	s2,0xffffd
     2a2:	ba090913          	addi	s2,s2,-1120 # ffffcba0 <_sp+0xfff1c3f0>
     2a6:	ce048793          	addi	a5,s1,-800
     2aa:	97ca                	add	a5,a5,s2
     2ac:	0818                	addi	a4,sp,16
     2ae:	00e78933          	add	s2,a5,a4
     2b2:	4481                	li	s1,0
        PQCLEAN_KYBER1024_CLEAN_poly_getnoise_eta1(&skpv.vec[i], noiseseed, nonce++);
     2b4:	02098993          	addi	s3,s3,32
    for (i = 0; i < KYBER_K; i++) {
     2b8:	4a11                	li	s4,4
        PQCLEAN_KYBER1024_CLEAN_poly_getnoise_eta1(&skpv.vec[i], noiseseed, nonce++);
     2ba:	0ff4f613          	zext.b	a2,s1
     2be:	854a                	mv	a0,s2
     2c0:	85ce                	mv	a1,s3
    for (i = 0; i < KYBER_K; i++) {
     2c2:	0485                	addi	s1,s1,1
        PQCLEAN_KYBER1024_CLEAN_poly_getnoise_eta1(&skpv.vec[i], noiseseed, nonce++);
     2c4:	39e020ef          	jal	ra,2662 <PQCLEAN_KYBER1024_CLEAN_poly_getnoise_eta1>
    for (i = 0; i < KYBER_K; i++) {
     2c8:	20090913          	addi	s2,s2,512
     2cc:	ff4497e3          	bne	s1,s4,2ba <main+0xa4>
     2d0:	6715                	lui	a4,0x5
     2d2:	74f1                	lui	s1,0xffffc
     2d4:	ba048493          	addi	s1,s1,-1120 # ffffbba0 <_sp+0xfff1b3f0>
     2d8:	ce070793          	addi	a5,a4,-800 # 4ce0 <__sfvwrite_r+0x1d4>
     2dc:	97a6                	add	a5,a5,s1
     2de:	0814                	addi	a3,sp,16
     2e0:	00d784b3          	add	s1,a5,a3
    }
    for (i = 0; i < KYBER_K; i++) {
        PQCLEAN_KYBER1024_CLEAN_poly_getnoise_eta1(&e.vec[i], noiseseed, nonce++);
     2e4:	7a6d                	lui	s4,0xffffb
     2e6:	ce070793          	addi	a5,a4,-800
     2ea:	97d2                	add	a5,a5,s4
     2ec:	00d78a33          	add	s4,a5,a3
    for (i = 0; i < KYBER_K; i++) {
     2f0:	89a6                	mv	s3,s1
        PQCLEAN_KYBER1024_CLEAN_poly_getnoise_eta1(&skpv.vec[i], noiseseed, nonce++);
     2f2:	4911                	li	s2,4
        PQCLEAN_KYBER1024_CLEAN_poly_getnoise_eta1(&e.vec[i], noiseseed, nonce++);
     2f4:	3a0a0a13          	addi	s4,s4,928 # ffffb3a0 <_sp+0xfff1abf0>
    for (i = 0; i < KYBER_K; i++) {
     2f8:	4aa1                	li	s5,8
        PQCLEAN_KYBER1024_CLEAN_poly_getnoise_eta1(&e.vec[i], noiseseed, nonce++);
     2fa:	864a                	mv	a2,s2
     2fc:	0905                	addi	s2,s2,1
     2fe:	854e                	mv	a0,s3
     300:	85d2                	mv	a1,s4
     302:	0ff97913          	zext.b	s2,s2
     306:	35c020ef          	jal	ra,2662 <PQCLEAN_KYBER1024_CLEAN_poly_getnoise_eta1>
    for (i = 0; i < KYBER_K; i++) {
     30a:	20098993          	addi	s3,s3,512
     30e:	ff5916e3          	bne	s2,s5,2fa <main+0xe4>
    }

    //PQCLEAN_KYBER1024_CLEAN_polyvec_ntt(&skpv);
    ntt_driver(skpv.vec[0].coeffs, skpv.vec[0].coeffs);
     312:	6a95                	lui	s5,0x5
     314:	79f5                	lui	s3,0xffffd
     316:	ba098993          	addi	s3,s3,-1120 # ffffcba0 <_sp+0xfff1c3f0>
     31a:	ce0a8793          	addi	a5,s5,-800 # 4ce0 <__sfvwrite_r+0x1d4>
     31e:	97ce                	add	a5,a5,s3
     320:	0818                	addi	a4,sp,16
     322:	00e789b3          	add	s3,a5,a4
     326:	85ce                	mv	a1,s3
     328:	854e                	mv	a0,s3
     32a:	355010ef          	jal	ra,1e7e <ntt_driver>
    ntt_driver(skpv.vec[1].coeffs, skpv.vec[1].coeffs);
     32e:	20098593          	addi	a1,s3,512
     332:	852e                	mv	a0,a1
     334:	34b010ef          	jal	ra,1e7e <ntt_driver>
    ntt_driver(skpv.vec[2].coeffs, skpv.vec[2].coeffs);
     338:	40098593          	addi	a1,s3,1024
     33c:	852e                	mv	a0,a1
     33e:	341010ef          	jal	ra,1e7e <ntt_driver>
    ntt_driver(skpv.vec[3].coeffs, skpv.vec[3].coeffs);
     342:	60098593          	addi	a1,s3,1536
     346:	852e                	mv	a0,a1
     348:	337010ef          	jal	ra,1e7e <ntt_driver>
    //PQCLEAN_KYBER1024_CLEAN_polyvec_ntt(&e);
    ntt_driver(e.vec[0].coeffs, e.vec[0].coeffs);
     34c:	7a71                	lui	s4,0xffffc
     34e:	ba0a0913          	addi	s2,s4,-1120 # ffffbba0 <_sp+0xfff1b3f0>
     352:	ce0a8793          	addi	a5,s5,-800
     356:	97ca                	add	a5,a5,s2
     358:	0818                	addi	a4,sp,16
     35a:	00e78933          	add	s2,a5,a4
     35e:	85ca                	mv	a1,s2
     360:	854a                	mv	a0,s2
     362:	31d010ef          	jal	ra,1e7e <ntt_driver>
    ntt_driver(e.vec[1].coeffs, e.vec[1].coeffs);
     366:	20090593          	addi	a1,s2,512
     36a:	852e                	mv	a0,a1
     36c:	313010ef          	jal	ra,1e7e <ntt_driver>
    ntt_driver(e.vec[2].coeffs, e.vec[2].coeffs);
     370:	40090593          	addi	a1,s2,1024
     374:	852e                	mv	a0,a1
     376:	309010ef          	jal	ra,1e7e <ntt_driver>
    ntt_driver(e.vec[3].coeffs, e.vec[3].coeffs);
     37a:	60090593          	addi	a1,s2,1536
     37e:	852e                	mv	a0,a1
     380:	2ff010ef          	jal	ra,1e7e <ntt_driver>

    // matrix-vector multiplication
    for (i = 0; i < KYBER_K; i++) {
     384:	3a0a0913          	addi	s2,s4,928
     388:	ce0a8793          	addi	a5,s5,-800
     38c:	97ca                	add	a5,a5,s2
     38e:	0818                	addi	a4,sp,16
     390:	00e78933          	add	s2,a5,a4
     394:	7cf9                	lui	s9,0xffffe
     396:	ce0a8793          	addi	a5,s5,-800
     39a:	6a05                	lui	s4,0x1
     39c:	800a0a13          	addi	s4,s4,-2048 # 800 <main+0x5ea>
     3a0:	97e6                	add	a5,a5,s9
     3a2:	00e78cb3          	add	s9,a5,a4
     3a6:	01490ab3          	add	s5,s2,s4
    ntt_driver(e.vec[3].coeffs, e.vec[3].coeffs);
     3aa:	8b4a                	mv	s6,s2
void PQCLEAN_KYBER1024_CLEAN_poly_tomont(poly *r) {
    size_t i;
    const int16_t f = (1ULL << 32) % KYBER_Q;
    for (i = 0; i < KYBER_N; i++) {
        //r->coeffs[i] = PQCLEAN_KYBER1024_CLEAN_montgomery_reduce((int32_t)r->coeffs[i] * f);
        asm volatile (".insn r 0x0b, 0x003, 2, %[dst], %[src], x0\r\n" : [dst] "=r" (r->coeffs[i]) : [src] "r" ((int32_t)r->coeffs[i] * f) : );
     3ac:	54900c13          	li	s8,1353
    for (i = 0; i < KYBER_N; i++) {
     3b0:	10000b93          	li	s7,256
        PQCLEAN_KYBER1024_CLEAN_polyvec_basemul_acc_montgomery(&pkpv.vec[i], &a[i], &skpv);
     3b4:	864e                	mv	a2,s3
     3b6:	85e6                	mv	a1,s9
     3b8:	855a                	mv	a0,s6
     3ba:	678010ef          	jal	ra,1a32 <PQCLEAN_KYBER1024_CLEAN_polyvec_basemul_acc_montgomery>
     3be:	865a                	mv	a2,s6
     3c0:	4701                	li	a4,0
        asm volatile (".insn r 0x0b, 0x003, 2, %[dst], %[src], x0\r\n" : [dst] "=r" (r->coeffs[i]) : [src] "r" ((int32_t)r->coeffs[i] * f) : );
     3c2:	00061783          	lh	a5,0(a2)
     3c6:	038787b3          	mul	a5,a5,s8
     3ca:	0407b78b          	0x407b78b
     3ce:	00171693          	slli	a3,a4,0x1
     3d2:	96da                	add	a3,a3,s6
     3d4:	00f69023          	sh	a5,0(a3)
    for (i = 0; i < KYBER_N; i++) {
     3d8:	0705                	addi	a4,a4,1
     3da:	0609                	addi	a2,a2,2
     3dc:	ff7713e3          	bne	a4,s7,3c2 <main+0x1ac>
    for (i = 0; i < KYBER_K; i++) {
     3e0:	200b0b13          	addi	s6,s6,512
     3e4:	9cd2                	add	s9,s9,s4
     3e6:	fd6a97e3          	bne	s5,s6,3b4 <main+0x19e>
     3ea:	6805                	lui	a6,0x1
     3ec:	20090513          	addi	a0,s2,512
     3f0:	a0080813          	addi	a6,a6,-1536 # a00 <main+0x7ea>
     3f4:	85aa                	mv	a1,a0
     3f6:	984a                	add	a6,a6,s2
*            - const poly *a: pointer to first input polynomial
*            - const poly *b: pointer to second input polynomial
**************************************************/
void PQCLEAN_KYBER1024_CLEAN_poly_add(poly *r, const poly *a, const poly *b) {
    size_t i;
    for (i = 0; i < KYBER_N; i++) {
     3f8:	e0058793          	addi	a5,a1,-512
    for (i = 0; i < KYBER_N; i++) {
     3fc:	86a6                	mv	a3,s1
        r->coeffs[i] = a->coeffs[i] + b->coeffs[i];
     3fe:	0007d703          	lhu	a4,0(a5)
     402:	0006d603          	lhu	a2,0(a3)
    for (i = 0; i < KYBER_N; i++) {
     406:	0789                	addi	a5,a5,2
     408:	0689                	addi	a3,a3,2
        r->coeffs[i] = a->coeffs[i] + b->coeffs[i];
     40a:	9732                	add	a4,a4,a2
     40c:	fee79f23          	sh	a4,-2(a5)
    for (i = 0; i < KYBER_N; i++) {
     410:	fef597e3          	bne	a1,a5,3fe <main+0x1e8>
*            - const polyvec *a: pointer to first input vector of polynomials
*            - const polyvec *b: pointer to second input vector of polynomials
**************************************************/
void PQCLEAN_KYBER1024_CLEAN_polyvec_add(polyvec *r, const polyvec *a, const polyvec *b) {
    unsigned int i;
    for (i = 0; i < KYBER_K; i++) {
     414:	20058593          	addi	a1,a1,512
     418:	20048493          	addi	s1,s1,512
     41c:	fcb81ee3          	bne	a6,a1,3f8 <main+0x1e2>
    for (i = 0; i < KYBER_N; i++) {
     420:	10000593          	li	a1,256
        PQCLEAN_KYBER1024_CLEAN_poly_reduce(&r->vec[i]);
     424:	864a                	mv	a2,s2
     426:	4781                	li	a5,0
        asm volatile (".insn r 0x0b, 0x004, 0, %[dst], %[src], x0\r\n" : [dst] "=r" (r->coeffs[i]) : [src] "r" (r->coeffs[i]) : );
     428:	00065683          	lhu	a3,0(a2)
     42c:	0006c68b          	0x6c68b
     430:	00179713          	slli	a4,a5,0x1
     434:	974a                	add	a4,a4,s2
     436:	00d71023          	sh	a3,0(a4)
    for (i = 0; i < KYBER_N; i++) {
     43a:	0785                	addi	a5,a5,1
     43c:	0609                	addi	a2,a2,2
     43e:	feb795e3          	bne	a5,a1,428 <main+0x212>
    for (i = 0; i < KYBER_K; i++) {
     442:	892a                	mv	s2,a0
     444:	00aa8563          	beq	s5,a0,44e <main+0x238>
     448:	20050513          	addi	a0,a0,512 # ffffe200 <_sp+0xfff1da50>
     44c:	bfe1                	j	424 <main+0x20e>
    PQCLEAN_KYBER1024_CLEAN_polyvec_tobytes(r, sk);
     44e:	79f5                	lui	s3,0xffffd
     450:	6795                	lui	a5,0x5
     452:	8a3e                	mv	s4,a5
     454:	ba098593          	addi	a1,s3,-1120 # ffffcba0 <_sp+0xfff1c3f0>
     458:	3a098513          	addi	a0,s3,928
     45c:	ce078713          	addi	a4,a5,-800 # 4ce0 <__sfvwrite_r+0x1d4>
     460:	ce078793          	addi	a5,a5,-800
     464:	0814                	addi	a3,sp,16
     466:	972e                	add	a4,a4,a1
     468:	97aa                	add	a5,a5,a0
     46a:	00d705b3          	add	a1,a4,a3
     46e:	00d78533          	add	a0,a5,a3
     472:	369000ef          	jal	ra,fda <PQCLEAN_KYBER1024_CLEAN_polyvec_tobytes>
    PQCLEAN_KYBER1024_CLEAN_polyvec_tobytes(r, pk);
     476:	796d                	lui	s2,0xffffb
     478:	58090493          	addi	s1,s2,1408 # ffffb580 <_sp+0xfff1add0>
     47c:	ce0a0713          	addi	a4,s4,-800
     480:	75f1                	lui	a1,0xffffc
     482:	0814                	addi	a3,sp,16
     484:	9726                	add	a4,a4,s1
     486:	3a058593          	addi	a1,a1,928 # ffffc3a0 <_sp+0xfff1bbf0>
     48a:	ce0a0793          	addi	a5,s4,-800
     48e:	00d704b3          	add	s1,a4,a3
     492:	97ae                	add	a5,a5,a1
     494:	00d785b3          	add	a1,a5,a3
     498:	8526                	mv	a0,s1
     49a:	341000ef          	jal	ra,fda <PQCLEAN_KYBER1024_CLEAN_polyvec_tobytes>
    memcpy(r + KYBER_POLYVECBYTES, seed, KYBER_SYMBYTES);
     49e:	38090793          	addi	a5,s2,896
     4a2:	ce0a0693          	addi	a3,s4,-800
     4a6:	96be                	add	a3,a3,a5
     4a8:	081c                	addi	a5,sp,16
     4aa:	97b6                	add	a5,a5,a3
    memcpy(sk + KYBER_INDCPA_SECRETKEYBYTES, pk, KYBER_PUBLICKEYBYTES);
     4ac:	ce0a0713          	addi	a4,s4,-800
     4b0:	0007ae03          	lw	t3,0(a5)
     4b4:	01010e93          	addi	t4,sp,16
     4b8:	974e                	add	a4,a4,s3
     4ba:	9776                	add	a4,a4,t4
     4bc:	c43a                	sw	a4,8(sp)
     4be:	00c7a803          	lw	a6,12(a5)
     4c2:	0047a303          	lw	t1,4(a5)
     4c6:	0087a883          	lw	a7,8(a5)
     4ca:	4b88                	lw	a0,16(a5)
     4cc:	4bcc                	lw	a1,20(a5)
     4ce:	4f90                	lw	a2,24(a5)
     4d0:	4fd4                	lw	a3,28(a5)
     4d2:	ce0a0793          	addi	a5,s4,-800
     4d6:	60048713          	addi	a4,s1,1536
     4da:	61c4a023          	sw	t3,1536(s1)
     4de:	97ca                	add	a5,a5,s2
     4e0:	44a2                	lw	s1,8(sp)
     4e2:	97f6                	add	a5,a5,t4
     4e4:	c63e                	sw	a5,12(sp)
     4e6:	6785                	lui	a5,0x1
     4e8:	97a6                	add	a5,a5,s1
     4ea:	c43e                	sw	a5,8(sp)
     4ec:	47b2                	lw	a5,12(sp)
     4ee:	01072623          	sw	a6,12(a4)
     4f2:	00672223          	sw	t1,4(a4)
     4f6:	01172423          	sw	a7,8(a4)
     4fa:	cb08                	sw	a0,16(a4)
     4fc:	cb4c                	sw	a1,20(a4)
     4fe:	cf10                	sw	a2,24(a4)
     500:	cf54                	sw	a3,28(a4)
     502:	4722                	lw	a4,8(sp)
     504:	58078793          	addi	a5,a5,1408 # 1580 <PQCLEAN_KYBER1024_CLEAN_poly_basemul_montgomery+0x4a4>
     508:	62078813          	addi	a6,a5,1568
     50c:	9a070713          	addi	a4,a4,-1632
     510:	4388                	lw	a0,0(a5)
     512:	43cc                	lw	a1,4(a5)
     514:	4790                	lw	a2,8(a5)
     516:	47d4                	lw	a3,12(a5)
     518:	c308                	sw	a0,0(a4)
     51a:	c34c                	sw	a1,4(a4)
     51c:	c710                	sw	a2,8(a4)
     51e:	c754                	sw	a3,12(a4)
     520:	07c1                	addi	a5,a5,16
     522:	0741                	addi	a4,a4,16
     524:	ff0796e3          	bne	a5,a6,510 <main+0x2fa>
    sha3_256(sk + KYBER_SECRETKEYBYTES - 2 * KYBER_SYMBYTES, pk, KYBER_PUBLICKEYBYTES);
     528:	6a95                	lui	s5,0x5
     52a:	74f5                	lui	s1,0xffffd
     52c:	3a048793          	addi	a5,s1,928 # ffffd3a0 <_sp+0xfff1cbf0>
     530:	ce0a8713          	addi	a4,s5,-800 # 4ce0 <__sfvwrite_r+0x1d4>
     534:	79ed                	lui	s3,0xffffb
     536:	973e                	add	a4,a4,a5
     538:	081c                	addi	a5,sp,16
     53a:	00f70933          	add	s2,a4,a5
     53e:	58098b13          	addi	s6,s3,1408 # ffffb580 <_sp+0xfff1add0>
     542:	ce0a8793          	addi	a5,s5,-800
     546:	0818                	addi	a4,sp,16
     548:	97da                	add	a5,a5,s6
     54a:	6a05                	lui	s4,0x1
     54c:	00e78b33          	add	s6,a5,a4
     550:	c20a0513          	addi	a0,s4,-992 # c20 <main+0xa0a>
     554:	85da                	mv	a1,s6
     556:	954a                	add	a0,a0,s2
     558:	747010ef          	jal	ra,249e <sha3_256.constprop.0>
    memcpy(sk + KYBER_SECRETKEYBYTES - KYBER_SYMBYTES, coins + KYBER_SYMBYTES, KYBER_SYMBYTES);
     55c:	34098793          	addi	a5,s3,832
     560:	ce0a8713          	addi	a4,s5,-800
     564:	973e                	add	a4,a4,a5
     566:	081c                	addi	a5,sp,16
     568:	97ba                	add	a5,a5,a4
     56a:	0207a303          	lw	t1,32(a5)
     56e:	0247a883          	lw	a7,36(a5)
     572:	0287a803          	lw	a6,40(a5)
     576:	57c8                	lw	a0,44(a5)
     578:	5b8c                	lw	a1,48(a5)
     57a:	5bd0                	lw	a2,52(a5)
     57c:	5f94                	lw	a3,56(a5)
     57e:	5fd8                	lw	a4,60(a5)
     580:	c40a0a13          	addi	s4,s4,-960
     584:	014907b3          	add	a5,s2,s4
     588:	0067a023          	sw	t1,0(a5)
     58c:	0117a223          	sw	a7,4(a5)
     590:	0107a423          	sw	a6,8(a5)
     594:	c7c8                	sw	a0,12(a5)
     596:	cb8c                	sw	a1,16(a5)
     598:	cbd0                	sw	a2,20(a5)
     59a:	cf94                	sw	a3,24(a5)
     59c:	cfd8                	sw	a4,28(a5)
    // Key-pair generation
    crypto_kem_keypair(pk, sk_a);
    CSR_READ(CSR_REG_MCYCLE, &cycles_keygen);
     59e:	b00025f3          	csrr	a1,mcycle
    printf("Number of clock cycles keygen: %d\n", cycles_keygen);
     5a2:	00080537          	lui	a0,0x80
     5a6:	0f050513          	addi	a0,a0,240 # 800f0 <no_exception_handler_msg+0x5b>
     5aa:	102040ef          	jal	ra,46ac <iprintf>

    //printbytes(pk, CRYPTO_PUBLICKEYBYTES);
    //printbytes(sk_a, CRYPTO_SECRETKEYBYTES);

    // Encapsulation
    CSR_WRITE(CSR_REG_MCYCLE, 0);
     5ae:	4b81                	li	s7,0
     5b0:	b00b9073          	csrw	mcycle,s7
**************************************************/
int PQCLEAN_KYBER1024_CLEAN_crypto_kem_enc(uint8_t *ct,
        uint8_t *ss,
        const uint8_t *pk) {
    uint8_t coins[KYBER_SYMBYTES];
    randombytes(coins, KYBER_SYMBYTES);
     5b4:	7a71                	lui	s4,0xffffc
     5b6:	ba0a0513          	addi	a0,s4,-1120 # ffffbba0 <_sp+0xfff1b3f0>
     5ba:	ce0a8793          	addi	a5,s5,-800
     5be:	0818                	addi	a4,sp,16
     5c0:	97aa                	add	a5,a5,a0
     5c2:	00e78533          	add	a0,a5,a4
     5c6:	02000593          	li	a1,32
     5ca:	57a010ef          	jal	ra,1b44 <randombytes>
     5ce:	8c56                	mv	s8,s5
    memcpy(buf, coins, KYBER_SYMBYTES);
     5d0:	ce0a8793          	addi	a5,s5,-800
     5d4:	0818                	addi	a4,sp,16
    sha3_256(buf + KYBER_SYMBYTES, pk, KYBER_PUBLICKEYBYTES);
     5d6:	ba048a93          	addi	s5,s1,-1120
    memcpy(buf, coins, KYBER_SYMBYTES);
     5da:	97d2                	add	a5,a5,s4
    sha3_256(buf + KYBER_SYMBYTES, pk, KYBER_PUBLICKEYBYTES);
     5dc:	ce0c0593          	addi	a1,s8,-800
    memcpy(buf, coins, KYBER_SYMBYTES);
     5e0:	97ba                	add	a5,a5,a4
    sha3_256(buf + KYBER_SYMBYTES, pk, KYBER_PUBLICKEYBYTES);
     5e2:	0808                	addi	a0,sp,16
     5e4:	95d6                	add	a1,a1,s5
    memcpy(buf, coins, KYBER_SYMBYTES);
     5e6:	ba07ae03          	lw	t3,-1120(a5)
     5ea:	ba47a303          	lw	t1,-1116(a5)
     5ee:	ba87a883          	lw	a7,-1112(a5)
     5f2:	bac7a803          	lw	a6,-1108(a5)
     5f6:	bb47a683          	lw	a3,-1100(a5)
    sha3_256(buf + KYBER_SYMBYTES, pk, KYBER_PUBLICKEYBYTES);
     5fa:	00a58ab3          	add	s5,a1,a0
    memcpy(buf, coins, KYBER_SYMBYTES);
     5fe:	bb07a603          	lw	a2,-1104(a5)
     602:	bb87a703          	lw	a4,-1096(a5)
     606:	ce0c0593          	addi	a1,s8,-800
     60a:	bbc7a783          	lw	a5,-1092(a5)
     60e:	95a6                	add	a1,a1,s1
     610:	00a584b3          	add	s1,a1,a0
     614:	bbc4a023          	sw	t3,-1120(s1)
     618:	ba64a223          	sw	t1,-1116(s1)
     61c:	bb14a423          	sw	a7,-1112(s1)
     620:	bb04a623          	sw	a6,-1108(s1)
     624:	bad4aa23          	sw	a3,-1100(s1)
    sha3_256(buf + KYBER_SYMBYTES, pk, KYBER_PUBLICKEYBYTES);
     628:	85da                	mv	a1,s6
     62a:	020a8513          	addi	a0,s5,32
    memcpy(buf, coins, KYBER_SYMBYTES);
     62e:	bac4a823          	sw	a2,-1104(s1)
     632:	bae4ac23          	sw	a4,-1096(s1)
     636:	baf4ae23          	sw	a5,-1092(s1)
    sha3_256(buf + KYBER_SYMBYTES, pk, KYBER_PUBLICKEYBYTES);
     63a:	665010ef          	jal	ra,249e <sha3_256.constprop.0>
    sha3_512(kr, buf, 2 * KYBER_SYMBYTES);
     63e:	7979                	lui	s2,0xffffe
     640:	ce0c0793          	addi	a5,s8,-800
     644:	0818                	addi	a4,sp,16
     646:	97ca                	add	a5,a5,s2
     648:	00e78933          	add	s2,a5,a4
     64c:	85d6                	mv	a1,s5
     64e:	854a                	mv	a0,s2
     650:	04000613          	li	a2,64
     654:	60d010ef          	jal	ra,2460 <sha3_512>
    PQCLEAN_KYBER1024_CLEAN_indcpa_enc(ct, buf, pk, kr + KYBER_SYMBYTES);
     658:	3a0a0a13          	addi	s4,s4,928
     65c:	ce0c0793          	addi	a5,s8,-800
     660:	0818                	addi	a4,sp,16
     662:	97d2                	add	a5,a5,s4
     664:	00e78a33          	add	s4,a5,a4
     668:	02090693          	addi	a3,s2,32 # ffffe020 <_sp+0xfff1d870>
     66c:	865a                	mv	a2,s6
     66e:	85d6                	mv	a1,s5
     670:	8552                	mv	a0,s4
     672:	368020ef          	jal	ra,29da <PQCLEAN_KYBER1024_CLEAN_indcpa_enc>
    memcpy(ss, kr, KYBER_SYMBYTES);
     676:	00092883          	lw	a7,0(s2)
     67a:	00492803          	lw	a6,4(s2)
     67e:	00892503          	lw	a0,8(s2)
     682:	00c92583          	lw	a1,12(s2)
     686:	01092603          	lw	a2,16(s2)
     68a:	01492683          	lw	a3,20(s2)
     68e:	01892703          	lw	a4,24(s2)
     692:	01c92783          	lw	a5,28(s2)
     696:	ce0c0313          	addi	t1,s8,-800
     69a:	934e                	add	t1,t1,s3
     69c:	01010e13          	addi	t3,sp,16
     6a0:	9372                	add	t1,t1,t3
     6a2:	c41a                	sw	t1,8(sp)
     6a4:	33132023          	sw	a7,800(t1)
     6a8:	33032223          	sw	a6,804(t1)
     6ac:	32a32423          	sw	a0,808(t1)
     6b0:	32b32623          	sw	a1,812(t1)
     6b4:	32c32823          	sw	a2,816(t1)
     6b8:	32d32a23          	sw	a3,820(t1)
     6bc:	32e32c23          	sw	a4,824(t1)
     6c0:	32f32e23          	sw	a5,828(t1)
    crypto_kem_enc(sendb, key_b, pk);
    CSR_READ(CSR_REG_MCYCLE, &cycles_enc);
     6c4:	b00025f3          	csrr	a1,mcycle
    printf("Number of clock cycles enc: %d\n", cycles_enc);
     6c8:	00080537          	lui	a0,0x80
     6cc:	11450513          	addi	a0,a0,276 # 80114 <no_exception_handler_msg+0x7f>
     6d0:	7dd030ef          	jal	ra,46ac <iprintf>

    //printbytes(sendb, CRYPTO_CIPHERTEXTBYTES);
    //printbytes(key_b, CRYPTO_BYTES);

    // Decapsulation
    CSR_WRITE(CSR_REG_MCYCLE, 0);
     6d4:	b00b9073          	csrw	mcycle,s7
    for (i = 0; i < KYBER_K; i++) {
     6d8:	4e01                	li	t3,0
     6da:	8352                	mv	t1,s4
            asm volatile (".insn r 0x0b, 0x6, 39, %[dst], %[src], %[x]\r\n" : [dst] "=r" (r->vec[i].coeffs[4 * j])  : [src] "r" (t[0]), [x] "r" (0) :  );
     6dc:	4801                	li	a6,0
        for (j = 0; j < KYBER_N / 8; j++) {
     6de:	08000893          	li	a7,128
    for (i = 0; i < KYBER_K; i++) {
     6e2:	4e91                	li	t4,4
     6e4:	869a                	mv	a3,t1
     6e6:	4581                	li	a1,0
     6e8:	008e1513          	slli	a0,t3,0x8
            t[2] = (a[2] >> 6) | ((uint16_t)a[ 3] << 2) | ((uint16_t)a[4] << 10);
     6ec:	0046cf03          	lbu	t5,4(a3)
     6f0:	0036c783          	lbu	a5,3(a3)
            t[1] = (a[1] >> 3) | ((uint16_t)a[ 2] << 5);
     6f4:	0026c703          	lbu	a4,2(a3)
     6f8:	0016c283          	lbu	t0,1(a3)
            t[3] = (a[4] >> 1) | ((uint16_t)a[ 5] << 7);
     6fc:	0056c603          	lbu	a2,5(a3)
            t[2] = (a[2] >> 6) | ((uint16_t)a[ 3] << 2) | ((uint16_t)a[4] << 10);
     700:	00af1f93          	slli	t6,t5,0xa
     704:	078a                	slli	a5,a5,0x2
     706:	0006c383          	lbu	t2,0(a3)
     70a:	00675913          	srli	s2,a4,0x6
     70e:	01f7e7b3          	or	a5,a5,t6
     712:	0127e7b3          	or	a5,a5,s2
     716:	00829f93          	slli	t6,t0,0x8
            t[3] = (a[4] >> 1) | ((uint16_t)a[ 5] << 7);
     71a:	001f5f13          	srli	t5,t5,0x1
            t[1] = (a[1] >> 3) | ((uint16_t)a[ 2] << 5);
     71e:	0032d293          	srli	t0,t0,0x3
     722:	0716                	slli	a4,a4,0x5
            t[3] = (a[4] >> 1) | ((uint16_t)a[ 5] << 7);
     724:	061e                	slli	a2,a2,0x7
            t[2] = (a[2] >> 6) | ((uint16_t)a[ 3] << 2) | ((uint16_t)a[4] << 10);
     726:	07c2                	slli	a5,a5,0x10
     728:	007fefb3          	or	t6,t6,t2
            t[1] = (a[1] >> 3) | ((uint16_t)a[ 2] << 5);
     72c:	00576733          	or	a4,a4,t0
            t[2] = (a[2] >> 6) | ((uint16_t)a[ 3] << 2) | ((uint16_t)a[4] << 10);
     730:	83c1                	srli	a5,a5,0x10
            t[3] = (a[4] >> 1) | ((uint16_t)a[ 5] << 7);
     732:	01e66633          	or	a2,a2,t5
            a += 11;
     736:	06ad                	addi	a3,a3,11
            asm volatile (".insn r 0x0b, 0x6, 39, %[dst], %[src], %[x]\r\n" : [dst] "=r" (r->vec[i].coeffs[4 * j])  : [src] "r" (t[0]), [x] "r" (0) :  );
     738:	4f0fef8b          	0x4f0fef8b
     73c:	00b50f33          	add	t5,a0,a1
     740:	0f06                	slli	t5,t5,0x1
     742:	9f26                	add	t5,t5,s1
     744:	bbff1023          	sh	t6,-1120(t5)
            asm volatile (".insn r 0x0b, 0x6, 39, %[dst], %[src], %[x]\r\n" : [dst] "=r" (r->vec[i].coeffs[4 * j + 1])  : [src] "r" (t[1]), [x] "r" (0) :  );
     748:	4f07670b          	0x4f07670b
     74c:	00158f13          	addi	t5,a1,1
     750:	9f2a                	add	t5,t5,a0
     752:	0f06                	slli	t5,t5,0x1
     754:	9f26                	add	t5,t5,s1
     756:	baef1023          	sh	a4,-1120(t5)
            asm volatile (".insn r 0x0b, 0x6, 39, %[dst], %[src], %[x]\r\n" : [dst] "=r" (r->vec[i].coeffs[4 * j + 2])  : [src] "r" (t[2]), [x] "r" (0) :  );
     75a:	4f07e78b          	0x4f07e78b
     75e:	00258713          	addi	a4,a1,2
     762:	972a                	add	a4,a4,a0
     764:	0706                	slli	a4,a4,0x1
     766:	9726                	add	a4,a4,s1
     768:	baf71023          	sh	a5,-1120(a4)
            asm volatile (".insn r 0x0b, 0x6, 39, %[dst], %[src], %[x]\r\n" : [dst] "=r" (r->vec[i].coeffs[4 * j + 3])  : [src] "r" (t[3]), [x] "r" (0) :  );
     76c:	4f06670b          	0x4f06670b
     770:	00358793          	addi	a5,a1,3
     774:	97aa                	add	a5,a5,a0
     776:	0786                	slli	a5,a5,0x1
     778:	97a6                	add	a5,a5,s1
     77a:	bae79023          	sh	a4,-1120(a5)
        for (j = 0; j < KYBER_N / 8; j++) {
     77e:	0591                	addi	a1,a1,4
     780:	f71596e3          	bne	a1,a7,6ec <main+0x4d6>
    for (i = 0; i < KYBER_K; i++) {
     784:	0e05                	addi	t3,t3,1
            a += 11;
     786:	16030313          	addi	t1,t1,352
    for (i = 0; i < KYBER_K; i++) {
     78a:	f5de1de3          	bne	t3,t4,6e4 <main+0x4ce>
     78e:	7371                	lui	t1,0xffffc
     790:	6795                	lui	a5,0x5
     792:	3a030313          	addi	t1,t1,928 # ffffc3a0 <_sp+0xfff1bbf0>
     796:	ce078793          	addi	a5,a5,-800 # 4ce0 <__sfvwrite_r+0x1d4>
     79a:	979a                	add	a5,a5,t1
     79c:	0818                	addi	a4,sp,16
     79e:	00e78333          	add	t1,a5,a4
     7a2:	58030813          	addi	a6,t1,1408
        asm volatile (".insn r 0x0b, 0x006, 21, %[dst], %[src], %[x]\r\n" : [dst] "=r" (r->coeffs[8 * i])  : [src] "r" (t[0]), [x] "r" (0) :  );
     7a6:	796d                	lui	s2,0xffffb
     7a8:	4781                	li	a5,0
     7aa:	4501                	li	a0,0
    for (i = 0; i < KYBER_N / 8; i++) {
     7ac:	62030313          	addi	t1,t1,1568
        t[0] = (a[0] >> 0);
     7b0:	00084583          	lbu	a1,0(a6)
        t[1] = (a[0] >> 5) | (a[1] << 3);
     7b4:	00184683          	lbu	a3,1(a6)
        t[3] = (a[1] >> 7) | (a[2] << 1);
     7b8:	00284603          	lbu	a2,2(a6)
        t[4] = (a[2] >> 4) | (a[3] << 4);
     7bc:	00384703          	lbu	a4,3(a6)
        t[6] = (a[3] >> 6) | (a[4] << 2);
     7c0:	00484883          	lbu	a7,4(a6)
        a += 5;
     7c4:	0815                	addi	a6,a6,5
        asm volatile (".insn r 0x0b, 0x006, 21, %[dst], %[src], %[x]\r\n" : [dst] "=r" (r->coeffs[8 * i])  : [src] "r" (t[0]), [x] "r" (0) :  );
     7c6:	2aa5ef0b          	0x2aa5ef0b
     7ca:	00179e13          	slli	t3,a5,0x1
     7ce:	cf010493          	addi	s1,sp,-784
     7d2:	9e26                	add	t3,t3,s1
        t[1] = (a[0] >> 5) | (a[1] << 3);
     7d4:	00369e93          	slli	t4,a3,0x3
     7d8:	8195                	srli	a1,a1,0x5
        asm volatile (".insn r 0x0b, 0x006, 21, %[dst], %[src], %[x]\r\n" : [dst] "=r" (r->coeffs[8 * i])  : [src] "r" (t[0]), [x] "r" (0) :  );
     7da:	39ee1023          	sh	t5,896(t3)
        t[1] = (a[0] >> 5) | (a[1] << 3);
     7de:	01d5e5b3          	or	a1,a1,t4
        asm volatile (".insn r 0x0b, 0x006, 21, %[dst], %[src], %[x]\r\n" : [dst] "=r" (r->coeffs[8 * i + 1])  : [src] "r" (t[1]), [x] "r" (0) :  );
     7e2:	2aa5e58b          	0x2aa5e58b
     7e6:	00178e13          	addi	t3,a5,1
     7ea:	0e06                	slli	t3,t3,0x1
     7ec:	9e26                	add	t3,t3,s1
     7ee:	38be1023          	sh	a1,896(t3)
        t[2] = (a[1] >> 2);
     7f2:	0026de13          	srli	t3,a3,0x2
        asm volatile (".insn r 0x0b, 0x006, 21, %[dst], %[src], %[x]\r\n" : [dst] "=r" (r->coeffs[8 * i + 2])  : [src] "r" (t[2]), [x] "r" (0) :  );
     7f6:	2aae6e0b          	0x2aae6e0b
     7fa:	00278593          	addi	a1,a5,2
     7fe:	0586                	slli	a1,a1,0x1
     800:	95a6                	add	a1,a1,s1
        t[3] = (a[1] >> 7) | (a[2] << 1);
     802:	00161e93          	slli	t4,a2,0x1
     806:	829d                	srli	a3,a3,0x7
        asm volatile (".insn r 0x0b, 0x006, 21, %[dst], %[src], %[x]\r\n" : [dst] "=r" (r->coeffs[8 * i + 2])  : [src] "r" (t[2]), [x] "r" (0) :  );
     808:	39c59023          	sh	t3,896(a1)
        t[3] = (a[1] >> 7) | (a[2] << 1);
     80c:	01d6e6b3          	or	a3,a3,t4
        asm volatile (".insn r 0x0b, 0x006, 21, %[dst], %[src], %[x]\r\n" : [dst] "=r" (r->coeffs[8 * i + 3])  : [src] "r" (t[3]), [x] "r" (0) :  );
     810:	2aa6e68b          	0x2aa6e68b
     814:	00378593          	addi	a1,a5,3
     818:	0586                	slli	a1,a1,0x1
     81a:	95a6                	add	a1,a1,s1
        t[4] = (a[2] >> 4) | (a[3] << 4);
     81c:	00471e13          	slli	t3,a4,0x4
     820:	8211                	srli	a2,a2,0x4
        asm volatile (".insn r 0x0b, 0x006, 21, %[dst], %[src], %[x]\r\n" : [dst] "=r" (r->coeffs[8 * i + 3])  : [src] "r" (t[3]), [x] "r" (0) :  );
     822:	38d59023          	sh	a3,896(a1)
        t[4] = (a[2] >> 4) | (a[3] << 4);
     826:	01c66633          	or	a2,a2,t3
        asm volatile (".insn r 0x0b, 0x006, 21, %[dst], %[src], %[x]\r\n" : [dst] "=r" (r->coeffs[8 * i + 4])  : [src] "r" (t[4]), [x] "r" (0) :  );
     82a:	2aa6660b          	0x2aa6660b
     82e:	00478693          	addi	a3,a5,4
     832:	0686                	slli	a3,a3,0x1
     834:	96a6                	add	a3,a3,s1
     836:	38c69023          	sh	a2,896(a3)
        t[5] = (a[3] >> 1);
     83a:	00175613          	srli	a2,a4,0x1
        asm volatile (".insn r 0x0b, 0x006, 21, %[dst], %[src], %[x]\r\n" : [dst] "=r" (r->coeffs[8 * i + 5])  : [src] "r" (t[5]), [x] "r" (0) :  );
     83e:	2aa6660b          	0x2aa6660b
     842:	00578693          	addi	a3,a5,5
     846:	0686                	slli	a3,a3,0x1
     848:	96a6                	add	a3,a3,s1
        t[6] = (a[3] >> 6) | (a[4] << 2);
     84a:	00289593          	slli	a1,a7,0x2
     84e:	8319                	srli	a4,a4,0x6
        asm volatile (".insn r 0x0b, 0x006, 21, %[dst], %[src], %[x]\r\n" : [dst] "=r" (r->coeffs[8 * i + 5])  : [src] "r" (t[5]), [x] "r" (0) :  );
     850:	38c69023          	sh	a2,896(a3)
        t[6] = (a[3] >> 6) | (a[4] << 2);
     854:	8f4d                	or	a4,a4,a1
        asm volatile (".insn r 0x0b, 0x006, 21, %[dst], %[src], %[x]\r\n" : [dst] "=r" (r->coeffs[8 * i + 6])  : [src] "r" (t[6]), [x] "r" (0) :  );
     856:	2aa7670b          	0x2aa7670b
     85a:	00678693          	addi	a3,a5,6
     85e:	0686                	slli	a3,a3,0x1
     860:	96a6                	add	a3,a3,s1
     862:	38e69023          	sh	a4,896(a3)
        t[7] = (a[4] >> 3);
     866:	0038d893          	srli	a7,a7,0x3
        asm volatile (".insn r 0x0b, 0x006, 21, %[dst], %[src], %[x]\r\n" : [dst] "=r" (r->coeffs[8 * i + 7])  : [src] "r" (t[7]), [x] "r" (0) :  );
     86a:	2aa8e88b          	0x2aa8e88b
     86e:	00778713          	addi	a4,a5,7
     872:	0706                	slli	a4,a4,0x1
     874:	9726                	add	a4,a4,s1
     876:	39171023          	sh	a7,896(a4)
    for (i = 0; i < KYBER_N / 8; i++) {
     87a:	07a1                	addi	a5,a5,8
     87c:	f2681ae3          	bne	a6,t1,7b0 <main+0x59a>
    PQCLEAN_KYBER1024_CLEAN_polyvec_frombytes(sk, packedsk);
     880:	6a15                	lui	s4,0x5
     882:	77f9                	lui	a5,0xffffe
     884:	ce0a0713          	addi	a4,s4,-800 # 4ce0 <__sfvwrite_r+0x1d4>
     888:	973e                	add	a4,a4,a5
     88a:	081c                	addi	a5,sp,16
     88c:	97ba                	add	a5,a5,a4
     88e:	c43e                	sw	a5,8(sp)
     890:	74f5                	lui	s1,0xffffd
     892:	3a048593          	addi	a1,s1,928 # ffffd3a0 <_sp+0xfff1cbf0>
     896:	4522                	lw	a0,8(sp)
     898:	ce0a0793          	addi	a5,s4,-800
     89c:	97ae                	add	a5,a5,a1
     89e:	0818                	addi	a4,sp,16
     8a0:	00e785b3          	add	a1,a5,a4
     8a4:	78e000ef          	jal	ra,1032 <PQCLEAN_KYBER1024_CLEAN_polyvec_frombytes>

    unpack_ciphertext(&b, &v, c);
    unpack_sk(&skpv, sk);

    //PQCLEAN_KYBER1024_CLEAN_polyvec_ntt(&b);
    ntt_driver(b.vec[0].coeffs, b.vec[0].coeffs);
     8a8:	ba048493          	addi	s1,s1,-1120
     8ac:	ce0a0793          	addi	a5,s4,-800
     8b0:	97a6                	add	a5,a5,s1
     8b2:	0818                	addi	a4,sp,16
     8b4:	00e789b3          	add	s3,a5,a4
     8b8:	85ce                	mv	a1,s3
     8ba:	854e                	mv	a0,s3
     8bc:	5c2010ef          	jal	ra,1e7e <ntt_driver>
    ntt_driver(b.vec[1].coeffs, b.vec[1].coeffs);
     8c0:	20098593          	addi	a1,s3,512
     8c4:	852e                	mv	a0,a1
     8c6:	5b8010ef          	jal	ra,1e7e <ntt_driver>
    ntt_driver(b.vec[2].coeffs, b.vec[2].coeffs);
     8ca:	40098593          	addi	a1,s3,1024
     8ce:	852e                	mv	a0,a1
     8d0:	5ae010ef          	jal	ra,1e7e <ntt_driver>
    ntt_driver(b.vec[3].coeffs, b.vec[3].coeffs);
     8d4:	60098593          	addi	a1,s3,1536
     8d8:	852e                	mv	a0,a1
     8da:	5a4010ef          	jal	ra,1e7e <ntt_driver>
   
    PQCLEAN_KYBER1024_CLEAN_polyvec_basemul_acc_montgomery(&mp, &skpv, &b);
     8de:	75f1                	lui	a1,0xffffc
     8e0:	ba058593          	addi	a1,a1,-1120 # ffffbba0 <_sp+0xfff1b3f0>
     8e4:	ce0a0793          	addi	a5,s4,-800
     8e8:	97ae                	add	a5,a5,a1
     8ea:	0818                	addi	a4,sp,16
     8ec:	45a2                	lw	a1,8(sp)
     8ee:	00e784b3          	add	s1,a5,a4
     8f2:	864e                	mv	a2,s3
     8f4:	8526                	mv	a0,s1
     8f6:	13c010ef          	jal	ra,1a32 <PQCLEAN_KYBER1024_CLEAN_polyvec_basemul_acc_montgomery>
    //PQCLEAN_KYBER1024_CLEAN_poly_invntt_tomont(&mp);
    intt_driver(mp.coeffs, mp.coeffs);
     8fa:	85a6                	mv	a1,s1
     8fc:	8526                	mv	a0,s1
     8fe:	6ca010ef          	jal	ra,1fc8 <intt_driver>
*            - const poly *a: pointer to first input polynomial
*            - const poly *b: pointer to second input polynomial
**************************************************/
void PQCLEAN_KYBER1024_CLEAN_poly_sub(poly *r, const poly *a, const poly *b) {
    size_t i;
    for (i = 0; i < KYBER_N; i++) {
     902:	38090693          	addi	a3,s2,896 # ffffb380 <_sp+0xfff1abd0>
     906:	ce0a0793          	addi	a5,s4,-800
     90a:	97b6                	add	a5,a5,a3
     90c:	0818                	addi	a4,sp,16
     90e:	00e786b3          	add	a3,a5,a4
     912:	8626                	mv	a2,s1
     914:	20048513          	addi	a0,s1,512
     918:	87a6                	mv	a5,s1
        r->coeffs[i] = a->coeffs[i] - b->coeffs[i];
     91a:	0007d583          	lhu	a1,0(a5) # ffffe000 <_sp+0xfff1d850>
     91e:	0006d703          	lhu	a4,0(a3)
    for (i = 0; i < KYBER_N; i++) {
     922:	0789                	addi	a5,a5,2
     924:	0689                	addi	a3,a3,2
        r->coeffs[i] = a->coeffs[i] - b->coeffs[i];
     926:	8f0d                	sub	a4,a4,a1
     928:	fee79f23          	sh	a4,-2(a5)
    for (i = 0; i < KYBER_N; i++) {
     92c:	fef517e3          	bne	a0,a5,91a <main+0x704>
        asm volatile (".insn r 0x0b, 0x004, 0, %[dst], %[src], x0\r\n" : [dst] "=r" (r->coeffs[i]) : [src] "r" (r->coeffs[i]) : );
     930:	6695                	lui	a3,0x5
     932:	7771                	lui	a4,0xffffc
     934:	ce068693          	addi	a3,a3,-800 # 4ce0 <__sfvwrite_r+0x1d4>
     938:	96ba                	add	a3,a3,a4
     93a:	0818                	addi	a4,sp,16
     93c:	9736                	add	a4,a4,a3
     93e:	85a6                	mv	a1,s1
    for (i = 0; i < KYBER_N; i++) {
     940:	4781                	li	a5,0
        asm volatile (".insn r 0x0b, 0x004, 0, %[dst], %[src], x0\r\n" : [dst] "=r" (r->coeffs[i]) : [src] "r" (r->coeffs[i]) : );
     942:	c43a                	sw	a4,8(sp)
    for (i = 0; i < KYBER_N; i++) {
     944:	10000813          	li	a6,256
        asm volatile (".insn r 0x0b, 0x004, 0, %[dst], %[src], x0\r\n" : [dst] "=r" (r->coeffs[i]) : [src] "r" (r->coeffs[i]) : );
     948:	0005d683          	lhu	a3,0(a1)
     94c:	0006c68b          	0x6c68b
     950:	44a2                	lw	s1,8(sp)
     952:	00179713          	slli	a4,a5,0x1
    for (i = 0; i < KYBER_N; i++) {
     956:	0785                	addi	a5,a5,1
        asm volatile (".insn r 0x0b, 0x004, 0, %[dst], %[src], x0\r\n" : [dst] "=r" (r->coeffs[i]) : [src] "r" (r->coeffs[i]) : );
     958:	9726                	add	a4,a4,s1
     95a:	bad71023          	sh	a3,-1120(a4) # ffffbba0 <_sp+0xfff1b3f0>
    for (i = 0; i < KYBER_N; i++) {
     95e:	0589                	addi	a1,a1,2
     960:	ff0794e3          	bne	a5,a6,948 <main+0x732>
     964:	76ed                	lui	a3,0xffffb
     966:	6795                	lui	a5,0x5
     968:	34068693          	addi	a3,a3,832 # ffffb340 <_sp+0xfff1ab90>
     96c:	ce078793          	addi	a5,a5,-800 # 4ce0 <__sfvwrite_r+0x1d4>
     970:	97b6                	add	a5,a5,a3
     972:	0818                	addi	a4,sp,16
     974:	00e786b3          	add	a3,a5,a4
        asm volatile (".insn r 0x0b, 0x006, 28, %[dst], %[src], %[src2]\r\n" : [dst] "=r" (msg[i])  : [src] "r" (a->coeffs[8 * i + 0]), [src2] "r" (msg[i]) :   );
     978:	4581                	li	a1,0
     97a:	00065703          	lhu	a4,0(a2)
     97e:	38b7670b          	0x38b7670b
        asm volatile (".insn r 0x0b, 0x006, 29, %[dst], %[src], %[src2]\r\n" : [dst] "=r" (msg[i])  : [src] "r" (a->coeffs[8 * i + 1]), [src2] "r" (msg[i]) :   );
     982:	00265783          	lhu	a5,2(a2)
     986:	3ae7e78b          	0x3ae7e78b
        asm volatile (".insn r 0x0b, 0x006, 30, %[dst], %[src], %[src2]\r\n" : [dst] "=r" (msg[i])  : [src] "r" (a->coeffs[8 * i + 2]), [src2] "r" (msg[i]) :   );
     98a:	00465703          	lhu	a4,4(a2)
     98e:	3cf7670b          	0x3cf7670b
        asm volatile (".insn r 0x0b, 0x006, 31, %[dst], %[src], %[src2]\r\n" : [dst] "=r" (msg[i])  : [src] "r" (a->coeffs[8 * i + 3]), [src2] "r" (msg[i]) :   );
     992:	00665783          	lhu	a5,6(a2)
     996:	3ee7e78b          	0x3ee7e78b
        asm volatile (".insn r 0x0b, 0x006, 32, %[dst], %[src], %[src2]\r\n" : [dst] "=r" (msg[i])  : [src] "r" (a->coeffs[8 * i + 4]), [src2] "r" (msg[i]) :   );
     99a:	00865703          	lhu	a4,8(a2)
     99e:	40f7670b          	0x40f7670b
        asm volatile (".insn r 0x0b, 0x006, 33, %[dst], %[src], %[src2]\r\n" : [dst] "=r" (msg[i])  : [src] "r" (a->coeffs[8 * i + 5]), [src2] "r" (msg[i]) :   );
     9a2:	00a65783          	lhu	a5,10(a2)
     9a6:	42e7e78b          	0x42e7e78b
        asm volatile (".insn r 0x0b, 0x006, 34, %[dst], %[src], %[src2]\r\n" : [dst] "=r" (msg[i])  : [src] "r" (a->coeffs[8 * i + 6]), [src2] "r" (msg[i]) :   );
     9aa:	00c65703          	lhu	a4,12(a2)
     9ae:	44f7670b          	0x44f7670b
        asm volatile (".insn r 0x0b, 0x006, 35, %[dst], %[src], %[src2]\r\n" : [dst] "=r" (msg[i])  : [src] "r" (a->coeffs[8 * i + 7]), [src2] "r" (msg[i]) :   );
     9b2:	00e65783          	lhu	a5,14(a2)
     9b6:	46e7e78b          	0x46e7e78b
     9ba:	00f68023          	sb	a5,0(a3)
    for (i = 0; i < KYBER_N / 8; i++) {
     9be:	0641                	addi	a2,a2,16
     9c0:	0685                	addi	a3,a3,1
     9c2:	fac51ce3          	bne	a0,a2,97a <main+0x764>
    const uint8_t *pk = sk + KYBER_INDCPA_SECRETKEYBYTES;

    PQCLEAN_KYBER1024_CLEAN_indcpa_dec(buf, ct, sk);

    /* Multitarget countermeasure for coins + contributory KEM */
    memcpy(buf + KYBER_SYMBYTES, sk + KYBER_SECRETKEYBYTES - 2 * KYBER_SYMBYTES, KYBER_SYMBYTES);
     9c6:	6595                	lui	a1,0x5
     9c8:	7775                	lui	a4,0xffffd
     9ca:	3a070993          	addi	s3,a4,928 # ffffd3a0 <_sp+0xfff1cbf0>
     9ce:	ce058793          	addi	a5,a1,-800 # 4ce0 <__sfvwrite_r+0x1d4>
     9d2:	97ce                	add	a5,a5,s3
     9d4:	0814                	addi	a3,sp,16
     9d6:	00d789b3          	add	s3,a5,a3
     9da:	74ed                	lui	s1,0xffffb
     9dc:	6785                	lui	a5,0x1
     9de:	8a2e                	mv	s4,a1
     9e0:	34048493          	addi	s1,s1,832 # ffffb340 <_sp+0xfff1ab90>
     9e4:	c2078793          	addi	a5,a5,-992 # c20 <main+0xa0a>
     9e8:	ce058593          	addi	a1,a1,-800
     9ec:	97ce                	add	a5,a5,s3
     9ee:	0808                	addi	a0,sp,16
     9f0:	95a6                	add	a1,a1,s1
     9f2:	00a584b3          	add	s1,a1,a0
     9f6:	4390                	lw	a2,0(a5)
     9f8:	0047ae83          	lw	t4,4(a5)
     9fc:	0087ae03          	lw	t3,8(a5)
     a00:	00c7a303          	lw	t1,12(a5)
     a04:	0107a883          	lw	a7,16(a5)
     a08:	0147a803          	lw	a6,20(a5)
     a0c:	4f94                	lw	a3,24(a5)
    //hash_g(kr, buf, 2 * KYBER_SYMBYTES);
    sha3_512(kr, buf, 2 * KYBER_SYMBYTES);
     a0e:	ba070713          	addi	a4,a4,-1120
    memcpy(buf + KYBER_SYMBYTES, sk + KYBER_SECRETKEYBYTES - 2 * KYBER_SYMBYTES, KYBER_SYMBYTES);
     a12:	4fdc                	lw	a5,28(a5)
    sha3_512(kr, buf, 2 * KYBER_SYMBYTES);
     a14:	ce0a0593          	addi	a1,s4,-800
     a18:	95ba                	add	a1,a1,a4
     a1a:	00a58933          	add	s2,a1,a0
    memcpy(buf + KYBER_SYMBYTES, sk + KYBER_SECRETKEYBYTES - 2 * KYBER_SYMBYTES, KYBER_SYMBYTES);
     a1e:	d090                	sw	a2,32(s1)
    sha3_512(kr, buf, 2 * KYBER_SYMBYTES);
     a20:	85a6                	mv	a1,s1
    memcpy(buf + KYBER_SYMBYTES, sk + KYBER_SECRETKEYBYTES - 2 * KYBER_SYMBYTES, KYBER_SYMBYTES);
     a22:	03d4a223          	sw	t4,36(s1)
     a26:	03c4a423          	sw	t3,40(s1)
     a2a:	0264a623          	sw	t1,44(s1)
     a2e:	0314a823          	sw	a7,48(s1)
     a32:	0304aa23          	sw	a6,52(s1)
     a36:	dc94                	sw	a3,56(s1)
     a38:	dcdc                	sw	a5,60(s1)
    sha3_512(kr, buf, 2 * KYBER_SYMBYTES);
     a3a:	04000613          	li	a2,64
     a3e:	854a                	mv	a0,s2
     a40:	221010ef          	jal	ra,2460 <sha3_512>
    /* coins are in kr+KYBER_SYMBYTES */
    PQCLEAN_KYBER1024_CLEAN_indcpa_enc(cmp, buf, pk, kr + KYBER_SYMBYTES);
     a44:	77f9                	lui	a5,0xffffe
     a46:	ce0a0713          	addi	a4,s4,-800
     a4a:	973e                	add	a4,a4,a5
     a4c:	081c                	addi	a5,sp,16
     a4e:	97ba                	add	a5,a5,a4
     a50:	85a6                	mv	a1,s1
     a52:	02090693          	addi	a3,s2,32
     a56:	853e                	mv	a0,a5
     a58:	60098613          	addi	a2,s3,1536
     a5c:	c43e                	sw	a5,8(sp)
     a5e:	77d010ef          	jal	ra,29da <PQCLEAN_KYBER1024_CLEAN_indcpa_enc>
     a62:	77f1                	lui	a5,0xffffc
     a64:	3a078793          	addi	a5,a5,928 # ffffc3a0 <_sp+0xfff1bbf0>
     a68:	ce0a0713          	addi	a4,s4,-800
     a6c:	973e                	add	a4,a4,a5
     a6e:	46a2                	lw	a3,8(sp)
     a70:	081c                	addi	a5,sp,16
     a72:	97ba                	add	a5,a5,a4
     a74:	62078593          	addi	a1,a5,1568
*
* Returns 0 if the byte arrays are equal, 1 otherwise
**************************************************/
int PQCLEAN_KYBER1024_CLEAN_verify(const uint8_t *a, const uint8_t *b, size_t len) {
    size_t i;
    uint8_t r = 0;
     a78:	4481                	li	s1,0

    for (i = 0; i < len; i++) {
        r |= a[i] ^ b[i];
     a7a:	0007c703          	lbu	a4,0(a5)
     a7e:	0006c603          	lbu	a2,0(a3)
    for (i = 0; i < len; i++) {
     a82:	0785                	addi	a5,a5,1
     a84:	0685                	addi	a3,a3,1
        r |= a[i] ^ b[i];
     a86:	8f31                	xor	a4,a4,a2
     a88:	8cd9                	or	s1,s1,a4
    for (i = 0; i < len; i++) {
     a8a:	fef598e3          	bne	a1,a5,a7a <main+0x864>
void shake128_inc_ctx_release(shake128incctx *state) {
    free(state->ctx);
}

void shake256_inc_init(shake256incctx *state) {
    state->ctx = malloc(PQC_SHAKEINCCTX_BYTES);
     a8e:	0d000513          	li	a0,208
     a92:	3b1030ef          	jal	ra,4642 <malloc>
    }

    return (-(uint64_t)r) >> 63;
     a96:	009034b3          	snez	s1,s1
     a9a:	892a                	mv	s2,a0
    if (state->ctx == NULL) {
     a9c:	20050d63          	beqz	a0,cb6 <main+0xaa0>
        s_inc[i] = 0;
     aa0:	0c800613          	li	a2,200
     aa4:	4581                	li	a1,0
     aa6:	56b020ef          	jal	ra,3810 <memset>
    }
    keccak_inc_init(state->ctx);
}

void shake256_inc_absorb(shake256incctx *state, const uint8_t *input, size_t inlen) {
    keccak_inc_absorb(state->ctx, SHAKE256_RATE, input, inlen);
     aaa:	6995                	lui	s3,0x5
     aac:	77f5                	lui	a5,0xffffd
     aae:	3a078793          	addi	a5,a5,928 # ffffd3a0 <_sp+0xfff1cbf0>
     ab2:	ce098713          	addi	a4,s3,-800 # 4ce0 <__sfvwrite_r+0x1d4>
     ab6:	973e                	add	a4,a4,a5
     ab8:	6585                	lui	a1,0x1
     aba:	081c                	addi	a5,sp,16
     abc:	97ba                	add	a5,a5,a4
     abe:	c4058593          	addi	a1,a1,-960 # c40 <main+0xa2a>
     ac2:	95be                	add	a1,a1,a5
    s_inc[25] = 0;
     ac4:	4801                	li	a6,0
     ac6:	4781                	li	a5,0
    keccak_inc_absorb(state->ctx, SHAKE256_RATE, input, inlen);
     ac8:	02000613          	li	a2,32
     acc:	854a                	mv	a0,s2
    s_inc[25] = 0;
     ace:	0cf92423          	sw	a5,200(s2)
     ad2:	0d092623          	sw	a6,204(s2)
    keccak_inc_absorb(state->ctx, SHAKE256_RATE, input, inlen);
     ad6:	209010ef          	jal	ra,24de <keccak_inc_absorb.constprop.0>
     ada:	75f1                	lui	a1,0xffffc
     adc:	3a058593          	addi	a1,a1,928 # ffffc3a0 <_sp+0xfff1bbf0>
     ae0:	ce098793          	addi	a5,s3,-800
     ae4:	97ae                	add	a5,a5,a1
     ae6:	0818                	addi	a4,sp,16
     ae8:	00e785b3          	add	a1,a5,a4
     aec:	62000613          	li	a2,1568
     af0:	854a                	mv	a0,s2
     af2:	1ed010ef          	jal	ra,24de <keccak_inc_absorb.constprop.0>
    s_inc[s_inc[25] >> 3] ^= (uint64_t)p << (8 * (s_inc[25] & 0x07));
     af6:	0c892783          	lw	a5,200(s2)
     afa:	0077f713          	andi	a4,a5,7
     afe:	070e                	slli	a4,a4,0x3
     b00:	9be1                	andi	a5,a5,-8
     b02:	fe070693          	addi	a3,a4,-32
     b06:	97ca                	add	a5,a5,s2
     b08:	1806cc63          	bltz	a3,ca0 <main+0xa8a>
     b0c:	467d                	li	a2,31
     b0e:	00d61633          	sll	a2,a2,a3
     b12:	4581                	li	a1,0
     b14:	4394                	lw	a3,0(a5)
     b16:	43d8                	lw	a4,4(a5)
    h += i;
     b18:	7a71                	lui	s4,0xffffc
    s_inc[s_inc[25] >> 3] ^= (uint64_t)p << (8 * (s_inc[25] & 0x07));
     b1a:	8ead                	xor	a3,a3,a1
     b1c:	8f31                	xor	a4,a4,a2
     b1e:	c3d8                	sw	a4,4(a5)
     b20:	c394                	sw	a3,0(a5)
    s_inc[(r - 1) >> 3] ^= (uint64_t)128 << (8 * ((r - 1) & 0x07));
     b22:	08492783          	lw	a5,132(s2)
     b26:	80000737          	lui	a4,0x80000
    h += i;
     b2a:	ba0a0a13          	addi	s4,s4,-1120 # ffffbba0 <_sp+0xfff1b3f0>
    s_inc[(r - 1) >> 3] ^= (uint64_t)128 << (8 * ((r - 1) & 0x07));
     b2e:	8fb9                	xor	a5,a5,a4
     b30:	08f92223          	sw	a5,132(s2)
    s_inc[25] = 0;
     b34:	4781                	li	a5,0
     b36:	0cf92423          	sw	a5,200(s2)
    h += i;
     b3a:	6795                	lui	a5,0x5
     b3c:	ce078793          	addi	a5,a5,-800 # 4ce0 <__sfvwrite_r+0x1d4>
    s_inc[25] = 0;
     b40:	4801                	li	a6,0
    h += i;
     b42:	97d2                	add	a5,a5,s4
     b44:	0818                	addi	a4,sp,16
    s_inc[25] = 0;
     b46:	0d092623          	sw	a6,204(s2)
    outlen -= i;
     b4a:	02000993          	li	s3,32
    h += i;
     b4e:	00e78a33          	add	s4,a5,a4
            h[i] = (uint8_t)(s_inc[i >> 3] >> (8 * (i & 0x07)));
     b52:	4b7d                	li	s6,31
        for (i = 0; i < outlen && i < r; i++) {
     b54:	08800a93          	li	s5,136
        keccak_ip_driver(s_inc, s_inc);
     b58:	85ca                	mv	a1,s2
     b5a:	854a                	mv	a0,s2
     b5c:	5f2010ef          	jal	ra,214e <keccak_ip_driver>
        for (i = 0; i < outlen && i < r; i++) {
     b60:	4781                	li	a5,0
     b62:	a819                	j	b78 <main+0x962>
            h[i] = (uint8_t)(s_inc[i >> 3] >> (8 * (i & 0x07)));
     b64:	4358                	lw	a4,4(a4)
        for (i = 0; i < outlen && i < r; i++) {
     b66:	0785                	addi	a5,a5,1
            h[i] = (uint8_t)(s_inc[i >> 3] >> (8 * (i & 0x07)));
     b68:	00c75733          	srl	a4,a4,a2
     b6c:	00e58023          	sb	a4,0(a1)
        for (i = 0; i < outlen && i < r; i++) {
     b70:	0337ff63          	bgeu	a5,s3,bae <main+0x998>
     b74:	13578463          	beq	a5,s5,c9c <main+0xa86>
            h[i] = (uint8_t)(s_inc[i >> 3] >> (8 * (i & 0x07)));
     b78:	0077f693          	andi	a3,a5,7
     b7c:	068e                	slli	a3,a3,0x3
     b7e:	ff87f713          	andi	a4,a5,-8
     b82:	fe068613          	addi	a2,a3,-32
     b86:	00fa05b3          	add	a1,s4,a5
     b8a:	974a                	add	a4,a4,s2
     b8c:	fc065ce3          	bgez	a2,b64 <main+0x94e>
     b90:	4350                	lw	a2,4(a4)
     b92:	4318                	lw	a4,0(a4)
     b94:	40db0533          	sub	a0,s6,a3
     b98:	0606                	slli	a2,a2,0x1
     b9a:	00a61633          	sll	a2,a2,a0
     b9e:	00d75733          	srl	a4,a4,a3
     ba2:	8f51                	or	a4,a4,a2
     ba4:	00e58023          	sb	a4,0(a1)
        for (i = 0; i < outlen && i < r; i++) {
     ba8:	0785                	addi	a5,a5,1
     baa:	fd37e5e3          	bltu	a5,s3,b74 <main+0x95e>
        s_inc[25] = r - i;
     bae:	40fa8733          	sub	a4,s5,a5
        outlen -= i;
     bb2:	40f989b3          	sub	s3,s3,a5
        s_inc[25] = r - i;
     bb6:	0ce92423          	sw	a4,200(s2)
     bba:	0c092623          	sw	zero,204(s2)
        h += i;
     bbe:	9a3e                	add	s4,s4,a5
    while (outlen > 0) {
     bc0:	f8099ce3          	bnez	s3,b58 <main+0x942>
    }
    memcpy(dest->ctx, src->ctx, PQC_SHAKEINCCTX_BYTES);
}

void shake256_inc_ctx_release(shake256incctx *state) {
    free(state->ctx);
     bc4:	854a                	mv	a0,s2
     bc6:	28b030ef          	jal	ra,4650 <free>
     bca:	6715                	lui	a4,0x5
     bcc:	7971                	lui	s2,0xffffc
     bce:	ba090913          	addi	s2,s2,-1120 # ffffbba0 <_sp+0xfff1b3f0>
     bd2:	ce070793          	addi	a5,a4,-800 # 4ce0 <__sfvwrite_r+0x1d4>
     bd6:	97ca                	add	a5,a5,s2
     bd8:	0814                	addi	a3,sp,16
     bda:	7675                	lui	a2,0xffffd
     bdc:	00d78933          	add	s2,a5,a3
     be0:	ba060613          	addi	a2,a2,-1120 # ffffcba0 <_sp+0xfff1c3f0>
     be4:	ce070793          	addi	a5,a4,-800
*              uint8_t b:        Condition bit; has to be in {0,1}
**************************************************/
void PQCLEAN_KYBER1024_CLEAN_cmov(uint8_t *r, const uint8_t *x, size_t len, uint8_t b) {
    size_t i;

    b = -b;
     be8:	fff48593          	addi	a1,s1,-1
     bec:	97b2                	add	a5,a5,a2
     bee:	0ff5f593          	zext.b	a1,a1
     bf2:	00d78633          	add	a2,a5,a3
     bf6:	02090993          	addi	s3,s2,32
     bfa:	874a                	mv	a4,s2
    for (i = 0; i < len; i++) {
        r[i] ^= b & (r[i] ^ x[i]);
     bfc:	00074683          	lbu	a3,0(a4)
     c00:	00064783          	lbu	a5,0(a2)
    for (i = 0; i < len; i++) {
     c04:	0705                	addi	a4,a4,1
     c06:	0605                	addi	a2,a2,1
        r[i] ^= b & (r[i] ^ x[i]);
     c08:	8fb5                	xor	a5,a5,a3
     c0a:	8fed                	and	a5,a5,a1
     c0c:	8ebd                	xor	a3,a3,a5
     c0e:	fed70fa3          	sb	a3,-1(a4)
    for (i = 0; i < len; i++) {
     c12:	fee995e3          	bne	s3,a4,bfc <main+0x9e6>
    crypto_kem_dec(key_a, sendb, sk_a);
    CSR_READ(CSR_REG_MCYCLE, &cycles_dec);
     c16:	b00025f3          	csrr	a1,mcycle
    printf("Number of clock cycles dec: %d\n", cycles_dec);
     c1a:	00080537          	lui	a0,0x80
     c1e:	13450513          	addi	a0,a0,308 # 80134 <no_exception_handler_msg+0x9f>
     c22:	28b030ef          	jal	ra,46ac <iprintf>
    
    printbytes(key_a, CRYPTO_BYTES);
     c26:	6495                	lui	s1,0x5
     c28:	7571                	lui	a0,0xffffc
     c2a:	ba050513          	addi	a0,a0,-1120 # ffffbba0 <_sp+0xfff1b3f0>
     c2e:	ce048793          	addi	a5,s1,-800 # 4ce0 <__sfvwrite_r+0x1d4>
     c32:	97aa                	add	a5,a5,a0
     c34:	0818                	addi	a4,sp,16
     c36:	00e78533          	add	a0,a5,a4
     c3a:	2c6020ef          	jal	ra,2f00 <printbytes.constprop.0>
    printbytes(key_b, CRYPTO_BYTES);
     c3e:	756d                	lui	a0,0xffffb
     c40:	32050513          	addi	a0,a0,800 # ffffb320 <_sp+0xfff1ab70>
     c44:	ce048793          	addi	a5,s1,-800
     c48:	97aa                	add	a5,a5,a0
     c4a:	0818                	addi	a4,sp,16
     c4c:	00e784b3          	add	s1,a5,a4
     c50:	8526                	mv	a0,s1
     c52:	2ae020ef          	jal	ra,2f00 <printbytes.constprop.0>


    for (j = 0; j < CRYPTO_BYTES; j++) {
     c56:	8526                	mv	a0,s1
     c58:	a029                	j	c62 <main+0xa4c>
     c5a:	0905                	addi	s2,s2,1
     c5c:	0505                	addi	a0,a0,1
     c5e:	05298a63          	beq	s3,s2,cb2 <main+0xa9c>
        if (key_a[j] != key_b[j]) {
     c62:	00094703          	lbu	a4,0(s2)
     c66:	00054783          	lbu	a5,0(a0)
     c6a:	fef708e3          	beq	a4,a5,c5a <main+0xa44>
            printf("ERROR\n");
     c6e:	00080537          	lui	a0,0x80
     c72:	15450513          	addi	a0,a0,340 # 80154 <no_exception_handler_msg+0xbf>
     c76:	489020ef          	jal	ra,38fe <puts>
            return -1;
     c7a:	557d                	li	a0,-1
        }
    }

    //printf("Ends testvectors KEM!\n");
    return 0;
}
     c7c:	6295                	lui	t0,0x5
     c7e:	ce028293          	addi	t0,t0,-800 # 4ce0 <__sfvwrite_r+0x1d4>
     c82:	9116                	add	sp,sp,t0
     c84:	50f2                	lw	ra,60(sp)
     c86:	54e2                	lw	s1,56(sp)
     c88:	5952                	lw	s2,52(sp)
     c8a:	59c2                	lw	s3,48(sp)
     c8c:	5a32                	lw	s4,44(sp)
     c8e:	5aa2                	lw	s5,40(sp)
     c90:	5b12                	lw	s6,36(sp)
     c92:	5b82                	lw	s7,32(sp)
     c94:	4c72                	lw	s8,28(sp)
     c96:	4ce2                	lw	s9,24(sp)
     c98:	6121                	addi	sp,sp,64
     c9a:	8082                	ret
     c9c:	4701                	li	a4,0
     c9e:	bf11                	j	bb2 <main+0x99c>
    s_inc[s_inc[25] >> 3] ^= (uint64_t)p << (8 * (s_inc[25] & 0x07));
     ca0:	45fd                	li	a1,31
     ca2:	40e586b3          	sub	a3,a1,a4
     ca6:	463d                	li	a2,15
     ca8:	00d65633          	srl	a2,a2,a3
     cac:	00e595b3          	sll	a1,a1,a4
     cb0:	b595                	j	b14 <main+0x8fe>
    return 0;
     cb2:	4501                	li	a0,0
     cb4:	b7e1                	j	c7c <main+0xa66>
        exit(111);
     cb6:	06f00513          	li	a0,111
     cba:	d32ff0ef          	jal	ra,1ec <exit>

00000cbe <__no_irq_handler>:
/*	j __no_irq_handler */

.section .text.vecs
/* exception handling */
__no_irq_handler:
	la a0, no_exception_handler_msg
     cbe:	0007f517          	auipc	a0,0x7f
     cc2:	3d750513          	addi	a0,a0,983 # 80095 <no_exception_handler_msg>
	jal ra, puts
     cc6:	439020ef          	jal	ra,38fe <puts>
	j __no_irq_handler
     cca:	ff5ff06f          	j	cbe <__no_irq_handler>

00000cce <sw_irq_handler>:


sw_irq_handler:
	csrr t0, mcause
     cce:	342022f3          	csrr	t0,mcause
	slli t0, t0, 1  /* shift off the high bit */
     cd2:	00129293          	slli	t0,t0,0x1
	srli t0, t0, 1
     cd6:	0012d293          	srli	t0,t0,0x1
	li t1, 2
     cda:	00200313          	li	t1,2
	beq t0, t1, handle_illegal_insn
     cde:	02628c63          	beq	t0,t1,d16 <handle_illegal_insn>
	li t1, 11
     ce2:	00b00313          	li	t1,11
	beq t0, t1, handle_ecall
     ce6:	00628863          	beq	t0,t1,cf6 <handle_ecall>
	li t1, 3
     cea:	00300313          	li	t1,3
	beq t0, t1, handle_ebreak
     cee:	00628c63          	beq	t0,t1,d06 <handle_ebreak>
	j handle_unknown
     cf2:	0340006f          	j	d26 <handle_unknown>

00000cf6 <handle_ecall>:

handle_ecall:
	la a0, ecall_msg
     cf6:	0007f517          	auipc	a0,0x7f
     cfa:	33950513          	addi	a0,a0,825 # 8002f <ecall_msg>
	jal ra, puts
     cfe:	401020ef          	jal	ra,38fe <puts>
	j end_handler
     d02:	0340006f          	j	d36 <end_handler>

00000d06 <handle_ebreak>:

handle_ebreak:
	la a0, ebreak_msg
     d06:	0007f517          	auipc	a0,0x7f
     d0a:	34a50513          	addi	a0,a0,842 # 80050 <ebreak_msg>
	jal ra, puts
     d0e:	3f1020ef          	jal	ra,38fe <puts>
	j end_handler
     d12:	0240006f          	j	d36 <end_handler>

00000d16 <handle_illegal_insn>:

handle_illegal_insn:
	la a0, illegal_insn_msg
     d16:	0007f517          	auipc	a0,0x7f
     d1a:	2ea50513          	addi	a0,a0,746 # 80000 <illegal_insn_msg>
	jal ra, puts
     d1e:	3e1020ef          	jal	ra,38fe <puts>
	j end_handler
     d22:	0140006f          	j	d36 <end_handler>

00000d26 <handle_unknown>:

handle_unknown:
	la a0, unknown_msg
     d26:	0007f517          	auipc	a0,0x7f
     d2a:	34c50513          	addi	a0,a0,844 # 80072 <unknown_msg>
	jal ra, puts
     d2e:	3d1020ef          	jal	ra,38fe <puts>
	j end_handler
     d32:	0040006f          	j	d36 <end_handler>

00000d36 <end_handler>:

end_handler:
	csrr a0, mepc
     d36:	34102573          	csrr	a0,mepc
	addi a0, a0, 4
     d3a:	00450513          	addi	a0,a0,4
	csrw mepc, a0
     d3e:	34151073          	csrw	mepc,a0
	mret
     d42:	30200073          	mret

00000d46 <verification_irq_handler>:
/* this interrupt can be generated for verification purposes, random or when the PC is equal to a given value*/
verification_irq_handler:
	mret
     d46:	30200073          	mret

00000d4a <handler_irq_uart>:
size_t uart_sink(void *uart, const char *data, size_t len) {
  return uart_write((const uart_t *)uart, (const uint8_t *)data, len);
}

__attribute__((weak, optimize("O0"))) void handler_irq_uart(uint32_t id)
{
     d4a:	1101                	addi	sp,sp,-32
     d4c:	ce22                	sw	s0,28(sp)
     d4e:	1000                	addi	s0,sp,32
     d50:	fea42623          	sw	a0,-20(s0)
 // Replace this function with a non-weak implementation
     d54:	0001                	nop
     d56:	4472                	lw	s0,28(sp)
     d58:	6105                	addi	sp,sp,32
     d5a:	8082                	ret

00000d5c <handler_irq_dummy>:
/*                            LOCAL FUNCTIONS                               */
/**                                                                        **/
/****************************************************************************/

__attribute__((optimize("O0"))) static void handler_irq_dummy( uint32_t dummy )
{
     d5c:	1101                	addi	sp,sp,-32
     d5e:	ce22                	sw	s0,28(sp)
     d60:	1000                	addi	s0,sp,32
     d62:	fea42623          	sw	a0,-20(s0)
}
     d66:	0001                	nop
     d68:	4472                	lw	s0,28(sp)
     d6a:	6105                	addi	sp,sp,32
     d6c:	8082                	ret

00000d6e <gpio_handler_irq_dummy>:
/*                            LOCAL FUNCTIONS                               */
/**                                                                        **/
/****************************************************************************/

__attribute__((optimize("O0"))) static void gpio_handler_irq_dummy( uint32_t dummy )
{
     d6e:	1101                	addi	sp,sp,-32
     d70:	ce22                	sw	s0,28(sp)
     d72:	1000                	addi	s0,sp,32
     d74:	fea42623          	sw	a0,-20(s0)
  return;
     d78:	0001                	nop
}
     d7a:	4472                	lw	s0,28(sp)
     d7c:	6105                	addi	sp,sp,32
     d7e:	8082                	ret

00000d80 <handler_irq_i2c>:
     d80:	1101                	addi	sp,sp,-32
     d82:	ce22                	sw	s0,28(sp)
     d84:	1000                	addi	s0,sp,32
     d86:	fea42623          	sw	a0,-20(s0)
     d8a:	fec42503          	lw	a0,-20(s0)
     d8e:	4472                	lw	s0,28(sp)
     d90:	6105                	addi	sp,sp,32
     d92:	bf65                	j	d4a <handler_irq_uart>

00000d94 <fic_irq_timer_1>:
    fast_intr_ctrl_peri->FAST_INTR_CLEAR = reg;
    return kFastIntrCtrlOk_e;
}

__attribute__((weak, optimize("O0"))) void fic_irq_timer_1(void)
{
     d94:	1141                	addi	sp,sp,-16
     d96:	c622                	sw	s0,12(sp)
     d98:	0800                	addi	s0,sp,16
    /* Users should implement their non-weak version */
}
     d9a:	0001                	nop
     d9c:	4432                	lw	s0,12(sp)
     d9e:	0141                	addi	sp,sp,16
     da0:	8082                	ret

00000da2 <fic_irq_timer_2>:
     da2:	1141                	addi	sp,sp,-16
     da4:	c622                	sw	s0,12(sp)
     da6:	0800                	addi	s0,sp,16
     da8:	4432                	lw	s0,12(sp)
     daa:	0141                	addi	sp,sp,16
     dac:	b7e5                	j	d94 <fic_irq_timer_1>

00000dae <fic_irq_timer_3>:
     dae:	1141                	addi	sp,sp,-16
     db0:	c622                	sw	s0,12(sp)
     db2:	0800                	addi	s0,sp,16
     db4:	4432                	lw	s0,12(sp)
     db6:	0141                	addi	sp,sp,16
     db8:	bff1                	j	d94 <fic_irq_timer_1>

00000dba <fic_irq_spi>:
     dba:	1141                	addi	sp,sp,-16
     dbc:	c622                	sw	s0,12(sp)
     dbe:	0800                	addi	s0,sp,16
     dc0:	4432                	lw	s0,12(sp)
     dc2:	0141                	addi	sp,sp,16
     dc4:	bfc1                	j	d94 <fic_irq_timer_1>

00000dc6 <fic_irq_spi_flash>:
     dc6:	1141                	addi	sp,sp,-16
     dc8:	c622                	sw	s0,12(sp)
     dca:	0800                	addi	s0,sp,16
     dcc:	4432                	lw	s0,12(sp)
     dce:	0141                	addi	sp,sp,16
     dd0:	b7d1                	j	d94 <fic_irq_timer_1>

00000dd2 <fic_irq_gpio_0>:
     dd2:	1141                	addi	sp,sp,-16
     dd4:	c622                	sw	s0,12(sp)
     dd6:	0800                	addi	s0,sp,16
     dd8:	4432                	lw	s0,12(sp)
     dda:	0141                	addi	sp,sp,16
     ddc:	bf65                	j	d94 <fic_irq_timer_1>

00000dde <fic_irq_gpio_1>:
     dde:	1141                	addi	sp,sp,-16
     de0:	c622                	sw	s0,12(sp)
     de2:	0800                	addi	s0,sp,16
     de4:	4432                	lw	s0,12(sp)
     de6:	0141                	addi	sp,sp,16
     de8:	b775                	j	d94 <fic_irq_timer_1>

00000dea <fic_irq_gpio_2>:
     dea:	1141                	addi	sp,sp,-16
     dec:	c622                	sw	s0,12(sp)
     dee:	0800                	addi	s0,sp,16
     df0:	4432                	lw	s0,12(sp)
     df2:	0141                	addi	sp,sp,16
     df4:	b745                	j	d94 <fic_irq_timer_1>

00000df6 <fic_irq_gpio_3>:
     df6:	1141                	addi	sp,sp,-16
     df8:	c622                	sw	s0,12(sp)
     dfa:	0800                	addi	s0,sp,16
     dfc:	4432                	lw	s0,12(sp)
     dfe:	0141                	addi	sp,sp,16
     e00:	bf51                	j	d94 <fic_irq_timer_1>

00000e02 <fic_irq_gpio_4>:
     e02:	1141                	addi	sp,sp,-16
     e04:	c622                	sw	s0,12(sp)
     e06:	0800                	addi	s0,sp,16
     e08:	4432                	lw	s0,12(sp)
     e0a:	0141                	addi	sp,sp,16
     e0c:	b761                	j	d94 <fic_irq_timer_1>

00000e0e <fic_irq_gpio_5>:
     e0e:	1141                	addi	sp,sp,-16
     e10:	c622                	sw	s0,12(sp)
     e12:	0800                	addi	s0,sp,16
     e14:	4432                	lw	s0,12(sp)
     e16:	0141                	addi	sp,sp,16
     e18:	bfb5                	j	d94 <fic_irq_timer_1>

00000e1a <fic_irq_gpio_6>:
     e1a:	1141                	addi	sp,sp,-16
     e1c:	c622                	sw	s0,12(sp)
     e1e:	0800                	addi	s0,sp,16
     e20:	4432                	lw	s0,12(sp)
     e22:	0141                	addi	sp,sp,16
     e24:	bf85                	j	d94 <fic_irq_timer_1>

00000e26 <fic_irq_gpio_7>:
     e26:	1141                	addi	sp,sp,-16
     e28:	c622                	sw	s0,12(sp)
     e2a:	0800                	addi	s0,sp,16
     e2c:	4432                	lw	s0,12(sp)
     e2e:	0141                	addi	sp,sp,16
     e30:	b795                	j	d94 <fic_irq_timer_1>

00000e32 <handler_irq_spi>:
     e32:	1101                	addi	sp,sp,-32
     e34:	ce22                	sw	s0,28(sp)
     e36:	1000                	addi	s0,sp,32
     e38:	fea42623          	sw	a0,-20(s0)
     e3c:	fec42503          	lw	a0,-20(s0)
     e40:	4472                	lw	s0,28(sp)
     e42:	6105                	addi	sp,sp,32
     e44:	b719                	j	d4a <handler_irq_uart>

00000e46 <handler_irq_gpio>:
    gpio_handlers[ id - GPIO_INTR_START ]();
     e46:	4781                	li	a5,0
     e48:	8782                	jr	a5

00000e4a <dma_intr_handler_trans_done>:
    return (dma_cb.peri->STATUS & (1U << DMA_STATUS_READY_BIT));
}

__attribute__((weak, optimize("O3"))) void dma_intr_handler_trans_done()
{
}
     e4a:	8082                	ret

00000e4c <handler_irq_dma>:
}
     e4c:	8082                	ret

00000e4e <init_athos>:
    (&rv_plic_peri->LE0)[i] = 0;
     e4e:	300007b7          	lui	a5,0x30000
     e52:	0007a423          	sw	zero,8(a5) # 30000008 <_sp+0x2ff1f858>
  for(uint8_t i=0; i<RV_PLIC_PARAM_NUM_SRC; i++)
     e56:	300006b7          	lui	a3,0x30000
    (&rv_plic_peri->LE0)[i] = 0;
     e5a:	0007a623          	sw	zero,12(a5)
  for(uint8_t i=0; i<RV_PLIC_PARAM_NUM_SRC; i++)
     e5e:	11068713          	addi	a4,a3,272 # 30000110 <_sp+0x2ff1f960>
    (&rv_plic_peri->LE0)[i] = 0;
     e62:	07c1                	addi	a5,a5,16
    (&rv_plic_peri->PRIO0)[i] = 0;
     e64:	0007a023          	sw	zero,0(a5)
  for(uint8_t i=0; i<RV_PLIC_PARAM_NUM_SRC; i++)
     e68:	0791                	addi	a5,a5,4
     e6a:	fee79de3          	bne	a5,a4,e64 <init_athos+0x16>
    (&rv_plic_peri->IE00)[i] = 0;
     e6e:	2006a023          	sw	zero,512(a3)
     e72:	2006a223          	sw	zero,516(a3)
  rv_plic_peri->THRESHOLD0 = 0;
     e76:	2006a423          	sw	zero,520(a3)
  if(rv_plic_peri->THRESHOLD0 != 0)
     e7a:	2086a783          	lw	a5,520(a3)
     e7e:	e791                	bnez	a5,e8a <init_athos+0x3c>
  rv_plic_peri->MSIP0 = 0;
     e80:	2006a823          	sw	zero,528(a3)
  if(rv_plic_peri->MSIP0 != 0)
     e84:	2106a783          	lw	a5,528(a3)
     e88:	c391                	beqz	a5,e8c <init_athos+0x3e>
     e8a:	8082                	ret
  handlers[NULL_INTR] = &handler_irq_dummy;
     e8c:	00080eb7          	lui	t4,0x80
     e90:	6f05                	lui	t5,0x1

// Interrupt controller variables
plic_result_t plic_res;

void init_athos()
{
     e92:	1141                	addi	sp,sp,-16
     e94:	5c8e8e93          	addi	t4,t4,1480 # 805c8 <handlers>
     e98:	d5cf0f13          	addi	t5,t5,-676 # d5c <handler_irq_dummy>
      handlers[i] = &handler_irq_i2c;
     e9c:	6885                	lui	a7,0x1
      handlers[i] = &handler_irq_gpio;
     e9e:	6505                	lui	a0,0x1
      handlers[i] = &handler_irq_uart;
     ea0:	6305                	lui	t1,0x1
     ea2:	c626                	sw	s1,12(sp)
     ea4:	c44a                	sw	s2,8(sp)
     ea6:	c24e                	sw	s3,4(sp)
  handlers[NULL_INTR] = &handler_irq_dummy;
     ea8:	01eea023          	sw	t5,0(t4)
  for( uint8_t i = NULL_INTR +1; i < QTY_INTR; i++ )
     eac:	004e8713          	addi	a4,t4,4
  handlers[NULL_INTR] = &handler_irq_dummy;
     eb0:	4785                	li	a5,1
     eb2:	4481                	li	s1,0
     eb4:	4981                	li	s3,0
     eb6:	4901                	li	s2,0
    if ( i <= UART_ID_END)
     eb8:	4621                	li	a2,8
    else if ( i <= GPIO_ID_END)
     eba:	02000593          	li	a1,32
    else if ( i <= I2C_ID_END)
     ebe:	03000813          	li	a6,48
    else if ( i == SPI_ID)
     ec2:	03100e13          	li	t3,49
    else if ( i == I2S_ID)
     ec6:	03200f93          	li	t6,50
    else if ( i == DMA_ID)
     eca:	03300293          	li	t0,51
  for( uint8_t i = NULL_INTR +1; i < QTY_INTR; i++ )
     ece:	03f00393          	li	t2,63
      handlers[i] = &handler_irq_i2c;
     ed2:	d8088893          	addi	a7,a7,-640 # d80 <handler_irq_i2c>
      handlers[i] = &handler_irq_gpio;
     ed6:	e4650513          	addi	a0,a0,-442 # e46 <handler_irq_gpio>
      handlers[i] = &handler_irq_uart;
     eda:	d4a30313          	addi	t1,t1,-694 # d4a <handler_irq_uart>
     ede:	a021                	j	ee6 <init_athos+0x98>
      handlers[i] = &handler_irq_gpio;
     ee0:	c308                	sw	a0,0(a4)
     ee2:	0785                	addi	a5,a5,1
     ee4:	0711                	addi	a4,a4,4
    if ( i <= UART_ID_END)
     ee6:	0ff7f693          	zext.b	a3,a5
     eea:	00f67963          	bgeu	a2,a5,efc <init_athos+0xae>
    else if ( i <= GPIO_ID_END)
     eee:	fed5f9e3          	bgeu	a1,a3,ee0 <init_athos+0x92>
    else if ( i <= I2C_ID_END)
     ef2:	00d86863          	bltu	a6,a3,f02 <init_athos+0xb4>
      handlers[i] = &handler_irq_i2c;
     ef6:	01172023          	sw	a7,0(a4)
     efa:	b7e5                	j	ee2 <init_athos+0x94>
      handlers[i] = &handler_irq_uart;
     efc:	00672023          	sw	t1,0(a4)
     f00:	b7cd                	j	ee2 <init_athos+0x94>
    else if ( i == SPI_ID)
     f02:	0dc68663          	beq	a3,t3,fce <init_athos+0x180>
    else if ( i == I2S_ID)
     f06:	0df68663          	beq	a3,t6,fd2 <init_athos+0x184>
    else if ( i == DMA_ID)
     f0a:	0c568663          	beq	a3,t0,fd6 <init_athos+0x188>
      handlers[i] = &handler_irq_dummy;
     f0e:	01e72023          	sw	t5,0(a4)
  for( uint8_t i = NULL_INTR +1; i < QTY_INTR; i++ )
     f12:	fc7698e3          	bne	a3,t2,ee2 <init_athos+0x94>
     f16:	c491                	beqz	s1,f22 <init_athos+0xd4>
     f18:	6785                	lui	a5,0x1
     f1a:	e4c78793          	addi	a5,a5,-436 # e4c <handler_irq_dma>
     f1e:	0cfea623          	sw	a5,204(t4)
     f22:	00098663          	beqz	s3,f2e <init_athos+0xe0>
     f26:	00000793          	li	a5,0
     f2a:	0cfea423          	sw	a5,200(t4)
     f2e:	00090763          	beqz	s2,f3c <init_athos+0xee>
     f32:	6785                	lui	a5,0x1
     f34:	e3278793          	addi	a5,a5,-462 # e32 <handler_irq_spi>
     f38:	0cfea223          	sw	a5,196(t4)
  (&rv_plic_peri->PRIO0)[irq] = priority;
     f3c:	300007b7          	lui	a5,0x30000
     f40:	0e078713          	addi	a4,a5,224 # 300000e0 <_sp+0x2ff1f930>
     f44:	4685                	li	a3,1
     f46:	c314                	sw	a3,0(a4)
  (&rv_plic_peri->IE00)[offset] = bitfield_write((&rv_plic_peri->IE00)[offset],
     f48:	20478793          	addi	a5,a5,516
     f4c:	4398                	lw	a4,0(a5)
inline uint32_t bitfield_write(uint32_t bitfield,
                                       uint32_t mask, 
                                       uint32_t index,
                                       uint32_t value) 
{
  bitfield &= ~(mask << index);
     f4e:	fff006b7          	lui	a3,0xfff00
     f52:	16fd                	addi	a3,a3,-1
     f54:	8f75                	and	a4,a4,a3
  bitfield |= (value & mask) << index;
     f56:	001006b7          	lui	a3,0x100
     f5a:	8f55                	or	a4,a4,a3
     f5c:	c398                	sw	a4,0(a5)
  // Enable the interrupt in reg 0 
  plic_res = plic_irq_set_enabled(EXT_INTR_0, kPlicToggleEnabled);

  // Enable interrupt on processor side
  // Enable global interrupt for machine-level interrupts
  CSR_SET_BITS(CSR_REG_MSTATUS, 0x8);
     f5e:	4621                	li	a2,8
     f60:	30062073          	csrs	mstatus,a2
  // Set mie.MEIE bit to one to enable machine-level external interrupts
  const uint32_t mask = 1 << 11;//IRQ_EXT_ENABLE_OFFSET;
  CSR_SET_BITS(CSR_REG_MIE, mask);
     f64:	6705                	lui	a4,0x1
     f66:	80070793          	addi	a5,a4,-2048 # 800 <main+0x5ea>
     f6a:	3047a073          	csrs	mie,a5
    dma_cb.peri = dma_peri;
     f6e:	000806b7          	lui	a3,0x80
     f72:	200607b7          	lui	a5,0x20060
     f76:	5bc68693          	addi	a3,a3,1468 # 805bc <dma_cb>
     f7a:	c69c                	sw	a5,8(a3)
    dma_cb.trans = NULL;
     f7c:	0006a023          	sw	zero,0(a3)
    dma_cb.peri->SRC_PTR       = 0;
     f80:	0007a023          	sw	zero,0(a5) # 20060000 <_sp+0x1ff7f850>
    dma_cb.peri->DST_PTR       = 0;
     f84:	0007a223          	sw	zero,4(a5)
    dma_cb.peri->SIZE          = 0;
     f88:	0007a623          	sw	zero,12(a5)
    dma_cb.peri->PTR_INC       = 0;
     f8c:	0007aa23          	sw	zero,20(a5)
    dma_cb.peri->SLOT          = 0;
     f90:	0007ac23          	sw	zero,24(a5)
    dma_cb.peri->DATA_TYPE     = 0;
     f94:	0007ae23          	sw	zero,28(a5)
    dma_cb.peri->MODE          = 0;
     f98:	0207a023          	sw	zero,32(a5)
    dma_cb.peri->WINDOW_SIZE   = 0;
     f9c:	0207a223          	sw	zero,36(a5)
    dma_cb.peri->INTERRUPT_EN  = 0;
     fa0:	0207a623          	sw	zero,44(a5)
    CSR_CLEAR_BITS(CSR_REG_MIE, DMA_CSR_REG_MIE_MASK );
     fa4:	000817b7          	lui	a5,0x81
     fa8:	80078793          	addi	a5,a5,-2048 # 80800 <__BSS_END__+0x5c>
     fac:	3047b073          	csrc	mie,a5
    CSR_SET_BITS(CSR_REG_MSTATUS, 0x8 );
     fb0:	30062073          	csrs	mstatus,a2
    CSR_SET_BITS(CSR_REG_MIE, DMA_CSR_REG_MIE_MASK );
     fb4:	3047a073          	csrs	mie,a5


  dma_init(NULL);

  //Making the TRNG starts
  *ctrl_reg = (1 << ATHOS_IP_CTRL_CTRL_C3_BIT) | (4 << ATHOS_IP_CTRL_CTRL_OPERATION_OFFSET);
     fb8:	200807b7          	lui	a5,0x20080
     fbc:	0721                	addi	a4,a4,8
     fbe:	c398                	sw	a4,0(a5)
  *ctrl_reg = (0 << ATHOS_IP_CTRL_CTRL_C3_BIT) | (0 << ATHOS_IP_CTRL_CTRL_OPERATION_OFFSET);
     fc0:	0007a023          	sw	zero,0(a5) # 20080000 <_sp+0x1ff9f850>




     fc4:	44b2                	lw	s1,12(sp)
     fc6:	4922                	lw	s2,8(sp)
     fc8:	4992                	lw	s3,4(sp)
     fca:	0141                	addi	sp,sp,16
     fcc:	8082                	ret
     fce:	4905                	li	s2,1
     fd0:	bf09                	j	ee2 <init_athos+0x94>
     fd2:	4985                	li	s3,1
     fd4:	b739                	j	ee2 <init_athos+0x94>
     fd6:	4485                	li	s1,1
  for( uint8_t i = NULL_INTR +1; i < QTY_INTR; i++ )
     fd8:	b729                	j	ee2 <init_athos+0x94>

00000fda <PQCLEAN_KYBER1024_CLEAN_polyvec_tobytes>:
    for (i = 0; i < KYBER_K; i++) {
     fda:	6785                	lui	a5,0x1
     fdc:	a0078793          	addi	a5,a5,-1536 # a00 <main+0x7ea>
     fe0:	20058813          	addi	a6,a1,512
     fe4:	95be                	add	a1,a1,a5
    for (i = 0; i < KYBER_N / 2; i++) {
     fe6:	e0080793          	addi	a5,a6,-512
void PQCLEAN_KYBER1024_CLEAN_polyvec_tobytes(uint8_t r[KYBER_POLYVECBYTES], const polyvec *a) {
     fea:	872a                	mv	a4,a0
        asm volatile (".insn r 0x0b, 0x006, 22, %[dst], %[src], %[src2]\r\n" : [dst] "=r" (r[3 * i + 0])  : [src] "r" (a->coeffs[2 * i]), [src2] "r" (a->coeffs[2 * i + 1]) :  );
     fec:	0007d683          	lhu	a3,0(a5)
     ff0:	0027d603          	lhu	a2,2(a5)
     ff4:	2cc6e68b          	0x2cc6e68b
     ff8:	00d70023          	sb	a3,0(a4)
        asm volatile (".insn r 0x0b, 0x006, 23, %[dst], %[src], %[src2]\r\n" : [dst] "=r" (r[3 * i + 1])  : [src] "r" (a->coeffs[2 * i]), [src2] "r" (a->coeffs[2 * i + 1]) :  );
     ffc:	0007d683          	lhu	a3,0(a5)
    1000:	0027d603          	lhu	a2,2(a5)
    1004:	2ec6e68b          	0x2ec6e68b
    1008:	00d700a3          	sb	a3,1(a4)
        asm volatile (".insn r 0x0b, 0x006, 24, %[dst], %[src], %[src2]\r\n" : [dst] "=r" (r[3 * i + 2])  : [src] "r" (a->coeffs[2 * i]), [src2] "r" (a->coeffs[2 * i + 1]) :  );    
    100c:	0007d683          	lhu	a3,0(a5)
    1010:	0027d603          	lhu	a2,2(a5)
    1014:	30c6e68b          	0x30c6e68b
    1018:	00d70123          	sb	a3,2(a4)
    for (i = 0; i < KYBER_N / 2; i++) {
    101c:	0791                	addi	a5,a5,4
    101e:	070d                	addi	a4,a4,3
    1020:	fd0796e3          	bne	a5,a6,fec <PQCLEAN_KYBER1024_CLEAN_polyvec_tobytes+0x12>
    for (i = 0; i < KYBER_K; i++) {
    1024:	20078813          	addi	a6,a5,512
    1028:	18050513          	addi	a0,a0,384
    102c:	fab81de3          	bne	a6,a1,fe6 <PQCLEAN_KYBER1024_CLEAN_polyvec_tobytes+0xc>
}
    1030:	8082                	ret

00001032 <PQCLEAN_KYBER1024_CLEAN_polyvec_frombytes>:
    for (i = 0; i < KYBER_K; i++) {
    1032:	60058893          	addi	a7,a1,1536
    for (i = 0; i < KYBER_N / 2; i++) {
    1036:	10100813          	li	a6,257
        PQCLEAN_KYBER1024_CLEAN_poly_frombytes(&r->vec[i], a + i * KYBER_POLYBYTES);
    103a:	87ae                	mv	a5,a1
    103c:	4685                	li	a3,1
        asm volatile (".insn r 0x0b, 0x006, 25, %[dst], %[src], %[src2]\r\n" : [dst] "=r" (r->coeffs[2 * i] )  : [src] "r" (a[3 * i + 0]), [src2] "r" (a[3 * i + 1]) :  );
    103e:	0007c603          	lbu	a2,0(a5)
    1042:	0017c703          	lbu	a4,1(a5)
    1046:	32e6660b          	0x32e6660b
    104a:	fff68713          	addi	a4,a3,-1
    104e:	0706                	slli	a4,a4,0x1
    1050:	972a                	add	a4,a4,a0
    1052:	00c71023          	sh	a2,0(a4)
        asm volatile (".insn r 0x0b, 0x006, 26, %[dst], %[src], %[src2]\r\n" : [dst] "=r" (r->coeffs[2 * i + 1] )  : [src] "r" (a[3 * i + 1]), [src2] "r" (a[3 * i + 2]) :  );
    1056:	0017c603          	lbu	a2,1(a5)
    105a:	0027c703          	lbu	a4,2(a5)
    105e:	34e6660b          	0x34e6660b
    1062:	00169713          	slli	a4,a3,0x1
    1066:	972a                	add	a4,a4,a0
    1068:	00c71023          	sh	a2,0(a4)
    for (i = 0; i < KYBER_N / 2; i++) {
    106c:	0689                	addi	a3,a3,2
    106e:	078d                	addi	a5,a5,3
    1070:	fd0697e3          	bne	a3,a6,103e <PQCLEAN_KYBER1024_CLEAN_polyvec_frombytes+0xc>
    for (i = 0; i < KYBER_K; i++) {
    1074:	18058593          	addi	a1,a1,384
    1078:	20050513          	addi	a0,a0,512
    107c:	fb159fe3          	bne	a1,a7,103a <PQCLEAN_KYBER1024_CLEAN_polyvec_frombytes+0x8>
}
    1080:	8082                	ret

00001082 <PQCLEAN_KYBER1024_CLEAN_basemul>:
    //r[0]  = fqmul(r[0], zeta);
    //r[0] += fqmul(a[0], b[0]);
    //r[1]  = fqmul(a[0], b[1]);
    //r[1] += fqmul(a[1], b[0]);

    asm volatile (".insn r 0x0b, 0x003, 2, %[dst], %[src], x0\r\n" : [dst] "=r" (r0) : [src] "r" ((int32_t)a[1] * b[1]) : );
    1082:	00259783          	lh	a5,2(a1)
    1086:	00261703          	lh	a4,2(a2)
    108a:	02e787b3          	mul	a5,a5,a4
    108e:	0407b78b          	0x407b78b
    1092:	07c2                	slli	a5,a5,0x10
    1094:	87c1                	srai	a5,a5,0x10
    asm volatile (".insn r 0x0b, 0x003, 2, %[dst], %[src], x0\r\n" : [dst] "=r" (r1) : [src] "r" ((int32_t)r0*zeta) : );
    1096:	02d787b3          	mul	a5,a5,a3
    109a:	0407b78b          	0x407b78b
    
    asm volatile (".insn r 0x0b, 0x003, 2, %[dst], %[src], x0\r\n" : [dst] "=r" (r2) : [src] "r" ((int32_t)a[0] * b[0]) : );
    109e:	00059703          	lh	a4,0(a1)
    10a2:	00061683          	lh	a3,0(a2)
    10a6:	02d70733          	mul	a4,a4,a3
    10aa:	0407370b          	0x407370b
    r[0] = r1 + r2;
    10ae:	97ba                	add	a5,a5,a4
    10b0:	00f51023          	sh	a5,0(a0)

    asm volatile (".insn r 0x0b, 0x003, 2, %[dst], %[src], x0\r\n" : [dst] "=r" (r3) : [src] "r" ((int32_t)a[0] * b[1]) : );
    10b4:	00059783          	lh	a5,0(a1)
    10b8:	00261703          	lh	a4,2(a2)
    10bc:	02e787b3          	mul	a5,a5,a4
    10c0:	0407b78b          	0x407b78b
    asm volatile (".insn r 0x0b, 0x003, 2, %[dst], %[src], x0\r\n" : [dst] "=r" (r4) : [src] "r" ((int32_t)a[1] * b[0]) : );
    10c4:	00259703          	lh	a4,2(a1)
    10c8:	00061683          	lh	a3,0(a2)
    10cc:	02d70733          	mul	a4,a4,a3
    10d0:	0407370b          	0x407370b
    r[1] = r3 + r4;
    10d4:	97ba                	add	a5,a5,a4
    10d6:	00f51123          	sh	a5,2(a0)
}
    10da:	8082                	ret

000010dc <PQCLEAN_KYBER1024_CLEAN_poly_basemul_montgomery>:
void PQCLEAN_KYBER1024_CLEAN_poly_basemul_montgomery(poly *r, const poly *a, const poly *b) {
    10dc:	1141                	addi	sp,sp,-16
    PQCLEAN_KYBER1024_CLEAN_basemul(&r->coeffs[0], &a->coeffs[0], &b->coeffs[0], PQCLEAN_KYBER1024_CLEAN_zetas[64]);
    10de:	bb100693          	li	a3,-1103
void PQCLEAN_KYBER1024_CLEAN_poly_basemul_montgomery(poly *r, const poly *a, const poly *b) {
    10e2:	c606                	sw	ra,12(sp)
    10e4:	c426                	sw	s1,8(sp)
    10e6:	c24a                	sw	s2,4(sp)
    10e8:	84aa                	mv	s1,a0
    10ea:	892e                	mv	s2,a1
    10ec:	c04e                	sw	s3,0(sp)
    10ee:	89b2                	mv	s3,a2
    PQCLEAN_KYBER1024_CLEAN_basemul(&r->coeffs[0], &a->coeffs[0], &b->coeffs[0], PQCLEAN_KYBER1024_CLEAN_zetas[64]);
    10f0:	3f49                	jal	1082 <PQCLEAN_KYBER1024_CLEAN_basemul>
    PQCLEAN_KYBER1024_CLEAN_basemul(&r->coeffs[2], &a->coeffs[2], &b->coeffs[2], -PQCLEAN_KYBER1024_CLEAN_zetas[64]);
    10f2:	00498613          	addi	a2,s3,4
    10f6:	00490593          	addi	a1,s2,4
    10fa:	00448513          	addi	a0,s1,4
    10fe:	44f00693          	li	a3,1103
    1102:	3741                	jal	1082 <PQCLEAN_KYBER1024_CLEAN_basemul>
    PQCLEAN_KYBER1024_CLEAN_basemul(&r->coeffs[4], &a->coeffs[4], &b->coeffs[4], PQCLEAN_KYBER1024_CLEAN_zetas[65]);
    1104:	00898613          	addi	a2,s3,8
    1108:	00890593          	addi	a1,s2,8
    110c:	00848513          	addi	a0,s1,8
    1110:	1ae00693          	li	a3,430
    1114:	37bd                	jal	1082 <PQCLEAN_KYBER1024_CLEAN_basemul>
    PQCLEAN_KYBER1024_CLEAN_basemul(&r->coeffs[6], &a->coeffs[6], &b->coeffs[6], -PQCLEAN_KYBER1024_CLEAN_zetas[65]);
    1116:	00c98613          	addi	a2,s3,12
    111a:	00c90593          	addi	a1,s2,12
    111e:	00c48513          	addi	a0,s1,12
    1122:	e5200693          	li	a3,-430
    1126:	3fb1                	jal	1082 <PQCLEAN_KYBER1024_CLEAN_basemul>
    PQCLEAN_KYBER1024_CLEAN_basemul(&r->coeffs[8], &a->coeffs[8], &b->coeffs[8], PQCLEAN_KYBER1024_CLEAN_zetas[66]);
    1128:	01098613          	addi	a2,s3,16
    112c:	01090593          	addi	a1,s2,16
    1130:	01048513          	addi	a0,s1,16
    1134:	22b00693          	li	a3,555
    1138:	37a9                	jal	1082 <PQCLEAN_KYBER1024_CLEAN_basemul>
    PQCLEAN_KYBER1024_CLEAN_basemul(&r->coeffs[10], &a->coeffs[10], &b->coeffs[10], -PQCLEAN_KYBER1024_CLEAN_zetas[66]);
    113a:	01498613          	addi	a2,s3,20
    113e:	01490593          	addi	a1,s2,20
    1142:	01448513          	addi	a0,s1,20
    1146:	dd500693          	li	a3,-555
    114a:	3f25                	jal	1082 <PQCLEAN_KYBER1024_CLEAN_basemul>
    PQCLEAN_KYBER1024_CLEAN_basemul(&r->coeffs[12], &a->coeffs[12], &b->coeffs[12], PQCLEAN_KYBER1024_CLEAN_zetas[67]);
    114c:	01898613          	addi	a2,s3,24
    1150:	01890593          	addi	a1,s2,24
    1154:	01848513          	addi	a0,s1,24
    1158:	34b00693          	li	a3,843
    115c:	371d                	jal	1082 <PQCLEAN_KYBER1024_CLEAN_basemul>
    PQCLEAN_KYBER1024_CLEAN_basemul(&r->coeffs[14], &a->coeffs[14], &b->coeffs[14], -PQCLEAN_KYBER1024_CLEAN_zetas[67]);
    115e:	01c98613          	addi	a2,s3,28
    1162:	01c90593          	addi	a1,s2,28
    1166:	01c48513          	addi	a0,s1,28
    116a:	cb500693          	li	a3,-843
    116e:	3f11                	jal	1082 <PQCLEAN_KYBER1024_CLEAN_basemul>
    PQCLEAN_KYBER1024_CLEAN_basemul(&r->coeffs[16], &a->coeffs[16], &b->coeffs[16], PQCLEAN_KYBER1024_CLEAN_zetas[68]);
    1170:	02098613          	addi	a2,s3,32
    1174:	02090593          	addi	a1,s2,32
    1178:	02048513          	addi	a0,s1,32
    117c:	b1d00693          	li	a3,-1251
    1180:	3709                	jal	1082 <PQCLEAN_KYBER1024_CLEAN_basemul>
    PQCLEAN_KYBER1024_CLEAN_basemul(&r->coeffs[18], &a->coeffs[18], &b->coeffs[18], -PQCLEAN_KYBER1024_CLEAN_zetas[68]);
    1182:	02498613          	addi	a2,s3,36
    1186:	02490593          	addi	a1,s2,36
    118a:	02448513          	addi	a0,s1,36
    118e:	4e300693          	li	a3,1251
    1192:	3dc5                	jal	1082 <PQCLEAN_KYBER1024_CLEAN_basemul>
    PQCLEAN_KYBER1024_CLEAN_basemul(&r->coeffs[20], &a->coeffs[20], &b->coeffs[20], PQCLEAN_KYBER1024_CLEAN_zetas[69]);
    1194:	02898613          	addi	a2,s3,40
    1198:	02890593          	addi	a1,s2,40
    119c:	02848513          	addi	a0,s1,40
    11a0:	36700693          	li	a3,871
    11a4:	3df9                	jal	1082 <PQCLEAN_KYBER1024_CLEAN_basemul>
    PQCLEAN_KYBER1024_CLEAN_basemul(&r->coeffs[22], &a->coeffs[22], &b->coeffs[22], -PQCLEAN_KYBER1024_CLEAN_zetas[69]);
    11a6:	02c98613          	addi	a2,s3,44
    11aa:	02c90593          	addi	a1,s2,44
    11ae:	02c48513          	addi	a0,s1,44
    11b2:	c9900693          	li	a3,-871
    11b6:	35f1                	jal	1082 <PQCLEAN_KYBER1024_CLEAN_basemul>
    PQCLEAN_KYBER1024_CLEAN_basemul(&r->coeffs[24], &a->coeffs[24], &b->coeffs[24], PQCLEAN_KYBER1024_CLEAN_zetas[70]);
    11b8:	03098613          	addi	a2,s3,48
    11bc:	03090593          	addi	a1,s2,48
    11c0:	03048513          	addi	a0,s1,48
    11c4:	60e00693          	li	a3,1550
    11c8:	3d6d                	jal	1082 <PQCLEAN_KYBER1024_CLEAN_basemul>
    PQCLEAN_KYBER1024_CLEAN_basemul(&r->coeffs[26], &a->coeffs[26], &b->coeffs[26], -PQCLEAN_KYBER1024_CLEAN_zetas[70]);
    11ca:	03498613          	addi	a2,s3,52
    11ce:	03490593          	addi	a1,s2,52
    11d2:	03448513          	addi	a0,s1,52
    11d6:	9f200693          	li	a3,-1550
    11da:	3565                	jal	1082 <PQCLEAN_KYBER1024_CLEAN_basemul>
    PQCLEAN_KYBER1024_CLEAN_basemul(&r->coeffs[28], &a->coeffs[28], &b->coeffs[28], PQCLEAN_KYBER1024_CLEAN_zetas[71]);
    11dc:	03898613          	addi	a2,s3,56
    11e0:	03890593          	addi	a1,s2,56
    11e4:	03848513          	addi	a0,s1,56
    11e8:	06900693          	li	a3,105
    11ec:	3d59                	jal	1082 <PQCLEAN_KYBER1024_CLEAN_basemul>
    PQCLEAN_KYBER1024_CLEAN_basemul(&r->coeffs[30], &a->coeffs[30], &b->coeffs[30], -PQCLEAN_KYBER1024_CLEAN_zetas[71]);
    11ee:	03c98613          	addi	a2,s3,60
    11f2:	03c90593          	addi	a1,s2,60
    11f6:	03c48513          	addi	a0,s1,60
    11fa:	f9700693          	li	a3,-105
    11fe:	3551                	jal	1082 <PQCLEAN_KYBER1024_CLEAN_basemul>
    PQCLEAN_KYBER1024_CLEAN_basemul(&r->coeffs[32], &a->coeffs[32], &b->coeffs[32], PQCLEAN_KYBER1024_CLEAN_zetas[72]);
    1200:	04098613          	addi	a2,s3,64
    1204:	04090593          	addi	a1,s2,64
    1208:	04048513          	addi	a0,s1,64
    120c:	1a600693          	li	a3,422
    1210:	3d8d                	jal	1082 <PQCLEAN_KYBER1024_CLEAN_basemul>
    PQCLEAN_KYBER1024_CLEAN_basemul(&r->coeffs[34], &a->coeffs[34], &b->coeffs[34], -PQCLEAN_KYBER1024_CLEAN_zetas[72]);
    1212:	04498613          	addi	a2,s3,68
    1216:	04490593          	addi	a1,s2,68
    121a:	04448513          	addi	a0,s1,68
    121e:	e5a00693          	li	a3,-422
    1222:	3585                	jal	1082 <PQCLEAN_KYBER1024_CLEAN_basemul>
    PQCLEAN_KYBER1024_CLEAN_basemul(&r->coeffs[36], &a->coeffs[36], &b->coeffs[36], PQCLEAN_KYBER1024_CLEAN_zetas[73]);
    1224:	04898613          	addi	a2,s3,72
    1228:	04890593          	addi	a1,s2,72
    122c:	04848513          	addi	a0,s1,72
    1230:	24b00693          	li	a3,587
    1234:	35b9                	jal	1082 <PQCLEAN_KYBER1024_CLEAN_basemul>
    PQCLEAN_KYBER1024_CLEAN_basemul(&r->coeffs[38], &a->coeffs[38], &b->coeffs[38], -PQCLEAN_KYBER1024_CLEAN_zetas[73]);
    1236:	04c98613          	addi	a2,s3,76
    123a:	04c90593          	addi	a1,s2,76
    123e:	04c48513          	addi	a0,s1,76
    1242:	db500693          	li	a3,-587
    1246:	3d35                	jal	1082 <PQCLEAN_KYBER1024_CLEAN_basemul>
    PQCLEAN_KYBER1024_CLEAN_basemul(&r->coeffs[40], &a->coeffs[40], &b->coeffs[40], PQCLEAN_KYBER1024_CLEAN_zetas[74]);
    1248:	05098613          	addi	a2,s3,80
    124c:	05090593          	addi	a1,s2,80
    1250:	05048513          	addi	a0,s1,80
    1254:	0b100693          	li	a3,177
    1258:	352d                	jal	1082 <PQCLEAN_KYBER1024_CLEAN_basemul>
    PQCLEAN_KYBER1024_CLEAN_basemul(&r->coeffs[42], &a->coeffs[42], &b->coeffs[42], -PQCLEAN_KYBER1024_CLEAN_zetas[74]);
    125a:	05498613          	addi	a2,s3,84
    125e:	05490593          	addi	a1,s2,84
    1262:	05448513          	addi	a0,s1,84
    1266:	f4f00693          	li	a3,-177
    126a:	3d21                	jal	1082 <PQCLEAN_KYBER1024_CLEAN_basemul>
    PQCLEAN_KYBER1024_CLEAN_basemul(&r->coeffs[44], &a->coeffs[44], &b->coeffs[44], PQCLEAN_KYBER1024_CLEAN_zetas[75]);
    126c:	05898613          	addi	a2,s3,88
    1270:	05890593          	addi	a1,s2,88
    1274:	05848513          	addi	a0,s1,88
    1278:	f1500693          	li	a3,-235
    127c:	3519                	jal	1082 <PQCLEAN_KYBER1024_CLEAN_basemul>
    PQCLEAN_KYBER1024_CLEAN_basemul(&r->coeffs[46], &a->coeffs[46], &b->coeffs[46], -PQCLEAN_KYBER1024_CLEAN_zetas[75]);
    127e:	05c98613          	addi	a2,s3,92
    1282:	05c90593          	addi	a1,s2,92
    1286:	05c48513          	addi	a0,s1,92
    128a:	0eb00693          	li	a3,235
    128e:	3bd5                	jal	1082 <PQCLEAN_KYBER1024_CLEAN_basemul>
    PQCLEAN_KYBER1024_CLEAN_basemul(&r->coeffs[48], &a->coeffs[48], &b->coeffs[48], PQCLEAN_KYBER1024_CLEAN_zetas[76]);
    1290:	06098613          	addi	a2,s3,96
    1294:	06090593          	addi	a1,s2,96
    1298:	06048513          	addi	a0,s1,96
    129c:	edd00693          	li	a3,-291
    12a0:	33cd                	jal	1082 <PQCLEAN_KYBER1024_CLEAN_basemul>
    PQCLEAN_KYBER1024_CLEAN_basemul(&r->coeffs[50], &a->coeffs[50], &b->coeffs[50], -PQCLEAN_KYBER1024_CLEAN_zetas[76]);
    12a2:	06498613          	addi	a2,s3,100
    12a6:	06490593          	addi	a1,s2,100
    12aa:	06448513          	addi	a0,s1,100
    12ae:	12300693          	li	a3,291
    12b2:	3bc1                	jal	1082 <PQCLEAN_KYBER1024_CLEAN_basemul>
    PQCLEAN_KYBER1024_CLEAN_basemul(&r->coeffs[52], &a->coeffs[52], &b->coeffs[52], PQCLEAN_KYBER1024_CLEAN_zetas[77]);
    12b4:	06898613          	addi	a2,s3,104
    12b8:	06890593          	addi	a1,s2,104
    12bc:	06848513          	addi	a0,s1,104
    12c0:	e3400693          	li	a3,-460
    12c4:	3b7d                	jal	1082 <PQCLEAN_KYBER1024_CLEAN_basemul>
    PQCLEAN_KYBER1024_CLEAN_basemul(&r->coeffs[54], &a->coeffs[54], &b->coeffs[54], -PQCLEAN_KYBER1024_CLEAN_zetas[77]);
    12c6:	06c98613          	addi	a2,s3,108
    12ca:	06c90593          	addi	a1,s2,108
    12ce:	06c48513          	addi	a0,s1,108
    12d2:	1cc00693          	li	a3,460
    12d6:	3375                	jal	1082 <PQCLEAN_KYBER1024_CLEAN_basemul>
    PQCLEAN_KYBER1024_CLEAN_basemul(&r->coeffs[56], &a->coeffs[56], &b->coeffs[56], PQCLEAN_KYBER1024_CLEAN_zetas[78]);
    12d8:	07098613          	addi	a2,s3,112
    12dc:	07090593          	addi	a1,s2,112
    12e0:	07048513          	addi	a0,s1,112
    12e4:	62600693          	li	a3,1574
    12e8:	3b69                	jal	1082 <PQCLEAN_KYBER1024_CLEAN_basemul>
    PQCLEAN_KYBER1024_CLEAN_basemul(&r->coeffs[58], &a->coeffs[58], &b->coeffs[58], -PQCLEAN_KYBER1024_CLEAN_zetas[78]);
    12ea:	07498613          	addi	a2,s3,116
    12ee:	07490593          	addi	a1,s2,116
    12f2:	07448513          	addi	a0,s1,116
    12f6:	9da00693          	li	a3,-1574
    12fa:	3361                	jal	1082 <PQCLEAN_KYBER1024_CLEAN_basemul>
    PQCLEAN_KYBER1024_CLEAN_basemul(&r->coeffs[60], &a->coeffs[60], &b->coeffs[60], PQCLEAN_KYBER1024_CLEAN_zetas[79]);
    12fc:	07898613          	addi	a2,s3,120
    1300:	07890593          	addi	a1,s2,120
    1304:	07848513          	addi	a0,s1,120
    1308:	67500693          	li	a3,1653
    130c:	3b9d                	jal	1082 <PQCLEAN_KYBER1024_CLEAN_basemul>
    PQCLEAN_KYBER1024_CLEAN_basemul(&r->coeffs[62], &a->coeffs[62], &b->coeffs[62], -PQCLEAN_KYBER1024_CLEAN_zetas[79]);
    130e:	07c98613          	addi	a2,s3,124
    1312:	07c90593          	addi	a1,s2,124
    1316:	07c48513          	addi	a0,s1,124
    131a:	98b00693          	li	a3,-1653
    131e:	3395                	jal	1082 <PQCLEAN_KYBER1024_CLEAN_basemul>
    PQCLEAN_KYBER1024_CLEAN_basemul(&r->coeffs[64], &a->coeffs[64], &b->coeffs[64], PQCLEAN_KYBER1024_CLEAN_zetas[80]);
    1320:	08098613          	addi	a2,s3,128
    1324:	08090593          	addi	a1,s2,128
    1328:	08048513          	addi	a0,s1,128
    132c:	f0a00693          	li	a3,-246
    1330:	3b89                	jal	1082 <PQCLEAN_KYBER1024_CLEAN_basemul>
    PQCLEAN_KYBER1024_CLEAN_basemul(&r->coeffs[66], &a->coeffs[66], &b->coeffs[66], -PQCLEAN_KYBER1024_CLEAN_zetas[80]);
    1332:	08498613          	addi	a2,s3,132
    1336:	08490593          	addi	a1,s2,132
    133a:	08448513          	addi	a0,s1,132
    133e:	0f600693          	li	a3,246
    1342:	3381                	jal	1082 <PQCLEAN_KYBER1024_CLEAN_basemul>
    PQCLEAN_KYBER1024_CLEAN_basemul(&r->coeffs[68], &a->coeffs[68], &b->coeffs[68], PQCLEAN_KYBER1024_CLEAN_zetas[81]);
    1344:	08898613          	addi	a2,s3,136
    1348:	08890593          	addi	a1,s2,136
    134c:	08848513          	addi	a0,s1,136
    1350:	30a00693          	li	a3,778
    1354:	333d                	jal	1082 <PQCLEAN_KYBER1024_CLEAN_basemul>
    PQCLEAN_KYBER1024_CLEAN_basemul(&r->coeffs[70], &a->coeffs[70], &b->coeffs[70], -PQCLEAN_KYBER1024_CLEAN_zetas[81]);
    1356:	08c98613          	addi	a2,s3,140
    135a:	08c90593          	addi	a1,s2,140
    135e:	08c48513          	addi	a0,s1,140
    1362:	cf600693          	li	a3,-778
    1366:	3b31                	jal	1082 <PQCLEAN_KYBER1024_CLEAN_basemul>
    PQCLEAN_KYBER1024_CLEAN_basemul(&r->coeffs[72], &a->coeffs[72], &b->coeffs[72], PQCLEAN_KYBER1024_CLEAN_zetas[82]);
    1368:	09098613          	addi	a2,s3,144
    136c:	09090593          	addi	a1,s2,144
    1370:	09048513          	addi	a0,s1,144
    1374:	48700693          	li	a3,1159
    1378:	3329                	jal	1082 <PQCLEAN_KYBER1024_CLEAN_basemul>
    PQCLEAN_KYBER1024_CLEAN_basemul(&r->coeffs[74], &a->coeffs[74], &b->coeffs[74], -PQCLEAN_KYBER1024_CLEAN_zetas[82]);
    137a:	09498613          	addi	a2,s3,148
    137e:	09490593          	addi	a1,s2,148
    1382:	09448513          	addi	a0,s1,148
    1386:	b7900693          	li	a3,-1159
    138a:	39e5                	jal	1082 <PQCLEAN_KYBER1024_CLEAN_basemul>
    PQCLEAN_KYBER1024_CLEAN_basemul(&r->coeffs[76], &a->coeffs[76], &b->coeffs[76], PQCLEAN_KYBER1024_CLEAN_zetas[83]);
    138c:	09898613          	addi	a2,s3,152
    1390:	09890593          	addi	a1,s2,152
    1394:	09848513          	addi	a0,s1,152
    1398:	f6d00693          	li	a3,-147
    139c:	31dd                	jal	1082 <PQCLEAN_KYBER1024_CLEAN_basemul>
    PQCLEAN_KYBER1024_CLEAN_basemul(&r->coeffs[78], &a->coeffs[78], &b->coeffs[78], -PQCLEAN_KYBER1024_CLEAN_zetas[83]);
    139e:	09c98613          	addi	a2,s3,156
    13a2:	09c90593          	addi	a1,s2,156
    13a6:	09c48513          	addi	a0,s1,156
    13aa:	09300693          	li	a3,147
    13ae:	39d1                	jal	1082 <PQCLEAN_KYBER1024_CLEAN_basemul>
    PQCLEAN_KYBER1024_CLEAN_basemul(&r->coeffs[80], &a->coeffs[80], &b->coeffs[80], PQCLEAN_KYBER1024_CLEAN_zetas[84]);
    13b0:	0a098613          	addi	a2,s3,160
    13b4:	0a090593          	addi	a1,s2,160
    13b8:	0a048513          	addi	a0,s1,160
    13bc:	cf700693          	li	a3,-777
    13c0:	31c9                	jal	1082 <PQCLEAN_KYBER1024_CLEAN_basemul>
    PQCLEAN_KYBER1024_CLEAN_basemul(&r->coeffs[82], &a->coeffs[82], &b->coeffs[82], -PQCLEAN_KYBER1024_CLEAN_zetas[84]);
    13c2:	0a498613          	addi	a2,s3,164
    13c6:	0a490593          	addi	a1,s2,164
    13ca:	0a448513          	addi	a0,s1,164
    13ce:	30900693          	li	a3,777
    13d2:	3945                	jal	1082 <PQCLEAN_KYBER1024_CLEAN_basemul>
    PQCLEAN_KYBER1024_CLEAN_basemul(&r->coeffs[84], &a->coeffs[84], &b->coeffs[84], PQCLEAN_KYBER1024_CLEAN_zetas[85]);
    13d4:	0a898613          	addi	a2,s3,168
    13d8:	0a890593          	addi	a1,s2,168
    13dc:	0a848513          	addi	a0,s1,168
    13e0:	5cb00693          	li	a3,1483
    13e4:	3979                	jal	1082 <PQCLEAN_KYBER1024_CLEAN_basemul>
    PQCLEAN_KYBER1024_CLEAN_basemul(&r->coeffs[86], &a->coeffs[86], &b->coeffs[86], -PQCLEAN_KYBER1024_CLEAN_zetas[85]);
    13e6:	0ac98613          	addi	a2,s3,172
    13ea:	0ac90593          	addi	a1,s2,172
    13ee:	0ac48513          	addi	a0,s1,172
    13f2:	a3500693          	li	a3,-1483
    13f6:	3171                	jal	1082 <PQCLEAN_KYBER1024_CLEAN_basemul>
    PQCLEAN_KYBER1024_CLEAN_basemul(&r->coeffs[88], &a->coeffs[88], &b->coeffs[88], PQCLEAN_KYBER1024_CLEAN_zetas[86]);
    13f8:	0b098613          	addi	a2,s3,176
    13fc:	0b090593          	addi	a1,s2,176
    1400:	0b048513          	addi	a0,s1,176
    1404:	da600693          	li	a3,-602
    1408:	39ad                	jal	1082 <PQCLEAN_KYBER1024_CLEAN_basemul>
    PQCLEAN_KYBER1024_CLEAN_basemul(&r->coeffs[90], &a->coeffs[90], &b->coeffs[90], -PQCLEAN_KYBER1024_CLEAN_zetas[86]);
    140a:	0b498613          	addi	a2,s3,180
    140e:	0b490593          	addi	a1,s2,180
    1412:	0b448513          	addi	a0,s1,180
    1416:	25a00693          	li	a3,602
    141a:	31a5                	jal	1082 <PQCLEAN_KYBER1024_CLEAN_basemul>
    PQCLEAN_KYBER1024_CLEAN_basemul(&r->coeffs[92], &a->coeffs[92], &b->coeffs[92], PQCLEAN_KYBER1024_CLEAN_zetas[87]);
    141c:	0b898613          	addi	a2,s3,184
    1420:	0b890593          	addi	a1,s2,184
    1424:	0b848513          	addi	a0,s1,184
    1428:	45f00693          	li	a3,1119
    142c:	3999                	jal	1082 <PQCLEAN_KYBER1024_CLEAN_basemul>
    PQCLEAN_KYBER1024_CLEAN_basemul(&r->coeffs[94], &a->coeffs[94], &b->coeffs[94], -PQCLEAN_KYBER1024_CLEAN_zetas[87]);
    142e:	0bc98613          	addi	a2,s3,188
    1432:	0bc90593          	addi	a1,s2,188
    1436:	0bc48513          	addi	a0,s1,188
    143a:	ba100693          	li	a3,-1119
    143e:	3191                	jal	1082 <PQCLEAN_KYBER1024_CLEAN_basemul>
    PQCLEAN_KYBER1024_CLEAN_basemul(&r->coeffs[96], &a->coeffs[96], &b->coeffs[96], PQCLEAN_KYBER1024_CLEAN_zetas[88]);
    1440:	0c098613          	addi	a2,s3,192
    1444:	0c090593          	addi	a1,s2,192
    1448:	0c048513          	addi	a0,s1,192
    144c:	9ca00693          	li	a3,-1590
    1450:	390d                	jal	1082 <PQCLEAN_KYBER1024_CLEAN_basemul>
    PQCLEAN_KYBER1024_CLEAN_basemul(&r->coeffs[98], &a->coeffs[98], &b->coeffs[98], -PQCLEAN_KYBER1024_CLEAN_zetas[88]);
    1452:	0c498613          	addi	a2,s3,196
    1456:	0c490593          	addi	a1,s2,196
    145a:	0c448513          	addi	a0,s1,196
    145e:	63600693          	li	a3,1590
    1462:	3105                	jal	1082 <PQCLEAN_KYBER1024_CLEAN_basemul>
    PQCLEAN_KYBER1024_CLEAN_basemul(&r->coeffs[100], &a->coeffs[100], &b->coeffs[100], PQCLEAN_KYBER1024_CLEAN_zetas[89]);
    1464:	0c898613          	addi	a2,s3,200
    1468:	0c890593          	addi	a1,s2,200
    146c:	0c848513          	addi	a0,s1,200
    1470:	28400693          	li	a3,644
    1474:	3139                	jal	1082 <PQCLEAN_KYBER1024_CLEAN_basemul>
    PQCLEAN_KYBER1024_CLEAN_basemul(&r->coeffs[102], &a->coeffs[102], &b->coeffs[102], -PQCLEAN_KYBER1024_CLEAN_zetas[89]);
    1476:	0cc98613          	addi	a2,s3,204
    147a:	0cc90593          	addi	a1,s2,204
    147e:	0cc48513          	addi	a0,s1,204
    1482:	d7c00693          	li	a3,-644
    1486:	3ef5                	jal	1082 <PQCLEAN_KYBER1024_CLEAN_basemul>
    PQCLEAN_KYBER1024_CLEAN_basemul(&r->coeffs[104], &a->coeffs[104], &b->coeffs[104], PQCLEAN_KYBER1024_CLEAN_zetas[90]);
    1488:	0d098613          	addi	a2,s3,208
    148c:	0d090593          	addi	a1,s2,208
    1490:	0d048513          	addi	a0,s1,208
    1494:	c9800693          	li	a3,-872
    1498:	36ed                	jal	1082 <PQCLEAN_KYBER1024_CLEAN_basemul>
    PQCLEAN_KYBER1024_CLEAN_basemul(&r->coeffs[106], &a->coeffs[106], &b->coeffs[106], -PQCLEAN_KYBER1024_CLEAN_zetas[90]);
    149a:	0d498613          	addi	a2,s3,212
    149e:	0d490593          	addi	a1,s2,212
    14a2:	0d448513          	addi	a0,s1,212
    14a6:	36800693          	li	a3,872
    14aa:	3ee1                	jal	1082 <PQCLEAN_KYBER1024_CLEAN_basemul>
    PQCLEAN_KYBER1024_CLEAN_basemul(&r->coeffs[108], &a->coeffs[108], &b->coeffs[108], PQCLEAN_KYBER1024_CLEAN_zetas[91]);
    14ac:	0d898613          	addi	a2,s3,216
    14b0:	0d890593          	addi	a1,s2,216
    14b4:	0d848513          	addi	a0,s1,216
    14b8:	15d00693          	li	a3,349
    14bc:	36d9                	jal	1082 <PQCLEAN_KYBER1024_CLEAN_basemul>
    PQCLEAN_KYBER1024_CLEAN_basemul(&r->coeffs[110], &a->coeffs[110], &b->coeffs[110], -PQCLEAN_KYBER1024_CLEAN_zetas[91]);
    14be:	0dc98613          	addi	a2,s3,220
    14c2:	0dc90593          	addi	a1,s2,220
    14c6:	0dc48513          	addi	a0,s1,220
    14ca:	ea300693          	li	a3,-349
    14ce:	3e55                	jal	1082 <PQCLEAN_KYBER1024_CLEAN_basemul>
    PQCLEAN_KYBER1024_CLEAN_basemul(&r->coeffs[112], &a->coeffs[112], &b->coeffs[112], PQCLEAN_KYBER1024_CLEAN_zetas[92]);
    14d0:	0e098613          	addi	a2,s3,224
    14d4:	0e090593          	addi	a1,s2,224
    14d8:	0e048513          	addi	a0,s1,224
    14dc:	1a200693          	li	a3,418
    14e0:	364d                	jal	1082 <PQCLEAN_KYBER1024_CLEAN_basemul>
    PQCLEAN_KYBER1024_CLEAN_basemul(&r->coeffs[114], &a->coeffs[114], &b->coeffs[114], -PQCLEAN_KYBER1024_CLEAN_zetas[92]);
    14e2:	0e498613          	addi	a2,s3,228
    14e6:	0e490593          	addi	a1,s2,228
    14ea:	0e448513          	addi	a0,s1,228
    14ee:	e5e00693          	li	a3,-418
    14f2:	3e41                	jal	1082 <PQCLEAN_KYBER1024_CLEAN_basemul>
    PQCLEAN_KYBER1024_CLEAN_basemul(&r->coeffs[116], &a->coeffs[116], &b->coeffs[116], PQCLEAN_KYBER1024_CLEAN_zetas[93]);
    14f4:	0e898613          	addi	a2,s3,232
    14f8:	0e890593          	addi	a1,s2,232
    14fc:	0e848513          	addi	a0,s1,232
    1500:	14900693          	li	a3,329
    1504:	3ebd                	jal	1082 <PQCLEAN_KYBER1024_CLEAN_basemul>
    PQCLEAN_KYBER1024_CLEAN_basemul(&r->coeffs[118], &a->coeffs[118], &b->coeffs[118], -PQCLEAN_KYBER1024_CLEAN_zetas[93]);
    1506:	0ec98613          	addi	a2,s3,236
    150a:	0ec90593          	addi	a1,s2,236
    150e:	0ec48513          	addi	a0,s1,236
    1512:	eb700693          	li	a3,-329
    1516:	36b5                	jal	1082 <PQCLEAN_KYBER1024_CLEAN_basemul>
    PQCLEAN_KYBER1024_CLEAN_basemul(&r->coeffs[120], &a->coeffs[120], &b->coeffs[120], PQCLEAN_KYBER1024_CLEAN_zetas[94]);
    1518:	0f098613          	addi	a2,s3,240
    151c:	0f090593          	addi	a1,s2,240
    1520:	0f048513          	addi	a0,s1,240
    1524:	f6400693          	li	a3,-156
    1528:	3ea9                	jal	1082 <PQCLEAN_KYBER1024_CLEAN_basemul>
    PQCLEAN_KYBER1024_CLEAN_basemul(&r->coeffs[122], &a->coeffs[122], &b->coeffs[122], -PQCLEAN_KYBER1024_CLEAN_zetas[94]);
    152a:	0f498613          	addi	a2,s3,244
    152e:	0f490593          	addi	a1,s2,244
    1532:	0f448513          	addi	a0,s1,244
    1536:	09c00693          	li	a3,156
    153a:	36a1                	jal	1082 <PQCLEAN_KYBER1024_CLEAN_basemul>
    PQCLEAN_KYBER1024_CLEAN_basemul(&r->coeffs[124], &a->coeffs[124], &b->coeffs[124], PQCLEAN_KYBER1024_CLEAN_zetas[95]);
    153c:	0f898613          	addi	a2,s3,248
    1540:	0f890593          	addi	a1,s2,248
    1544:	0f848513          	addi	a0,s1,248
    1548:	fb500693          	li	a3,-75
    154c:	3e1d                	jal	1082 <PQCLEAN_KYBER1024_CLEAN_basemul>
    PQCLEAN_KYBER1024_CLEAN_basemul(&r->coeffs[126], &a->coeffs[126], &b->coeffs[126], -PQCLEAN_KYBER1024_CLEAN_zetas[95]);
    154e:	0fc98613          	addi	a2,s3,252
    1552:	0fc90593          	addi	a1,s2,252
    1556:	0fc48513          	addi	a0,s1,252
    155a:	04b00693          	li	a3,75
    155e:	3615                	jal	1082 <PQCLEAN_KYBER1024_CLEAN_basemul>
    PQCLEAN_KYBER1024_CLEAN_basemul(&r->coeffs[128], &a->coeffs[128], &b->coeffs[128], PQCLEAN_KYBER1024_CLEAN_zetas[96]);
    1560:	10098613          	addi	a2,s3,256
    1564:	10090593          	addi	a1,s2,256
    1568:	10048513          	addi	a0,s1,256
    156c:	33100693          	li	a3,817
    1570:	3e09                	jal	1082 <PQCLEAN_KYBER1024_CLEAN_basemul>
    PQCLEAN_KYBER1024_CLEAN_basemul(&r->coeffs[130], &a->coeffs[130], &b->coeffs[130], -PQCLEAN_KYBER1024_CLEAN_zetas[96]);
    1572:	10498613          	addi	a2,s3,260
    1576:	10490593          	addi	a1,s2,260
    157a:	10448513          	addi	a0,s1,260
    157e:	ccf00693          	li	a3,-817
    1582:	3601                	jal	1082 <PQCLEAN_KYBER1024_CLEAN_basemul>
    PQCLEAN_KYBER1024_CLEAN_basemul(&r->coeffs[132], &a->coeffs[132], &b->coeffs[132], PQCLEAN_KYBER1024_CLEAN_zetas[97]);
    1584:	10898613          	addi	a2,s3,264
    1588:	10890593          	addi	a1,s2,264
    158c:	10848513          	addi	a0,s1,264
    1590:	44900693          	li	a3,1097
    1594:	34fd                	jal	1082 <PQCLEAN_KYBER1024_CLEAN_basemul>
    PQCLEAN_KYBER1024_CLEAN_basemul(&r->coeffs[134], &a->coeffs[134], &b->coeffs[134], -PQCLEAN_KYBER1024_CLEAN_zetas[97]);
    1596:	10c98613          	addi	a2,s3,268
    159a:	10c90593          	addi	a1,s2,268
    159e:	10c48513          	addi	a0,s1,268
    15a2:	bb700693          	li	a3,-1097
    15a6:	3cf1                	jal	1082 <PQCLEAN_KYBER1024_CLEAN_basemul>
    PQCLEAN_KYBER1024_CLEAN_basemul(&r->coeffs[136], &a->coeffs[136], &b->coeffs[136], PQCLEAN_KYBER1024_CLEAN_zetas[98]);
    15a8:	11098613          	addi	a2,s3,272
    15ac:	11090593          	addi	a1,s2,272
    15b0:	11048513          	addi	a0,s1,272
    15b4:	25b00693          	li	a3,603
    15b8:	34e9                	jal	1082 <PQCLEAN_KYBER1024_CLEAN_basemul>
    PQCLEAN_KYBER1024_CLEAN_basemul(&r->coeffs[138], &a->coeffs[138], &b->coeffs[138], -PQCLEAN_KYBER1024_CLEAN_zetas[98]);
    15ba:	11498613          	addi	a2,s3,276
    15be:	11490593          	addi	a1,s2,276
    15c2:	11448513          	addi	a0,s1,276
    15c6:	da500693          	li	a3,-603
    15ca:	3c65                	jal	1082 <PQCLEAN_KYBER1024_CLEAN_basemul>
    PQCLEAN_KYBER1024_CLEAN_basemul(&r->coeffs[140], &a->coeffs[140], &b->coeffs[140], PQCLEAN_KYBER1024_CLEAN_zetas[99]);
    15cc:	11898613          	addi	a2,s3,280
    15d0:	11890593          	addi	a1,s2,280
    15d4:	11848513          	addi	a0,s1,280
    15d8:	26200693          	li	a3,610
    15dc:	345d                	jal	1082 <PQCLEAN_KYBER1024_CLEAN_basemul>
    PQCLEAN_KYBER1024_CLEAN_basemul(&r->coeffs[142], &a->coeffs[142], &b->coeffs[142], -PQCLEAN_KYBER1024_CLEAN_zetas[99]);
    15de:	11c98613          	addi	a2,s3,284
    15e2:	11c90593          	addi	a1,s2,284
    15e6:	11c48513          	addi	a0,s1,284
    15ea:	d9e00693          	li	a3,-610
    15ee:	3c51                	jal	1082 <PQCLEAN_KYBER1024_CLEAN_basemul>
    PQCLEAN_KYBER1024_CLEAN_basemul(&r->coeffs[144], &a->coeffs[144], &b->coeffs[144], PQCLEAN_KYBER1024_CLEAN_zetas[100]);
    15f0:	12098613          	addi	a2,s3,288
    15f4:	12090593          	addi	a1,s2,288
    15f8:	12048513          	addi	a0,s1,288
    15fc:	52a00693          	li	a3,1322
    1600:	3449                	jal	1082 <PQCLEAN_KYBER1024_CLEAN_basemul>
    PQCLEAN_KYBER1024_CLEAN_basemul(&r->coeffs[146], &a->coeffs[146], &b->coeffs[146], -PQCLEAN_KYBER1024_CLEAN_zetas[100]);
    1602:	12498613          	addi	a2,s3,292
    1606:	12490593          	addi	a1,s2,292
    160a:	12448513          	addi	a0,s1,292
    160e:	ad600693          	li	a3,-1322
    1612:	3c85                	jal	1082 <PQCLEAN_KYBER1024_CLEAN_basemul>
    PQCLEAN_KYBER1024_CLEAN_basemul(&r->coeffs[148], &a->coeffs[148], &b->coeffs[148], PQCLEAN_KYBER1024_CLEAN_zetas[101]);
    1614:	12898613          	addi	a2,s3,296
    1618:	12890593          	addi	a1,s2,296
    161c:	12848513          	addi	a0,s1,296
    1620:	afb00693          	li	a3,-1285
    1624:	3cb9                	jal	1082 <PQCLEAN_KYBER1024_CLEAN_basemul>
    PQCLEAN_KYBER1024_CLEAN_basemul(&r->coeffs[150], &a->coeffs[150], &b->coeffs[150], -PQCLEAN_KYBER1024_CLEAN_zetas[101]);
    1626:	12c98613          	addi	a2,s3,300
    162a:	12c90593          	addi	a1,s2,300
    162e:	12c48513          	addi	a0,s1,300
    1632:	50500693          	li	a3,1285
    1636:	34b1                	jal	1082 <PQCLEAN_KYBER1024_CLEAN_basemul>
    PQCLEAN_KYBER1024_CLEAN_basemul(&r->coeffs[152], &a->coeffs[152], &b->coeffs[152], PQCLEAN_KYBER1024_CLEAN_zetas[102]);
    1638:	13098613          	addi	a2,s3,304
    163c:	13090593          	addi	a1,s2,304
    1640:	13048513          	addi	a0,s1,304
    1644:	a4700693          	li	a3,-1465
    1648:	3c2d                	jal	1082 <PQCLEAN_KYBER1024_CLEAN_basemul>
    PQCLEAN_KYBER1024_CLEAN_basemul(&r->coeffs[154], &a->coeffs[154], &b->coeffs[154], -PQCLEAN_KYBER1024_CLEAN_zetas[102]);
    164a:	13498613          	addi	a2,s3,308
    164e:	13490593          	addi	a1,s2,308
    1652:	13448513          	addi	a0,s1,308
    1656:	5b900693          	li	a3,1465
    165a:	3425                	jal	1082 <PQCLEAN_KYBER1024_CLEAN_basemul>
    PQCLEAN_KYBER1024_CLEAN_basemul(&r->coeffs[156], &a->coeffs[156], &b->coeffs[156], PQCLEAN_KYBER1024_CLEAN_zetas[103]);
    165c:	13898613          	addi	a2,s3,312
    1660:	13890593          	addi	a1,s2,312
    1664:	13848513          	addi	a0,s1,312
    1668:	18000693          	li	a3,384
    166c:	3c19                	jal	1082 <PQCLEAN_KYBER1024_CLEAN_basemul>
    PQCLEAN_KYBER1024_CLEAN_basemul(&r->coeffs[158], &a->coeffs[158], &b->coeffs[158], -PQCLEAN_KYBER1024_CLEAN_zetas[103]);
    166e:	13c98613          	addi	a2,s3,316
    1672:	13c90593          	addi	a1,s2,316
    1676:	13c48513          	addi	a0,s1,316
    167a:	e8000693          	li	a3,-384
    167e:	3411                	jal	1082 <PQCLEAN_KYBER1024_CLEAN_basemul>
    PQCLEAN_KYBER1024_CLEAN_basemul(&r->coeffs[160], &a->coeffs[160], &b->coeffs[160], PQCLEAN_KYBER1024_CLEAN_zetas[104]);
    1680:	14098613          	addi	a2,s3,320
    1684:	14090593          	addi	a1,s2,320
    1688:	14048513          	addi	a0,s1,320
    168c:	b4100693          	li	a3,-1215
    1690:	3acd                	jal	1082 <PQCLEAN_KYBER1024_CLEAN_basemul>
    PQCLEAN_KYBER1024_CLEAN_basemul(&r->coeffs[162], &a->coeffs[162], &b->coeffs[162], -PQCLEAN_KYBER1024_CLEAN_zetas[104]);
    1692:	14498613          	addi	a2,s3,324
    1696:	14490593          	addi	a1,s2,324
    169a:	14448513          	addi	a0,s1,324
    169e:	4bf00693          	li	a3,1215
    16a2:	32c5                	jal	1082 <PQCLEAN_KYBER1024_CLEAN_basemul>
    PQCLEAN_KYBER1024_CLEAN_basemul(&r->coeffs[164], &a->coeffs[164], &b->coeffs[164], PQCLEAN_KYBER1024_CLEAN_zetas[105]);
    16a4:	14898613          	addi	a2,s3,328
    16a8:	14890593          	addi	a1,s2,328
    16ac:	14848513          	addi	a0,s1,328
    16b0:	f7800693          	li	a3,-136
    16b4:	32f9                	jal	1082 <PQCLEAN_KYBER1024_CLEAN_basemul>
    PQCLEAN_KYBER1024_CLEAN_basemul(&r->coeffs[166], &a->coeffs[166], &b->coeffs[166], -PQCLEAN_KYBER1024_CLEAN_zetas[105]);
    16b6:	14c98613          	addi	a2,s3,332
    16ba:	14c90593          	addi	a1,s2,332
    16be:	14c48513          	addi	a0,s1,332
    16c2:	08800693          	li	a3,136
    16c6:	3a75                	jal	1082 <PQCLEAN_KYBER1024_CLEAN_basemul>
    PQCLEAN_KYBER1024_CLEAN_basemul(&r->coeffs[168], &a->coeffs[168], &b->coeffs[168], PQCLEAN_KYBER1024_CLEAN_zetas[106]);
    16c8:	15098613          	addi	a2,s3,336
    16cc:	15090593          	addi	a1,s2,336
    16d0:	15048513          	addi	a0,s1,336
    16d4:	4c200693          	li	a3,1218
    16d8:	326d                	jal	1082 <PQCLEAN_KYBER1024_CLEAN_basemul>
    PQCLEAN_KYBER1024_CLEAN_basemul(&r->coeffs[170], &a->coeffs[170], &b->coeffs[170], -PQCLEAN_KYBER1024_CLEAN_zetas[106]);
    16da:	15498613          	addi	a2,s3,340
    16de:	15490593          	addi	a1,s2,340
    16e2:	15448513          	addi	a0,s1,340
    16e6:	b3e00693          	li	a3,-1218
    16ea:	3a61                	jal	1082 <PQCLEAN_KYBER1024_CLEAN_basemul>
    PQCLEAN_KYBER1024_CLEAN_basemul(&r->coeffs[172], &a->coeffs[172], &b->coeffs[172], PQCLEAN_KYBER1024_CLEAN_zetas[107]);
    16ec:	15898613          	addi	a2,s3,344
    16f0:	15890593          	addi	a1,s2,344
    16f4:	15848513          	addi	a0,s1,344
    16f8:	ac900693          	li	a3,-1335
    16fc:	3259                	jal	1082 <PQCLEAN_KYBER1024_CLEAN_basemul>
    PQCLEAN_KYBER1024_CLEAN_basemul(&r->coeffs[174], &a->coeffs[174], &b->coeffs[174], -PQCLEAN_KYBER1024_CLEAN_zetas[107]);
    16fe:	15c98613          	addi	a2,s3,348
    1702:	15c90593          	addi	a1,s2,348
    1706:	15c48513          	addi	a0,s1,348
    170a:	53700693          	li	a3,1335
    170e:	3a95                	jal	1082 <PQCLEAN_KYBER1024_CLEAN_basemul>
    PQCLEAN_KYBER1024_CLEAN_basemul(&r->coeffs[176], &a->coeffs[176], &b->coeffs[176], PQCLEAN_KYBER1024_CLEAN_zetas[108]);
    1710:	16098613          	addi	a2,s3,352
    1714:	16090593          	addi	a1,s2,352
    1718:	16048513          	addi	a0,s1,352
    171c:	c9600693          	li	a3,-874
    1720:	328d                	jal	1082 <PQCLEAN_KYBER1024_CLEAN_basemul>
    PQCLEAN_KYBER1024_CLEAN_basemul(&r->coeffs[178], &a->coeffs[178], &b->coeffs[178], -PQCLEAN_KYBER1024_CLEAN_zetas[108]);
    1722:	16498613          	addi	a2,s3,356
    1726:	16490593          	addi	a1,s2,356
    172a:	16448513          	addi	a0,s1,356
    172e:	36a00693          	li	a3,874
    1732:	3a81                	jal	1082 <PQCLEAN_KYBER1024_CLEAN_basemul>
    PQCLEAN_KYBER1024_CLEAN_basemul(&r->coeffs[180], &a->coeffs[180], &b->coeffs[180], PQCLEAN_KYBER1024_CLEAN_zetas[109]);
    1734:	16898613          	addi	a2,s3,360
    1738:	16890593          	addi	a1,s2,360
    173c:	16848513          	addi	a0,s1,360
    1740:	0dc00693          	li	a3,220
    1744:	3a3d                	jal	1082 <PQCLEAN_KYBER1024_CLEAN_basemul>
    PQCLEAN_KYBER1024_CLEAN_basemul(&r->coeffs[182], &a->coeffs[182], &b->coeffs[182], -PQCLEAN_KYBER1024_CLEAN_zetas[109]);
    1746:	16c98613          	addi	a2,s3,364
    174a:	16c90593          	addi	a1,s2,364
    174e:	16c48513          	addi	a0,s1,364
    1752:	f2400693          	li	a3,-220
    1756:	3235                	jal	1082 <PQCLEAN_KYBER1024_CLEAN_basemul>
    PQCLEAN_KYBER1024_CLEAN_basemul(&r->coeffs[184], &a->coeffs[184], &b->coeffs[184], PQCLEAN_KYBER1024_CLEAN_zetas[110]);
    1758:	17098613          	addi	a2,s3,368
    175c:	17090593          	addi	a1,s2,368
    1760:	17048513          	addi	a0,s1,368
    1764:	b5d00693          	li	a3,-1187
    1768:	91bff0ef          	jal	ra,1082 <PQCLEAN_KYBER1024_CLEAN_basemul>
    PQCLEAN_KYBER1024_CLEAN_basemul(&r->coeffs[186], &a->coeffs[186], &b->coeffs[186], -PQCLEAN_KYBER1024_CLEAN_zetas[110]);
    176c:	17498613          	addi	a2,s3,372
    1770:	17490593          	addi	a1,s2,372
    1774:	17448513          	addi	a0,s1,372
    1778:	4a300693          	li	a3,1187
    177c:	907ff0ef          	jal	ra,1082 <PQCLEAN_KYBER1024_CLEAN_basemul>
    PQCLEAN_KYBER1024_CLEAN_basemul(&r->coeffs[188], &a->coeffs[188], &b->coeffs[188], PQCLEAN_KYBER1024_CLEAN_zetas[111]);
    1780:	17898613          	addi	a2,s3,376
    1784:	17890593          	addi	a1,s2,376
    1788:	17848513          	addi	a0,s1,376
    178c:	98500693          	li	a3,-1659
    1790:	8f3ff0ef          	jal	ra,1082 <PQCLEAN_KYBER1024_CLEAN_basemul>
    PQCLEAN_KYBER1024_CLEAN_basemul(&r->coeffs[190], &a->coeffs[190], &b->coeffs[190], -PQCLEAN_KYBER1024_CLEAN_zetas[111]);
    1794:	17c98613          	addi	a2,s3,380
    1798:	17c90593          	addi	a1,s2,380
    179c:	17c48513          	addi	a0,s1,380
    17a0:	67b00693          	li	a3,1659
    17a4:	8dfff0ef          	jal	ra,1082 <PQCLEAN_KYBER1024_CLEAN_basemul>
    PQCLEAN_KYBER1024_CLEAN_basemul(&r->coeffs[192], &a->coeffs[192], &b->coeffs[192], PQCLEAN_KYBER1024_CLEAN_zetas[112]);
    17a8:	18098613          	addi	a2,s3,384
    17ac:	18090593          	addi	a1,s2,384
    17b0:	18048513          	addi	a0,s1,384
    17b4:	b5f00693          	li	a3,-1185
    17b8:	8cbff0ef          	jal	ra,1082 <PQCLEAN_KYBER1024_CLEAN_basemul>
    PQCLEAN_KYBER1024_CLEAN_basemul(&r->coeffs[194], &a->coeffs[194], &b->coeffs[194], -PQCLEAN_KYBER1024_CLEAN_zetas[112]);
    17bc:	18498613          	addi	a2,s3,388
    17c0:	18490593          	addi	a1,s2,388
    17c4:	18448513          	addi	a0,s1,388
    17c8:	4a100693          	li	a3,1185
    17cc:	8b7ff0ef          	jal	ra,1082 <PQCLEAN_KYBER1024_CLEAN_basemul>
    PQCLEAN_KYBER1024_CLEAN_basemul(&r->coeffs[196], &a->coeffs[196], &b->coeffs[196], PQCLEAN_KYBER1024_CLEAN_zetas[113]);
    17d0:	18898613          	addi	a2,s3,392
    17d4:	18890593          	addi	a1,s2,392
    17d8:	18848513          	addi	a0,s1,392
    17dc:	a0600693          	li	a3,-1530
    17e0:	8a3ff0ef          	jal	ra,1082 <PQCLEAN_KYBER1024_CLEAN_basemul>
    PQCLEAN_KYBER1024_CLEAN_basemul(&r->coeffs[198], &a->coeffs[198], &b->coeffs[198], -PQCLEAN_KYBER1024_CLEAN_zetas[113]);
    17e4:	18c98613          	addi	a2,s3,396
    17e8:	18c90593          	addi	a1,s2,396
    17ec:	18c48513          	addi	a0,s1,396
    17f0:	5fa00693          	li	a3,1530
    17f4:	88fff0ef          	jal	ra,1082 <PQCLEAN_KYBER1024_CLEAN_basemul>
    PQCLEAN_KYBER1024_CLEAN_basemul(&r->coeffs[200], &a->coeffs[200], &b->coeffs[200], PQCLEAN_KYBER1024_CLEAN_zetas[114]);
    17f8:	19098613          	addi	a2,s3,400
    17fc:	19090593          	addi	a1,s2,400
    1800:	19048513          	addi	a0,s1,400
    1804:	b0200693          	li	a3,-1278
    1808:	87bff0ef          	jal	ra,1082 <PQCLEAN_KYBER1024_CLEAN_basemul>
    PQCLEAN_KYBER1024_CLEAN_basemul(&r->coeffs[202], &a->coeffs[202], &b->coeffs[202], -PQCLEAN_KYBER1024_CLEAN_zetas[114]);
    180c:	19498613          	addi	a2,s3,404
    1810:	19490593          	addi	a1,s2,404
    1814:	19448513          	addi	a0,s1,404
    1818:	4fe00693          	li	a3,1278
    181c:	867ff0ef          	jal	ra,1082 <PQCLEAN_KYBER1024_CLEAN_basemul>
    PQCLEAN_KYBER1024_CLEAN_basemul(&r->coeffs[204], &a->coeffs[204], &b->coeffs[204], PQCLEAN_KYBER1024_CLEAN_zetas[115]);
    1820:	19898613          	addi	a2,s3,408
    1824:	19890593          	addi	a1,s2,408
    1828:	19848513          	addi	a0,s1,408
    182c:	31a00693          	li	a3,794
    1830:	853ff0ef          	jal	ra,1082 <PQCLEAN_KYBER1024_CLEAN_basemul>
    PQCLEAN_KYBER1024_CLEAN_basemul(&r->coeffs[206], &a->coeffs[206], &b->coeffs[206], -PQCLEAN_KYBER1024_CLEAN_zetas[115]);
    1834:	19c98613          	addi	a2,s3,412
    1838:	19c90593          	addi	a1,s2,412
    183c:	19c48513          	addi	a0,s1,412
    1840:	ce600693          	li	a3,-794
    1844:	83fff0ef          	jal	ra,1082 <PQCLEAN_KYBER1024_CLEAN_basemul>
    PQCLEAN_KYBER1024_CLEAN_basemul(&r->coeffs[208], &a->coeffs[208], &b->coeffs[208], PQCLEAN_KYBER1024_CLEAN_zetas[116]);
    1848:	1a098613          	addi	a2,s3,416
    184c:	1a090593          	addi	a1,s2,416
    1850:	1a048513          	addi	a0,s1,416
    1854:	a1a00693          	li	a3,-1510
    1858:	82bff0ef          	jal	ra,1082 <PQCLEAN_KYBER1024_CLEAN_basemul>
    PQCLEAN_KYBER1024_CLEAN_basemul(&r->coeffs[210], &a->coeffs[210], &b->coeffs[210], -PQCLEAN_KYBER1024_CLEAN_zetas[116]);
    185c:	1a498613          	addi	a2,s3,420
    1860:	1a490593          	addi	a1,s2,420
    1864:	1a448513          	addi	a0,s1,420
    1868:	5e600693          	li	a3,1510
    186c:	817ff0ef          	jal	ra,1082 <PQCLEAN_KYBER1024_CLEAN_basemul>
    PQCLEAN_KYBER1024_CLEAN_basemul(&r->coeffs[212], &a->coeffs[212], &b->coeffs[212], PQCLEAN_KYBER1024_CLEAN_zetas[117]);
    1870:	1a898613          	addi	a2,s3,424
    1874:	1a890593          	addi	a1,s2,424
    1878:	1a848513          	addi	a0,s1,424
    187c:	caa00693          	li	a3,-854
    1880:	803ff0ef          	jal	ra,1082 <PQCLEAN_KYBER1024_CLEAN_basemul>
    PQCLEAN_KYBER1024_CLEAN_basemul(&r->coeffs[214], &a->coeffs[214], &b->coeffs[214], -PQCLEAN_KYBER1024_CLEAN_zetas[117]);
    1884:	1ac98613          	addi	a2,s3,428
    1888:	1ac90593          	addi	a1,s2,428
    188c:	1ac48513          	addi	a0,s1,428
    1890:	35600693          	li	a3,854
    1894:	feeff0ef          	jal	ra,1082 <PQCLEAN_KYBER1024_CLEAN_basemul>
    PQCLEAN_KYBER1024_CLEAN_basemul(&r->coeffs[216], &a->coeffs[216], &b->coeffs[216], PQCLEAN_KYBER1024_CLEAN_zetas[118]);
    1898:	1b098613          	addi	a2,s3,432
    189c:	1b090593          	addi	a1,s2,432
    18a0:	1b048513          	addi	a0,s1,432
    18a4:	c9a00693          	li	a3,-870
    18a8:	fdaff0ef          	jal	ra,1082 <PQCLEAN_KYBER1024_CLEAN_basemul>
    PQCLEAN_KYBER1024_CLEAN_basemul(&r->coeffs[218], &a->coeffs[218], &b->coeffs[218], -PQCLEAN_KYBER1024_CLEAN_zetas[118]);
    18ac:	1b498613          	addi	a2,s3,436
    18b0:	1b490593          	addi	a1,s2,436
    18b4:	1b448513          	addi	a0,s1,436
    18b8:	36600693          	li	a3,870
    18bc:	fc6ff0ef          	jal	ra,1082 <PQCLEAN_KYBER1024_CLEAN_basemul>
    PQCLEAN_KYBER1024_CLEAN_basemul(&r->coeffs[220], &a->coeffs[220], &b->coeffs[220], PQCLEAN_KYBER1024_CLEAN_zetas[119]);
    18c0:	1b898613          	addi	a2,s3,440
    18c4:	1b890593          	addi	a1,s2,440
    18c8:	1b848513          	addi	a0,s1,440
    18cc:	1de00693          	li	a3,478
    18d0:	fb2ff0ef          	jal	ra,1082 <PQCLEAN_KYBER1024_CLEAN_basemul>
    PQCLEAN_KYBER1024_CLEAN_basemul(&r->coeffs[222], &a->coeffs[222], &b->coeffs[222], -PQCLEAN_KYBER1024_CLEAN_zetas[119]);
    18d4:	1bc98613          	addi	a2,s3,444
    18d8:	1bc90593          	addi	a1,s2,444
    18dc:	1bc48513          	addi	a0,s1,444
    18e0:	e2200693          	li	a3,-478
    18e4:	f9eff0ef          	jal	ra,1082 <PQCLEAN_KYBER1024_CLEAN_basemul>
    PQCLEAN_KYBER1024_CLEAN_basemul(&r->coeffs[224], &a->coeffs[224], &b->coeffs[224], PQCLEAN_KYBER1024_CLEAN_zetas[120]);
    18e8:	1c098613          	addi	a2,s3,448
    18ec:	1c090593          	addi	a1,s2,448
    18f0:	1c048513          	addi	a0,s1,448
    18f4:	f9400693          	li	a3,-108
    18f8:	f8aff0ef          	jal	ra,1082 <PQCLEAN_KYBER1024_CLEAN_basemul>
    PQCLEAN_KYBER1024_CLEAN_basemul(&r->coeffs[226], &a->coeffs[226], &b->coeffs[226], -PQCLEAN_KYBER1024_CLEAN_zetas[120]);
    18fc:	1c498613          	addi	a2,s3,452
    1900:	1c490593          	addi	a1,s2,452
    1904:	1c448513          	addi	a0,s1,452
    1908:	06c00693          	li	a3,108
    190c:	f76ff0ef          	jal	ra,1082 <PQCLEAN_KYBER1024_CLEAN_basemul>
    PQCLEAN_KYBER1024_CLEAN_basemul(&r->coeffs[228], &a->coeffs[228], &b->coeffs[228], PQCLEAN_KYBER1024_CLEAN_zetas[121]);
    1910:	1c898613          	addi	a2,s3,456
    1914:	1c890593          	addi	a1,s2,456
    1918:	1c848513          	addi	a0,s1,456
    191c:	ecc00693          	li	a3,-308
    1920:	f62ff0ef          	jal	ra,1082 <PQCLEAN_KYBER1024_CLEAN_basemul>
    PQCLEAN_KYBER1024_CLEAN_basemul(&r->coeffs[230], &a->coeffs[230], &b->coeffs[230], -PQCLEAN_KYBER1024_CLEAN_zetas[121]);
    1924:	1cc98613          	addi	a2,s3,460
    1928:	1cc90593          	addi	a1,s2,460
    192c:	1cc48513          	addi	a0,s1,460
    1930:	13400693          	li	a3,308
    1934:	f4eff0ef          	jal	ra,1082 <PQCLEAN_KYBER1024_CLEAN_basemul>
    PQCLEAN_KYBER1024_CLEAN_basemul(&r->coeffs[232], &a->coeffs[232], &b->coeffs[232], PQCLEAN_KYBER1024_CLEAN_zetas[122]);
    1938:	1d098613          	addi	a2,s3,464
    193c:	1d090593          	addi	a1,s2,464
    1940:	1d048513          	addi	a0,s1,464
    1944:	3e400693          	li	a3,996
    1948:	f3aff0ef          	jal	ra,1082 <PQCLEAN_KYBER1024_CLEAN_basemul>
    PQCLEAN_KYBER1024_CLEAN_basemul(&r->coeffs[234], &a->coeffs[234], &b->coeffs[234], -PQCLEAN_KYBER1024_CLEAN_zetas[122]);
    194c:	1d498613          	addi	a2,s3,468
    1950:	1d490593          	addi	a1,s2,468
    1954:	1d448513          	addi	a0,s1,468
    1958:	c1c00693          	li	a3,-996
    195c:	f26ff0ef          	jal	ra,1082 <PQCLEAN_KYBER1024_CLEAN_basemul>
    PQCLEAN_KYBER1024_CLEAN_basemul(&r->coeffs[236], &a->coeffs[236], &b->coeffs[236], PQCLEAN_KYBER1024_CLEAN_zetas[123]);
    1960:	1d898613          	addi	a2,s3,472
    1964:	1d890593          	addi	a1,s2,472
    1968:	1d848513          	addi	a0,s1,472
    196c:	3df00693          	li	a3,991
    1970:	f12ff0ef          	jal	ra,1082 <PQCLEAN_KYBER1024_CLEAN_basemul>
    PQCLEAN_KYBER1024_CLEAN_basemul(&r->coeffs[238], &a->coeffs[238], &b->coeffs[238], -PQCLEAN_KYBER1024_CLEAN_zetas[123]);
    1974:	1dc98613          	addi	a2,s3,476
    1978:	1dc90593          	addi	a1,s2,476
    197c:	1dc48513          	addi	a0,s1,476
    1980:	c2100693          	li	a3,-991
    1984:	efeff0ef          	jal	ra,1082 <PQCLEAN_KYBER1024_CLEAN_basemul>
    PQCLEAN_KYBER1024_CLEAN_basemul(&r->coeffs[240], &a->coeffs[240], &b->coeffs[240], PQCLEAN_KYBER1024_CLEAN_zetas[124]);
    1988:	1e098613          	addi	a2,s3,480
    198c:	1e090593          	addi	a1,s2,480
    1990:	1e048513          	addi	a0,s1,480
    1994:	3be00693          	li	a3,958
    1998:	eeaff0ef          	jal	ra,1082 <PQCLEAN_KYBER1024_CLEAN_basemul>
    PQCLEAN_KYBER1024_CLEAN_basemul(&r->coeffs[242], &a->coeffs[242], &b->coeffs[242], -PQCLEAN_KYBER1024_CLEAN_zetas[124]);
    199c:	1e498613          	addi	a2,s3,484
    19a0:	1e490593          	addi	a1,s2,484
    19a4:	1e448513          	addi	a0,s1,484
    19a8:	c4200693          	li	a3,-958
    19ac:	ed6ff0ef          	jal	ra,1082 <PQCLEAN_KYBER1024_CLEAN_basemul>
    PQCLEAN_KYBER1024_CLEAN_basemul(&r->coeffs[244], &a->coeffs[244], &b->coeffs[244], PQCLEAN_KYBER1024_CLEAN_zetas[125]);
    19b0:	1e898613          	addi	a2,s3,488
    19b4:	1e890593          	addi	a1,s2,488
    19b8:	1e848513          	addi	a0,s1,488
    19bc:	a4c00693          	li	a3,-1460
    19c0:	ec2ff0ef          	jal	ra,1082 <PQCLEAN_KYBER1024_CLEAN_basemul>
    PQCLEAN_KYBER1024_CLEAN_basemul(&r->coeffs[246], &a->coeffs[246], &b->coeffs[246], -PQCLEAN_KYBER1024_CLEAN_zetas[125]);
    19c4:	1ec98613          	addi	a2,s3,492
    19c8:	1ec90593          	addi	a1,s2,492
    19cc:	1ec48513          	addi	a0,s1,492
    19d0:	5b400693          	li	a3,1460
    19d4:	eaeff0ef          	jal	ra,1082 <PQCLEAN_KYBER1024_CLEAN_basemul>
    PQCLEAN_KYBER1024_CLEAN_basemul(&r->coeffs[248], &a->coeffs[248], &b->coeffs[248], PQCLEAN_KYBER1024_CLEAN_zetas[126]);
    19d8:	1f098613          	addi	a2,s3,496
    19dc:	1f090593          	addi	a1,s2,496
    19e0:	1f048513          	addi	a0,s1,496
    19e4:	5f200693          	li	a3,1522
    19e8:	e9aff0ef          	jal	ra,1082 <PQCLEAN_KYBER1024_CLEAN_basemul>
    PQCLEAN_KYBER1024_CLEAN_basemul(&r->coeffs[250], &a->coeffs[250], &b->coeffs[250], -PQCLEAN_KYBER1024_CLEAN_zetas[126]);
    19ec:	1f498613          	addi	a2,s3,500
    19f0:	1f490593          	addi	a1,s2,500
    19f4:	1f448513          	addi	a0,s1,500
    19f8:	a0e00693          	li	a3,-1522
    19fc:	e86ff0ef          	jal	ra,1082 <PQCLEAN_KYBER1024_CLEAN_basemul>
    PQCLEAN_KYBER1024_CLEAN_basemul(&r->coeffs[252], &a->coeffs[252], &b->coeffs[252], PQCLEAN_KYBER1024_CLEAN_zetas[127]);
    1a00:	1f898613          	addi	a2,s3,504
    1a04:	1f890593          	addi	a1,s2,504
    1a08:	1f848513          	addi	a0,s1,504
    1a0c:	65c00693          	li	a3,1628
    1a10:	e72ff0ef          	jal	ra,1082 <PQCLEAN_KYBER1024_CLEAN_basemul>
}
    1a14:	40b2                	lw	ra,12(sp)
    PQCLEAN_KYBER1024_CLEAN_basemul(&r->coeffs[254], &a->coeffs[254], &b->coeffs[254], -PQCLEAN_KYBER1024_CLEAN_zetas[127]);
    1a16:	1fc98613          	addi	a2,s3,508
    1a1a:	1fc90593          	addi	a1,s2,508
}
    1a1e:	4982                	lw	s3,0(sp)
    1a20:	4912                	lw	s2,4(sp)
    PQCLEAN_KYBER1024_CLEAN_basemul(&r->coeffs[254], &a->coeffs[254], &b->coeffs[254], -PQCLEAN_KYBER1024_CLEAN_zetas[127]);
    1a22:	1fc48513          	addi	a0,s1,508
}
    1a26:	44a2                	lw	s1,8(sp)
    PQCLEAN_KYBER1024_CLEAN_basemul(&r->coeffs[254], &a->coeffs[254], &b->coeffs[254], -PQCLEAN_KYBER1024_CLEAN_zetas[127]);
    1a28:	9a400693          	li	a3,-1628
}
    1a2c:	0141                	addi	sp,sp,16
    PQCLEAN_KYBER1024_CLEAN_basemul(&r->coeffs[254], &a->coeffs[254], &b->coeffs[254], -PQCLEAN_KYBER1024_CLEAN_zetas[127]);
    1a2e:	e54ff06f          	j	1082 <PQCLEAN_KYBER1024_CLEAN_basemul>

00001a32 <PQCLEAN_KYBER1024_CLEAN_polyvec_basemul_acc_montgomery>:
void PQCLEAN_KYBER1024_CLEAN_polyvec_basemul_acc_montgomery(poly *r, const polyvec *a, const polyvec *b) {
    1a32:	de010113          	addi	sp,sp,-544
    1a36:	20912c23          	sw	s1,536(sp)
    1a3a:	21212a23          	sw	s2,532(sp)
    1a3e:	21312823          	sw	s3,528(sp)
    1a42:	21412623          	sw	s4,524(sp)
    1a46:	21512423          	sw	s5,520(sp)
    1a4a:	20112e23          	sw	ra,540(sp)
    1a4e:	892a                	mv	s2,a0
    1a50:	8aae                	mv	s5,a1
    1a52:	8a32                	mv	s4,a2
    PQCLEAN_KYBER1024_CLEAN_poly_basemul_montgomery(r, &a->vec[0], &b->vec[0]);
    1a54:	20000993          	li	s3,512
    1a58:	e84ff0ef          	jal	ra,10dc <PQCLEAN_KYBER1024_CLEAN_poly_basemul_montgomery>
    for (i = 1; i < KYBER_K; i++) {
    1a5c:	0404                	addi	s1,sp,512
        PQCLEAN_KYBER1024_CLEAN_poly_basemul_montgomery(&t, &a->vec[i], &b->vec[i]);
    1a5e:	013a85b3          	add	a1,s5,s3
    1a62:	013a0633          	add	a2,s4,s3
    1a66:	850a                	mv	a0,sp
    1a68:	e74ff0ef          	jal	ra,10dc <PQCLEAN_KYBER1024_CLEAN_poly_basemul_montgomery>
    for (i = 0; i < KYBER_N; i++) {
    1a6c:	85ca                	mv	a1,s2
    1a6e:	870a                	mv	a4,sp
    1a70:	87ca                	mv	a5,s2
        r->coeffs[i] = a->coeffs[i] + b->coeffs[i];
    1a72:	0007d683          	lhu	a3,0(a5)
    1a76:	00075603          	lhu	a2,0(a4)
    for (i = 0; i < KYBER_N; i++) {
    1a7a:	0789                	addi	a5,a5,2
    1a7c:	0709                	addi	a4,a4,2
        r->coeffs[i] = a->coeffs[i] + b->coeffs[i];
    1a7e:	96b2                	add	a3,a3,a2
    1a80:	fed79f23          	sh	a3,-2(a5)
    for (i = 0; i < KYBER_N; i++) {
    1a84:	fe9717e3          	bne	a4,s1,1a72 <PQCLEAN_KYBER1024_CLEAN_polyvec_basemul_acc_montgomery+0x40>
    for (i = 1; i < KYBER_K; i++) {
    1a88:	20098993          	addi	s3,s3,512
    1a8c:	80098793          	addi	a5,s3,-2048
    1a90:	f7f9                	bnez	a5,1a5e <PQCLEAN_KYBER1024_CLEAN_polyvec_basemul_acc_montgomery+0x2c>
    for (i = 0; i < KYBER_N; i++) {
    1a92:	10000613          	li	a2,256
        asm volatile (".insn r 0x0b, 0x004, 0, %[dst], %[src], x0\r\n" : [dst] "=r" (r->coeffs[i]) : [src] "r" (r->coeffs[i]) : );
    1a96:	0005d683          	lhu	a3,0(a1)
    1a9a:	0006c68b          	0x6c68b
    1a9e:	00179713          	slli	a4,a5,0x1
    1aa2:	974a                	add	a4,a4,s2
    1aa4:	00d71023          	sh	a3,0(a4)
    for (i = 0; i < KYBER_N; i++) {
    1aa8:	0785                	addi	a5,a5,1
    1aaa:	0589                	addi	a1,a1,2
    1aac:	fec795e3          	bne	a5,a2,1a96 <PQCLEAN_KYBER1024_CLEAN_polyvec_basemul_acc_montgomery+0x64>
}
    1ab0:	21c12083          	lw	ra,540(sp)
    1ab4:	21812483          	lw	s1,536(sp)
    1ab8:	21412903          	lw	s2,532(sp)
    1abc:	21012983          	lw	s3,528(sp)
    1ac0:	20c12a03          	lw	s4,524(sp)
    1ac4:	20812a83          	lw	s5,520(sp)
    1ac8:	22010113          	addi	sp,sp,544
    1acc:	8082                	ret

00001ace <rej_uniform>:
        if (val0 < KYBER_Q) {
    1ace:	6e05                	lui	t3,0x1
    while (ctr < len && pos + 3 <= buflen) {
    1ad0:	4e8d                	li	t4,3
                                unsigned int buflen) {
    1ad2:	8f2a                	mv	t5,a0
    ctr = pos = 0;
    1ad4:	4801                	li	a6,0
        if (val0 < KYBER_Q) {
    1ad6:	d00e0e13          	addi	t3,t3,-768 # d00 <handle_ecall+0xa>
    while (ctr < len && pos + 3 <= buflen) {
    1ada:	40ce8eb3          	sub	t4,t4,a2
        asm volatile (".insn r 0x0b, 0x1, 40, %[dst], %[src], %[src2]\r\n" : [dst] "=r" (val0)  : [src] "r" (buf[pos + 0]), [src2] "r" (buf[pos + 1]) :  );
    1ade:	00164783          	lbu	a5,1(a2)
    1ae2:	00064703          	lbu	a4,0(a2)
    1ae6:	50f7170b          	0x50f7170b
    1aea:	01071893          	slli	a7,a4,0x10
        asm volatile (".insn r 0x0b, 0x1, 41, %[dst], %[src], %[src2]\r\n" : [dst] "=r" (val1)  : [src] "r" (buf[pos + 1]), [src2] "r" (buf[pos + 2]) :  );
    1aee:	00264303          	lbu	t1,2(a2)
        asm volatile (".insn r 0x0b, 0x1, 40, %[dst], %[src], %[src2]\r\n" : [dst] "=r" (val0)  : [src] "r" (buf[pos + 0]), [src2] "r" (buf[pos + 1]) :  );
    1af2:	0108d893          	srli	a7,a7,0x10
        asm volatile (".insn r 0x0b, 0x1, 41, %[dst], %[src], %[src2]\r\n" : [dst] "=r" (val1)  : [src] "r" (buf[pos + 1]), [src2] "r" (buf[pos + 2]) :  );
    1af6:	5267978b          	0x5267978b
    1afa:	01079313          	slli	t1,a5,0x10
    1afe:	01035313          	srli	t1,t1,0x10
        if (val0 < KYBER_Q) {
    1b02:	011e6c63          	bltu	t3,a7,1b1a <rej_uniform+0x4c>
            r[ctr++] = val0;
    1b06:	00181893          	slli	a7,a6,0x1
    1b0a:	98fa                	add	a7,a7,t5
    1b0c:	00180513          	addi	a0,a6,1
    1b10:	00e89023          	sh	a4,0(a7)
        if (ctr < len && val1 < KYBER_Q) {
    1b14:	02b56463          	bltu	a0,a1,1b3c <rej_uniform+0x6e>
}
    1b18:	8082                	ret
        if (ctr < len && val1 < KYBER_Q) {
    1b1a:	006e6863          	bltu	t3,t1,1b2a <rej_uniform+0x5c>
            r[ctr++] = val1;
    1b1e:	00181713          	slli	a4,a6,0x1
    1b22:	977a                	add	a4,a4,t5
    1b24:	00f71023          	sh	a5,0(a4)
    1b28:	0805                	addi	a6,a6,1
    while (ctr < len && pos + 3 <= buflen) {
    1b2a:	00b87763          	bgeu	a6,a1,1b38 <rej_uniform+0x6a>
    1b2e:	060d                	addi	a2,a2,3
    1b30:	00ce87b3          	add	a5,t4,a2
    1b34:	faf6f5e3          	bgeu	a3,a5,1ade <rej_uniform+0x10>
    1b38:	8542                	mv	a0,a6
    return ctr;
    1b3a:	8082                	ret
        if (ctr < len && val1 < KYBER_Q) {
    1b3c:	882a                	mv	a6,a0
    1b3e:	fe6e70e3          	bgeu	t3,t1,1b1e <rej_uniform+0x50>
    1b42:	b7f5                	j	1b2e <rej_uniform+0x60>

00001b44 <randombytes>:
            out[i] ^= t[i + 4];
        }
    }
}

void randombytes(uint8_t *buf, size_t xlen) {
    1b44:	7159                	addi	sp,sp,-112
    1b46:	00b50733          	add	a4,a0,a1
    1b4a:	c03a                	sw	a4,0(sp)
    1b4c:	00080737          	lui	a4,0x80
    1b50:	2c070713          	addi	a4,a4,704 # 802c0 <seed>
    1b54:	c6e6                	sw	s9,76(sp)
    1b56:	c63a                	sw	a4,12(sp)
    while (xlen > 0) {
        if (!outleft) {
    1b58:	00080cb7          	lui	s9,0x80
    1b5c:	1c886737          	lui	a4,0x1c886
    1b60:	47070713          	addi	a4,a4,1136 # 1c886470 <_sp+0x1c7a5cc0>
    1b64:	5a4c8c93          	addi	s9,s9,1444 # 805a4 <outleft>
    1b68:	c23a                	sw	a4,4(sp)
    1b6a:	000ca783          	lw	a5,0(s9)
    for (loop = 0; loop < 2; ++loop) {
    1b6e:	aa66d737          	lui	a4,0xaa66d
void randombytes(uint8_t *buf, size_t xlen) {
    1b72:	d0d2                	sw	s4,96(sp)
    1b74:	ced6                	sw	s5,92(sp)
    1b76:	ccda                	sw	s6,88(sp)
    1b78:	c4ea                	sw	s10,72(sp)
    1b7a:	00080b37          	lui	s6,0x80
            if (!++in[0]) {
    1b7e:	00080d37          	lui	s10,0x80
    1b82:	00080ab7          	lui	s5,0x80
            sum += 0x9e3779b9;
    1b86:	9e378a37          	lui	s4,0x9e378
    for (loop = 0; loop < 2; ++loop) {
    1b8a:	2b070713          	addi	a4,a4,688 # aa66d2b0 <_sp+0xaa58cb00>
void randombytes(uint8_t *buf, size_t xlen) {
    1b8e:	cade                	sw	s7,84(sp)
    1b90:	c8e2                	sw	s8,80(sp)
    1b92:	c2ee                	sw	s11,68(sp)
    1b94:	d6a6                	sw	s1,108(sp)
    1b96:	d4ca                	sw	s2,104(sp)
    1b98:	d2ce                	sw	s3,100(sp)
    1b9a:	8c2a                	mv	s8,a0
    while (xlen > 0) {
    1b9c:	6f8b0b13          	addi	s6,s6,1784 # 806f8 <out>
            if (!++in[0]) {
    1ba0:	6c8d0d13          	addi	s10,s10,1736 # 806c8 <in>
    1ba4:	04010b93          	addi	s7,sp,64
        out[i] = seed[24 + i];
    1ba8:	4d8d                	li	s11,3
    1baa:	718a8a93          	addi	s5,s5,1816 # 80718 <_global_atexit0>
            sum += 0x9e3779b9;
    1bae:	9b9a0a13          	addi	s4,s4,-1607 # 9e3779b9 <_sp+0x9e297209>
    for (loop = 0; loop < 2; ++loop) {
    1bb2:	c43a                	sw	a4,8(sp)
        if (!outleft) {
    1bb4:	cb9d                	beqz	a5,1bea <randombytes+0xa6>
                }
            }
            surf();
            outleft = 8;
        }
        *buf = (uint8_t) out[--outleft];
    1bb6:	17fd                	addi	a5,a5,-1
    1bb8:	00279713          	slli	a4,a5,0x2
    1bbc:	975a                	add	a4,a4,s6
    1bbe:	4318                	lw	a4,0(a4)
        ++buf;
    1bc0:	0c05                	addi	s8,s8,1
        *buf = (uint8_t) out[--outleft];
    1bc2:	00fca023          	sw	a5,0(s9)
    1bc6:	feec0fa3          	sb	a4,-1(s8)
    while (xlen > 0) {
    1bca:	4702                	lw	a4,0(sp)
    1bcc:	feec14e3          	bne	s8,a4,1bb4 <randombytes+0x70>
        --xlen;
    }
}
    1bd0:	54b6                	lw	s1,108(sp)
    1bd2:	5926                	lw	s2,104(sp)
    1bd4:	5996                	lw	s3,100(sp)
    1bd6:	5a06                	lw	s4,96(sp)
    1bd8:	4af6                	lw	s5,92(sp)
    1bda:	4b66                	lw	s6,88(sp)
    1bdc:	4bd6                	lw	s7,84(sp)
    1bde:	4c46                	lw	s8,80(sp)
    1be0:	4cb6                	lw	s9,76(sp)
    1be2:	4d26                	lw	s10,72(sp)
    1be4:	4d96                	lw	s11,68(sp)
    1be6:	6165                	addi	sp,sp,112
    1be8:	8082                	ret
            if (!++in[0]) {
    1bea:	000d2783          	lw	a5,0(s10)
    1bee:	0785                	addi	a5,a5,1
    1bf0:	00fd2023          	sw	a5,0(s10)
    1bf4:	e395                	bnez	a5,1c18 <randombytes+0xd4>
                if (!++in[1]) {
    1bf6:	004d2703          	lw	a4,4(s10)
    1bfa:	0705                	addi	a4,a4,1
    1bfc:	00ed2223          	sw	a4,4(s10)
    1c00:	ef01                	bnez	a4,1c18 <randombytes+0xd4>
                    if (!++in[2]) {
    1c02:	008d2703          	lw	a4,8(s10)
    1c06:	0705                	addi	a4,a4,1
    1c08:	00ed2423          	sw	a4,8(s10)
    1c0c:	e711                	bnez	a4,1c18 <randombytes+0xd4>
                        ++in[3];
    1c0e:	00cd2703          	lw	a4,12(s10)
    1c12:	0705                	addi	a4,a4,1
    1c14:	00ed2623          	sw	a4,12(s10)
    1c18:	4732                	lw	a4,12(sp)
    1c1a:	004d0613          	addi	a2,s10,4
void randombytes(uint8_t *buf, size_t xlen) {
    1c1e:	45a5                	li	a1,9
    1c20:	03470693          	addi	a3,a4,52
    1c24:	0818                	addi	a4,sp,16
    1c26:	a029                	j	1c30 <randombytes+0xec>
        t[i] = in[i] ^ seed[12 + i];
    1c28:	421c                	lw	a5,0(a2)
    1c2a:	428c                	lw	a1,0(a3)
    1c2c:	0611                	addi	a2,a2,4
    1c2e:	0691                	addi	a3,a3,4
    1c30:	8fad                	xor	a5,a5,a1
    1c32:	c31c                	sw	a5,0(a4)
    for (i = 0; i < 12; ++i) {
    1c34:	0711                	addi	a4,a4,4
    1c36:	feeb99e3          	bne	s7,a4,1c28 <randombytes+0xe4>
        out[i] = seed[24 + i];
    1c3a:	47a1                	li	a5,8
    1c3c:	00fb2423          	sw	a5,8(s6)
    1c40:	4789                	li	a5,2
    1c42:	00fb2823          	sw	a5,16(s6)
    1c46:	479d                	li	a5,7
    1c48:	00fb2a23          	sw	a5,20(s6)
    1c4c:	47a5                	li	a5,9
    1c4e:	00fb2c23          	sw	a5,24(s6)
    x = t[11];
    1c52:	5e72                	lw	t3,60(sp)
        out[i] = seed[24 + i];
    1c54:	4795                	li	a5,5
    1c56:	42c2                	lw	t0,16(sp)
    1c58:	4fd2                	lw	t6,20(sp)
    1c5a:	4f62                	lw	t5,24(sp)
    1c5c:	4ef2                	lw	t4,28(sp)
    1c5e:	5362                	lw	t1,56(sp)
    1c60:	58d2                	lw	a7,52(sp)
    1c62:	5842                	lw	a6,48(sp)
    1c64:	5512                	lw	a0,36(sp)
    1c66:	55b2                	lw	a1,44(sp)
    1c68:	5622                	lw	a2,40(sp)
    1c6a:	5682                	lw	a3,32(sp)
    1c6c:	00fb2e23          	sw	a5,28(s6)
    x = t[11];
    1c70:	e377a7b7          	lui	a5,0xe377a
        out[i] = seed[24 + i];
    1c74:	01bb2023          	sw	s11,0(s6)
    1c78:	01bb2223          	sw	s11,4(s6)
    1c7c:	01bb2623          	sw	s11,12(s6)
    x = t[11];
    1c80:	b9078993          	addi	s3,a5,-1136 # e3779b90 <_sp+0xe36993e0>
    1c84:	448d                	li	s1,3
    1c86:	4792                	lw	a5,4(sp)
    1c88:	97ce                	add	a5,a5,s3
            sum += 0x9e3779b9;
    1c8a:	97d2                	add	a5,a5,s4
            MUSH(0, 5)
    1c8c:	01be5913          	srli	s2,t3,0x1b
    1c90:	003e4713          	xori	a4,t3,3
    1c94:	005e1393          	slli	t2,t3,0x5
    1c98:	0123e3b3          	or	t2,t2,s2
    1c9c:	973e                	add	a4,a4,a5
    1c9e:	00774733          	xor	a4,a4,t2
    1ca2:	92ba                	add	t0,t0,a4
            MUSH(1, 7)
    1ca4:	0192d913          	srli	s2,t0,0x19
    1ca8:	0012c713          	xori	a4,t0,1
    1cac:	00729393          	slli	t2,t0,0x7
    1cb0:	0123e3b3          	or	t2,t2,s2
    1cb4:	973e                	add	a4,a4,a5
    1cb6:	00774733          	xor	a4,a4,t2
    1cba:	9fba                	add	t6,t6,a4
            MUSH(2, 9)
    1cbc:	017fd913          	srli	s2,t6,0x17
    1cc0:	004fc713          	xori	a4,t6,4
    1cc4:	009f9393          	slli	t2,t6,0x9
    1cc8:	0123e3b3          	or	t2,t2,s2
    1ccc:	973e                	add	a4,a4,a5
    1cce:	00774733          	xor	a4,a4,t2
    1cd2:	9f3a                	add	t5,t5,a4
            MUSH(3, 13)
    1cd4:	013f5913          	srli	s2,t5,0x13
    1cd8:	001f4713          	xori	a4,t5,1
    1cdc:	00df1393          	slli	t2,t5,0xd
    1ce0:	0123e3b3          	or	t2,t2,s2
    1ce4:	973e                	add	a4,a4,a5
    1ce6:	00774733          	xor	a4,a4,t2
    1cea:	9eba                	add	t4,t4,a4
            MUSH(4, 5)
    1cec:	01bed913          	srli	s2,t4,0x1b
    1cf0:	005ec713          	xori	a4,t4,5
    1cf4:	005e9393          	slli	t2,t4,0x5
    1cf8:	0123e3b3          	or	t2,t2,s2
    1cfc:	973e                	add	a4,a4,a5
    1cfe:	00774733          	xor	a4,a4,t2
    1d02:	96ba                	add	a3,a3,a4
            MUSH(5, 7)
    1d04:	0196d913          	srli	s2,a3,0x19
    1d08:	0096c713          	xori	a4,a3,9
    1d0c:	00769393          	slli	t2,a3,0x7
    1d10:	0123e3b3          	or	t2,t2,s2
    1d14:	973e                	add	a4,a4,a5
    1d16:	00774733          	xor	a4,a4,t2
    1d1a:	953a                	add	a0,a0,a4
            MUSH(6, 9)
    1d1c:	01755913          	srli	s2,a0,0x17
    1d20:	00254713          	xori	a4,a0,2
    1d24:	00951393          	slli	t2,a0,0x9
    1d28:	0123e3b3          	or	t2,t2,s2
    1d2c:	973e                	add	a4,a4,a5
    1d2e:	00774733          	xor	a4,a4,t2
    1d32:	963a                	add	a2,a2,a4
            MUSH(7, 13)
    1d34:	01365913          	srli	s2,a2,0x13
    1d38:	00664713          	xori	a4,a2,6
    1d3c:	00d61393          	slli	t2,a2,0xd
    1d40:	0123e3b3          	or	t2,t2,s2
    1d44:	973e                	add	a4,a4,a5
    1d46:	00774733          	xor	a4,a4,t2
    1d4a:	95ba                	add	a1,a1,a4
            MUSH(8, 5)
    1d4c:	01b5d913          	srli	s2,a1,0x1b
    1d50:	0055c713          	xori	a4,a1,5
    1d54:	00559393          	slli	t2,a1,0x5
    1d58:	0123e3b3          	or	t2,t2,s2
    1d5c:	973e                	add	a4,a4,a5
    1d5e:	00774733          	xor	a4,a4,t2
    1d62:	983a                	add	a6,a6,a4
            MUSH(9, 7)
    1d64:	01985913          	srli	s2,a6,0x19
    1d68:	00384713          	xori	a4,a6,3
    1d6c:	00781393          	slli	t2,a6,0x7
    1d70:	0123e3b3          	or	t2,t2,s2
    1d74:	973e                	add	a4,a4,a5
    1d76:	00774733          	xor	a4,a4,t2
    1d7a:	98ba                	add	a7,a7,a4
            MUSH(10, 9)
    1d7c:	0178d913          	srli	s2,a7,0x17
    1d80:	0058c713          	xori	a4,a7,5
    1d84:	00989393          	slli	t2,a7,0x9
    1d88:	0123e3b3          	or	t2,t2,s2
    1d8c:	973e                	add	a4,a4,a5
    1d8e:	00774733          	xor	a4,a4,t2
    1d92:	933a                	add	t1,t1,a4
            MUSH(11, 13)
    1d94:	00834713          	xori	a4,t1,8
    1d98:	00d31393          	slli	t2,t1,0xd
    1d9c:	01335913          	srli	s2,t1,0x13
    1da0:	973e                	add	a4,a4,a5
    1da2:	0123e3b3          	or	t2,t2,s2
    1da6:	00774733          	xor	a4,a4,t2
    1daa:	9e3a                	add	t3,t3,a4
        for (r = 0; r < 16; ++r) {
    1dac:	ed379fe3          	bne	a5,s3,1c8a <randombytes+0x146>
    1db0:	d036                	sw	a3,32(sp)
    1db2:	d22a                	sw	a0,36(sp)
    1db4:	d432                	sw	a2,40(sp)
    1db6:	d62e                	sw	a1,44(sp)
    1db8:	d842                	sw	a6,48(sp)
    1dba:	da46                	sw	a7,52(sp)
    1dbc:	dc1a                	sw	t1,56(sp)
    1dbe:	de72                	sw	t3,60(sp)
    1dc0:	87da                	mv	a5,s6
    1dc2:	01010393          	addi	t2,sp,16
            MUSH(4, 5)
    1dc6:	8736                	mv	a4,a3
    1dc8:	a021                	j	1dd0 <randombytes+0x28c>
            out[i] ^= t[i + 4];
    1dca:	4384                	lw	s1,0(a5)
    1dcc:	0103a703          	lw	a4,16(t2)
    1dd0:	8f25                	xor	a4,a4,s1
    1dd2:	c398                	sw	a4,0(a5)
        for (i = 0; i < 8; ++i) {
    1dd4:	0791                	addi	a5,a5,4
    1dd6:	0391                	addi	t2,t2,4
    1dd8:	fefa99e3          	bne	s5,a5,1dca <randombytes+0x286>
    for (loop = 0; loop < 2; ++loop) {
    1ddc:	e377a7b7          	lui	a5,0xe377a
    1de0:	b9078793          	addi	a5,a5,-1136 # e3779b90 <_sp+0xe36993e0>
    1de4:	99be                	add	s3,s3,a5
    1de6:	47a2                	lw	a5,8(sp)
    1de8:	00f98563          	beq	s3,a5,1df2 <randombytes+0x2ae>
            out[i] ^= t[i + 4];
    1dec:	000b2483          	lw	s1,0(s6)
    1df0:	bd59                	j	1c86 <randombytes+0x142>
            outleft = 8;
    1df2:	479d                	li	a5,7
    1df4:	b3d1                	j	1bb8 <randombytes+0x74>

00001df6 <dma_load_transaction.constprop.0.isra.0>:
    dma_cb.trans = p_trans;
    1df6:	000807b7          	lui	a5,0x80
    1dfa:	5bc78793          	addi	a5,a5,1468 # 805bc <dma_cb>
    dma_cb.peri->INTERRUPT_EN |= INTR_EN_TRANS_DONE;
    1dfe:	4794                	lw	a3,8(a5)
    dma_cb.peri->SRC_PTR = dma_cb.trans->src->ptr;
    1e00:	00052803          	lw	a6,0(a0)
    dma_cb.peri->DST_PTR = dma_cb.trans->dst->ptr;
    1e04:	00452e83          	lw	t4,4(a0)
    peri_ptr[index] &= ~(DMA_PTR_INC_SRC_PTR_INC_MASK);
    1e08:	4ad8                	lw	a4,20(a3)
    dma_cb.peri->INTERRUPT_EN |= INTR_EN_TRANS_DONE;
    1e0a:	56d0                	lw	a2,44(a3)
    dma_cb.peri->SRC_PTR = dma_cb.trans->src->ptr;
    1e0c:	00482e03          	lw	t3,4(a6)
    peri_ptr[index] &= ~(DMA_PTR_INC_SRC_PTR_INC_MASK);
    1e10:	f0077713          	andi	a4,a4,-256
    dma_cb.peri->DST_PTR = dma_cb.trans->dst->ptr;
    1e14:	004ea303          	lw	t1,4(t4)
    peri_ptr[index] &= ~(DMA_PTR_INC_SRC_PTR_INC_MASK);
    1e18:	cad8                	sw	a4,20(a3)


uint32_t get_increment_b( dma_target_t * p_tgt )
{
    uint32_t inc_b = 0;
    if(  p_tgt->trig  == DMA_TRIG_MEMORY )
    1e1a:	01482883          	lw	a7,20(a6)
    dma_cb.peri->INTERRUPT_EN |= INTR_EN_TRANS_DONE;
    1e1e:	00166613          	ori	a2,a2,1
    dma_cb.trans = p_trans;
    1e22:	c388                	sw	a0,0(a5)
    dma_cb.peri->INTERRUPT_EN |= INTR_EN_TRANS_DONE;
    1e24:	d6d0                	sw	a2,44(a3)
    dma_cb.peri->SRC_PTR = dma_cb.trans->src->ptr;
    1e26:	01c6a023          	sw	t3,0(a3)
    dma_cb.peri->DST_PTR = dma_cb.trans->dst->ptr;
    1e2a:	0066a223          	sw	t1,4(a3)
    uint32_t inc_b = 0;
    1e2e:	4781                	li	a5,0
    if(  p_tgt->trig  == DMA_TRIG_MEMORY )
    1e30:	00089b63          	bnez	a7,1e46 <dma_load_transaction.constprop.0.isra.0+0x50>
    {
        /* If the transaction increment has been overriden (due to misalignments), then that value is used (it's always set to 1). */
        inc_b = dma_cb.trans->inc_b;
        
        uint8_t dataSize_b = DMA_DATA_TYPE_2_SIZE( dma_cb.trans->type );
    1e34:	01452883          	lw	a7,20(a0)
        inc_b = ( p_tgt->inc_du * dataSize_b );
    1e38:	00885603          	lhu	a2,8(a6)
        uint8_t dataSize_b = DMA_DATA_TYPE_2_SIZE( dma_cb.trans->type );
    1e3c:	4791                	li	a5,4
    1e3e:	4117d7b3          	sra	a5,a5,a7
        inc_b = ( p_tgt->inc_du * dataSize_b );
    1e42:	02c787b3          	mul	a5,a5,a2
    peri_ptr[index] |= (get_increment_b( dma_cb.trans->src ) & DMA_PTR_INC_SRC_PTR_INC_MASK);
    1e46:	0ff7f793          	zext.b	a5,a5
    1e4a:	8fd9                	or	a5,a5,a4
    peri_ptr[index] &= ~(DMA_PTR_INC_DST_PTR_INC_MASK << 8);
    1e4c:	7741                	lui	a4,0xffff0
    1e4e:	0ff70713          	addi	a4,a4,255 # ffff00ff <_sp+0xfff0f94f>
    1e52:	8ff9                	and	a5,a5,a4
    1e54:	cadc                	sw	a5,20(a3)
    if(  p_tgt->trig  == DMA_TRIG_MEMORY )
    1e56:	014ea603          	lw	a2,20(t4)
    uint32_t inc_b = 0;
    1e5a:	4701                	li	a4,0
    if(  p_tgt->trig  == DMA_TRIG_MEMORY )
    1e5c:	ea09                	bnez	a2,1e6e <dma_load_transaction.constprop.0.isra.0+0x78>
        uint8_t dataSize_b = DMA_DATA_TYPE_2_SIZE( dma_cb.trans->type );
    1e5e:	4948                	lw	a0,20(a0)
        inc_b = ( p_tgt->inc_du * dataSize_b );
    1e60:	008ed603          	lhu	a2,8(t4)
        uint8_t dataSize_b = DMA_DATA_TYPE_2_SIZE( dma_cb.trans->type );
    1e64:	4711                	li	a4,4
    1e66:	40a75733          	sra	a4,a4,a0
        inc_b = ( p_tgt->inc_du * dataSize_b );
    1e6a:	02c70733          	mul	a4,a4,a2
    peri_ptr[index] |= (get_increment_b( dma_cb.trans->dst ) & DMA_PTR_INC_DST_PTR_INC_MASK) << 8;
    1e6e:	6641                	lui	a2,0x10
    1e70:	0722                	slli	a4,a4,0x8
    1e72:	167d                	addi	a2,a2,-1
    1e74:	8f71                	and	a4,a4,a2
    1e76:	8f5d                	or	a4,a4,a5
    1e78:	cad8                	sw	a4,20(a3)
    dma_cb.peri->SIZE = size;
    1e7a:	c6cc                	sw	a1,12(a3)
}
    1e7c:	8082                	ret

00001e7e <ntt_driver>:
#include "stdasm.h"



void ntt_driver(uint32_t* Din, uint32_t* Dout)
{
    1e7e:	7131                	addi	sp,sp,-192
    1e80:	db4a                	sw	s2,180(sp)
    uint32_t volatile *ctrl_reg = (uint32_t*)ATHOS_IP_CTRL_START_ADDR;
    uint32_t volatile *Dout_reg_start = (uint32_t*)ATHOS_IP_DOUT_START_ADDR;
    dma_config_flags_t res;

    //Needed to be reset for the new-interrupt
    plic_intr_flag = 0;
    1e82:	00080937          	lui	s2,0x80
    //Define the src of DMA transaction
    uint32_t* ext_addr_4B_PTR = (uint32_t*)ATHOS_IP_DIN_START_ADDR;
  
    //dma_init(NULL);
    *ctrl_reg = (1 << ATHOS_IP_CTRL_CTRL_C1_BIT) | (2 << ATHOS_IP_CTRL_CTRL_OPERATION_OFFSET);
    1e86:	6785                	lui	a5,0x1
    plic_intr_flag = 0;
    1e88:	5a890913          	addi	s2,s2,1448 # 805a8 <plic_intr_flag>
{
    1e8c:	dd26                	sw	s1,184(sp)
    1e8e:	d94e                	sw	s3,176(sp)
    *ctrl_reg = (1 << ATHOS_IP_CTRL_CTRL_C1_BIT) | (2 << ATHOS_IP_CTRL_CTRL_OPERATION_OFFSET);
    1e90:	80278693          	addi	a3,a5,-2046 # 802 <main+0x5ec>
{
    1e94:	df06                	sw	ra,188(sp)
    plic_intr_flag = 0;
    1e96:	00090023          	sb	zero,0(s2)
    *ctrl_reg = (1 << ATHOS_IP_CTRL_CTRL_C1_BIT) | (2 << ATHOS_IP_CTRL_CTRL_OPERATION_OFFSET);
    1e9a:	20080737          	lui	a4,0x20080
    1e9e:	c314                	sw	a3,0(a4)
    *ctrl_reg = (0 << ATHOS_IP_CTRL_CTRL_C1_BIT) | (2 << ATHOS_IP_CTRL_CTRL_OPERATION_OFFSET);
    1ea0:	80078793          	addi	a5,a5,-2048
    1ea4:	c31c                	sw	a5,0(a4)
{
    1ea6:	872a                	mv	a4,a0

    //Define transaction parameter
    dma_target_t tgt_src = {
    1ea8:	c6ba                	sw	a4,76(sp)
                                .ptr        = Din,
                                .inc_du     = 1,
                                .trig       = DMA_TRIG_MEMORY,
                                .type       = DMA_DATA_TYPE_WORD,
                                };
    dma_target_t tgt_dst = {
    1eaa:	f0000737          	lui	a4,0xf0000
    1eae:	da3a                	sw	a4,52(sp)
                                .ptr        = ext_addr_4B_PTR,
                                };
    dma_trans_t trans = {
    1eb0:	00b8                	addi	a4,sp,72
    dma_target_t tgt_src = {
    1eb2:	4785                	li	a5,1
    1eb4:	c882                	sw	zero,80(sp)
    dma_trans_t trans = {
    1eb6:	c53a                	sw	a4,136(sp)
{
    1eb8:	89ae                	mv	s3,a1
    dma_trans_t trans = {
    1eba:	1818                	addi	a4,sp,48
                                .dst        = &tgt_dst,
                                .mode       = DMA_TRANS_MODE_SINGLE,
                                .win_du     = 0,
                                .end        = DMA_TRANS_END_INTR,
                                };
    res = dma_load_transaction(&trans, 1024); //4,0
    1ebc:	40000593          	li	a1,1024
    1ec0:	0128                	addi	a0,sp,136
    return (dma_cb.peri->STATUS & (1U << DMA_STATUS_READY_BIT));
    1ec2:	000804b7          	lui	s1,0x80
    dma_target_t tgt_src = {
    1ec6:	04f11823          	sh	a5,80(sp)
    dma_trans_t trans = {
    1eca:	c73a                	sw	a4,140(sp)
    1ecc:	d53e                	sw	a5,168(sp)
    dma_target_t tgt_src = {
    1ece:	c482                	sw	zero,72(sp)
    1ed0:	ca82                	sw	zero,84(sp)
    1ed2:	cc82                	sw	zero,88(sp)
    1ed4:	ce82                	sw	zero,92(sp)
    dma_target_t tgt_dst = {
    1ed6:	d802                	sw	zero,48(sp)
    1ed8:	dc02                	sw	zero,56(sp)
    1eda:	de02                	sw	zero,60(sp)
    1edc:	c082                	sw	zero,64(sp)
    1ede:	c282                	sw	zero,68(sp)
    dma_trans_t trans = {
    1ee0:	c902                	sw	zero,144(sp)
    1ee2:	cb02                	sw	zero,148(sp)
    1ee4:	cd02                	sw	zero,152(sp)
    1ee6:	cf02                	sw	zero,156(sp)
    1ee8:	d102                	sw	zero,160(sp)
    1eea:	d302                	sw	zero,164(sp)
    1eec:	d702                	sw	zero,172(sp)
    1eee:	5bc48493          	addi	s1,s1,1468 # 805bc <dma_cb>
    res = dma_load_transaction(&trans, 1024); //4,0
    1ef2:	3711                	jal	1df6 <dma_load_transaction.constprop.0.isra.0>
    1ef4:	449c                	lw	a5,8(s1)
 
    //Wait for the DMA transaction to finish
    do{
        CSR_SET_BITS(CSR_REG_MSTATUS, 0x0);
    1ef6:	4701                	li	a4,0
        if ( dma_is_ready() == 0 ) {
            wait_for_interrupt();
        }
        CSR_SET_BITS(CSR_REG_MSTATUS, 0x8);
    1ef8:	46a1                	li	a3,8
    1efa:	4b9c                	lw	a5,16(a5)
    1efc:	8b85                	andi	a5,a5,1
        CSR_SET_BITS(CSR_REG_MSTATUS, 0x0);
    1efe:	30072073          	csrs	mstatus,a4
        if ( dma_is_ready() == 0 ) {
    1f02:	c3cd                	beqz	a5,1fa4 <ntt_driver+0x126>
        CSR_SET_BITS(CSR_REG_MSTATUS, 0x8);
    1f04:	47a1                	li	a5,8
    1f06:	3007a073          	csrs	mstatus,a5
    }
    while( !dma_is_ready());

    //Start IP execution
    *ctrl_reg = (1 << ATHOS_IP_CTRL_CTRL_C0_BIT) | (2 << ATHOS_IP_CTRL_CTRL_OPERATION_OFFSET);
    1f0a:	6785                	lui	a5,0x1
    1f0c:	20080737          	lui	a4,0x20080
    1f10:	80178693          	addi	a3,a5,-2047 # 801 <main+0x5eb>
    1f14:	c314                	sw	a3,0(a4)
    *ctrl_reg = (0 << ATHOS_IP_CTRL_CTRL_C0_BIT) | (2 << ATHOS_IP_CTRL_CTRL_OPERATION_OFFSET);
    1f16:	80078793          	addi	a5,a5,-2048
    1f1a:	c31c                	sw	a5,0(a4)

    //Wait for IP interrupt
    while(plic_intr_flag==0) {
    1f1c:	00094783          	lbu	a5,0(s2)
    1f20:	e791                	bnez	a5,1f2c <ntt_driver+0xae>
 * Hints to the processor that we don't have anything better to be doing, and to
 * go into low-power mode until an interrupt is serviced.
 *
 * This function may behave as if it is a no-op.
 */
inline void wait_for_interrupt(void) { asm volatile("wfi"); }
    1f22:	10500073          	wfi
    1f26:	00094783          	lbu	a5,0(s2)
    1f2a:	dfe5                	beqz	a5,1f22 <ntt_driver+0xa4>
        wait_for_interrupt();
    }

    //Read the output of the IP
    *ctrl_reg = (1 << ATHOS_IP_CTRL_CTRL_C5_BIT) | (2 << ATHOS_IP_CTRL_CTRL_OPERATION_OFFSET);
    1f2c:	6785                	lui	a5,0x1
    1f2e:	82078693          	addi	a3,a5,-2016 # 820 <main+0x60a>
    1f32:	20080737          	lui	a4,0x20080
    1f36:	c314                	sw	a3,0(a4)
    *ctrl_reg = (0 << ATHOS_IP_CTRL_CTRL_C5_BIT) | (2 << ATHOS_IP_CTRL_CTRL_OPERATION_OFFSET);
    1f38:	80078793          	addi	a5,a5,-2048
    1f3c:	c31c                	sw	a5,0(a4)
  
    //Define the src of the second DMA transaction
    ext_addr_4B_PTR = (uint32_t*)ATHOS_IP_DOUT_START_ADDR;
    dma_target_t tgt_src2 = {
    1f3e:	f00007b7          	lui	a5,0xf0000
    1f42:	0c878793          	addi	a5,a5,200 # f00000c8 <_sp+0xeff1f918>
                                .ptr        = ext_addr_4B_PTR,
                                .trig       = DMA_TRIG_MEMORY,
                                .type       = DMA_DATA_TYPE_WORD,
                              };    
    dma_target_t tgt_dst2 = {
    1f46:	4705                	li	a4,1
    1f48:	c402                	sw	zero,8(sp)
    dma_target_t tgt_src2 = {
    1f4a:	ce3e                	sw	a5,28(sp)
                                .dst        = &tgt_dst2,
                                .mode       = DMA_TRANS_MODE_SINGLE,
                                .win_du     = 0,
                                .end        = DMA_TRANS_END_INTR,
                                };
    res = dma_load_transaction(&trans2, 512); //0,4
    1f4c:	20000593          	li	a1,512
    dma_trans_t trans2 = {
    1f50:	083c                	addi	a5,sp,24
    res = dma_load_transaction(&trans2, 512); //0,4
    1f52:	1088                	addi	a0,sp,96
    dma_target_t tgt_dst2 = {
    1f54:	00e11423          	sh	a4,8(sp)
    dma_trans_t trans2 = {
    1f58:	d0be                	sw	a5,96(sp)
    1f5a:	c13a                	sw	a4,128(sp)
    dma_target_t tgt_src2 = {
    1f5c:	cc02                	sw	zero,24(sp)
    1f5e:	d002                	sw	zero,32(sp)
    1f60:	d202                	sw	zero,36(sp)
    1f62:	d402                	sw	zero,40(sp)
    1f64:	d602                	sw	zero,44(sp)
    dma_target_t tgt_dst2 = {
    1f66:	c002                	sw	zero,0(sp)
    1f68:	c602                	sw	zero,12(sp)
    1f6a:	c802                	sw	zero,16(sp)
    1f6c:	ca02                	sw	zero,20(sp)
    1f6e:	c24e                	sw	s3,4(sp)
    dma_trans_t trans2 = {
    1f70:	d482                	sw	zero,104(sp)
    1f72:	d682                	sw	zero,108(sp)
    1f74:	d882                	sw	zero,112(sp)
    1f76:	da82                	sw	zero,116(sp)
    1f78:	dc82                	sw	zero,120(sp)
    1f7a:	de82                	sw	zero,124(sp)
    1f7c:	c302                	sw	zero,132(sp)
    1f7e:	d28a                	sw	sp,100(sp)
    res = dma_load_transaction(&trans2, 512); //0,4
    1f80:	3d9d                	jal	1df6 <dma_load_transaction.constprop.0.isra.0>
    1f82:	449c                	lw	a5,8(s1)

    //Wait for the DMA transaction to finish
    do{
        CSR_SET_BITS(CSR_REG_MSTATUS, 0x0);
    1f84:	4701                	li	a4,0
        if ( dma_is_ready() == 0 ) {
            wait_for_interrupt();
        }
        CSR_SET_BITS(CSR_REG_MSTATUS, 0x8);
    1f86:	46a1                	li	a3,8
    1f88:	4b9c                	lw	a5,16(a5)
    1f8a:	8b85                	andi	a5,a5,1
        CSR_SET_BITS(CSR_REG_MSTATUS, 0x0);
    1f8c:	30072073          	csrs	mstatus,a4
        if ( dma_is_ready() == 0 ) {
    1f90:	c39d                	beqz	a5,1fb6 <ntt_driver+0x138>
        CSR_SET_BITS(CSR_REG_MSTATUS, 0x8);
    1f92:	47a1                	li	a5,8
    1f94:	3007a073          	csrs	mstatus,a5
    }
    while( ! dma_is_ready());

}
    1f98:	50fa                	lw	ra,188(sp)
    1f9a:	54ea                	lw	s1,184(sp)
    1f9c:	595a                	lw	s2,180(sp)
    1f9e:	59ca                	lw	s3,176(sp)
    1fa0:	6129                	addi	sp,sp,192
    1fa2:	8082                	ret
    1fa4:	10500073          	wfi
    1fa8:	449c                	lw	a5,8(s1)
    1faa:	4b9c                	lw	a5,16(a5)
        CSR_SET_BITS(CSR_REG_MSTATUS, 0x8);
    1fac:	3006a073          	csrs	mstatus,a3
    1fb0:	8b85                	andi	a5,a5,1
    while( !dma_is_ready());
    1fb2:	d7b1                	beqz	a5,1efe <ntt_driver+0x80>
    1fb4:	bf99                	j	1f0a <ntt_driver+0x8c>
    1fb6:	10500073          	wfi
    1fba:	449c                	lw	a5,8(s1)
    1fbc:	4b9c                	lw	a5,16(a5)
        CSR_SET_BITS(CSR_REG_MSTATUS, 0x8);
    1fbe:	3006a073          	csrs	mstatus,a3
    1fc2:	8b85                	andi	a5,a5,1
    while( ! dma_is_ready());
    1fc4:	d7e1                	beqz	a5,1f8c <ntt_driver+0x10e>
    1fc6:	bfc9                	j	1f98 <ntt_driver+0x11a>

00001fc8 <intt_driver>:
#include "fast_intr_ctrl.h"
#include "stdasm.h"

 
void intt_driver(uint32_t* Din, uint32_t* Dout)
{
    1fc8:	7131                	addi	sp,sp,-192
    1fca:	db4a                	sw	s2,180(sp)
    uint32_t volatile *ctrl_reg = (uint32_t*)ATHOS_IP_CTRL_START_ADDR;
    uint32_t volatile *Dout_reg_start = (uint32_t*)ATHOS_IP_DOUT_START_ADDR;
    dma_config_flags_t res;

    //Needed to be reset for the new-interrupt
    plic_intr_flag = 0;
    1fcc:	00080937          	lui	s2,0x80
    //Define the src of DMA transaction
    uint32_t* ext_addr_4B_PTR = (uint32_t*)ATHOS_IP_DIN_START_ADDR;

    //dma_init(NULL);
    *ctrl_reg = (1 << ATHOS_IP_CTRL_CTRL_C2_BIT) | (3 << ATHOS_IP_CTRL_CTRL_OPERATION_OFFSET);
    1fd0:	6785                	lui	a5,0x1
    plic_intr_flag = 0;
    1fd2:	5a890913          	addi	s2,s2,1448 # 805a8 <plic_intr_flag>
{
    1fd6:	dd26                	sw	s1,184(sp)
    1fd8:	d94e                	sw	s3,176(sp)
    *ctrl_reg = (1 << ATHOS_IP_CTRL_CTRL_C2_BIT) | (3 << ATHOS_IP_CTRL_CTRL_OPERATION_OFFSET);
    1fda:	c0478693          	addi	a3,a5,-1020 # c04 <main+0x9ee>
{
    1fde:	df06                	sw	ra,188(sp)
    plic_intr_flag = 0;
    1fe0:	00090023          	sb	zero,0(s2)
    *ctrl_reg = (1 << ATHOS_IP_CTRL_CTRL_C2_BIT) | (3 << ATHOS_IP_CTRL_CTRL_OPERATION_OFFSET);
    1fe4:	20080737          	lui	a4,0x20080
    1fe8:	c314                	sw	a3,0(a4)
    *ctrl_reg = (0 << ATHOS_IP_CTRL_CTRL_C2_BIT) | (3 << ATHOS_IP_CTRL_CTRL_OPERATION_OFFSET);
    1fea:	c0078793          	addi	a5,a5,-1024
    1fee:	c31c                	sw	a5,0(a4)
{
    1ff0:	872a                	mv	a4,a0

    //Define transaction parameter
    dma_target_t tgt_src = {
    1ff2:	c6ba                	sw	a4,76(sp)
                                .ptr        = Din,
                                .inc_du     = 1,
                                .trig       = DMA_TRIG_MEMORY,
                                .type       = DMA_DATA_TYPE_WORD,
                                };
    dma_target_t tgt_dst = {
    1ff4:	f0000737          	lui	a4,0xf0000
    1ff8:	da3a                	sw	a4,52(sp)
                                .ptr        = ext_addr_4B_PTR,
                                };
    dma_trans_t trans = {
    1ffa:	00b8                	addi	a4,sp,72
    dma_target_t tgt_src = {
    1ffc:	4785                	li	a5,1
    1ffe:	c882                	sw	zero,80(sp)
    dma_trans_t trans = {
    2000:	c53a                	sw	a4,136(sp)
{
    2002:	89ae                	mv	s3,a1
    dma_trans_t trans = {
    2004:	1818                	addi	a4,sp,48
                                .dst        = &tgt_dst,
                                .mode       = DMA_TRANS_MODE_SINGLE,
                                .win_du     = 0,
                                .end        = DMA_TRANS_END_INTR,
                                };
    res = dma_load_transaction(&trans, 1024); //4,0
    2006:	40000593          	li	a1,1024
    200a:	0128                	addi	a0,sp,136
    200c:	000804b7          	lui	s1,0x80
    dma_target_t tgt_src = {
    2010:	04f11823          	sh	a5,80(sp)
    dma_trans_t trans = {
    2014:	c73a                	sw	a4,140(sp)
    2016:	d53e                	sw	a5,168(sp)
    dma_target_t tgt_src = {
    2018:	c482                	sw	zero,72(sp)
    201a:	ca82                	sw	zero,84(sp)
    201c:	cc82                	sw	zero,88(sp)
    201e:	ce82                	sw	zero,92(sp)
    dma_target_t tgt_dst = {
    2020:	d802                	sw	zero,48(sp)
    2022:	dc02                	sw	zero,56(sp)
    2024:	de02                	sw	zero,60(sp)
    2026:	c082                	sw	zero,64(sp)
    2028:	c282                	sw	zero,68(sp)
    dma_trans_t trans = {
    202a:	c902                	sw	zero,144(sp)
    202c:	cb02                	sw	zero,148(sp)
    202e:	cd02                	sw	zero,152(sp)
    2030:	cf02                	sw	zero,156(sp)
    2032:	d102                	sw	zero,160(sp)
    2034:	d302                	sw	zero,164(sp)
    2036:	d702                	sw	zero,172(sp)
    2038:	5bc48493          	addi	s1,s1,1468 # 805bc <dma_cb>
    res = dma_load_transaction(&trans, 1024); //4,0
    203c:	3b6d                	jal	1df6 <dma_load_transaction.constprop.0.isra.0>
    203e:	449c                	lw	a5,8(s1)
    //Wait for the DMA transaction to finish
    do {
        CSR_SET_BITS(CSR_REG_MSTATUS, 0x0);
    2040:	4701                	li	a4,0
        if ( dma_is_ready() == 0 ) {
            wait_for_interrupt();
        }
        CSR_SET_BITS(CSR_REG_MSTATUS, 0x8);
    2042:	46a1                	li	a3,8
    2044:	4b9c                	lw	a5,16(a5)
    2046:	8b85                	andi	a5,a5,1
        CSR_SET_BITS(CSR_REG_MSTATUS, 0x0);
    2048:	30072073          	csrs	mstatus,a4
        if ( dma_is_ready() == 0 ) {
    204c:	c3cd                	beqz	a5,20ee <intt_driver+0x126>
        CSR_SET_BITS(CSR_REG_MSTATUS, 0x8);
    204e:	47a1                	li	a5,8
    2050:	3007a073          	csrs	mstatus,a5
    }
    while ( ! dma_is_ready());

    //Start IP execution
    *ctrl_reg = (1 << ATHOS_IP_CTRL_CTRL_C8_BIT) | (3 << ATHOS_IP_CTRL_CTRL_OPERATION_OFFSET);
    2054:	6785                	lui	a5,0x1
    2056:	20080737          	lui	a4,0x20080
    205a:	d0078693          	addi	a3,a5,-768 # d00 <handle_ecall+0xa>
    205e:	c314                	sw	a3,0(a4)
    *ctrl_reg = (0 << ATHOS_IP_CTRL_CTRL_C8_BIT) | (3 << ATHOS_IP_CTRL_CTRL_OPERATION_OFFSET);
    2060:	c0078793          	addi	a5,a5,-1024
    2064:	c31c                	sw	a5,0(a4)

    // Wait for IP interrupt
    while(plic_intr_flag==0) {
    2066:	00094783          	lbu	a5,0(s2)
    206a:	e791                	bnez	a5,2076 <intt_driver+0xae>
    206c:	10500073          	wfi
    2070:	00094783          	lbu	a5,0(s2)
    2074:	dfe5                	beqz	a5,206c <intt_driver+0xa4>
        wait_for_interrupt();
    }

    //Read the output of the IP
    *ctrl_reg = (1 << ATHOS_IP_CTRL_CTRL_C5_BIT) | (3 << ATHOS_IP_CTRL_CTRL_OPERATION_OFFSET);
    2076:	6785                	lui	a5,0x1
    2078:	c2078693          	addi	a3,a5,-992 # c20 <main+0xa0a>
    207c:	20080737          	lui	a4,0x20080
    2080:	c314                	sw	a3,0(a4)
    *ctrl_reg = (0 << ATHOS_IP_CTRL_CTRL_C5_BIT) | (3 << ATHOS_IP_CTRL_CTRL_OPERATION_OFFSET);
    2082:	c0078793          	addi	a5,a5,-1024
    2086:	c31c                	sw	a5,0(a4)
    
    //Define the src of the second DMA transaction
    ext_addr_4B_PTR = (uint32_t*)ATHOS_IP_DOUT_START_ADDR;
    dma_target_t tgt_src2 = {
    2088:	f00007b7          	lui	a5,0xf0000
    208c:	0c878793          	addi	a5,a5,200 # f00000c8 <_sp+0xeff1f918>
                                .ptr        = ext_addr_4B_PTR,
                                .trig       = DMA_TRIG_MEMORY,
                                .type       = DMA_DATA_TYPE_WORD,
                              };      
    dma_target_t tgt_dst2 = {
    2090:	4705                	li	a4,1
    2092:	c402                	sw	zero,8(sp)
    dma_target_t tgt_src2 = {
    2094:	ce3e                	sw	a5,28(sp)
                                .dst        = &tgt_dst2,
                                .mode       = DMA_TRANS_MODE_SINGLE,
                                .win_du     = 0,
                                .end        = DMA_TRANS_END_INTR,
                                };
    res = dma_load_transaction(&trans2, 512); //0,4
    2096:	20000593          	li	a1,512
    dma_trans_t trans2 = {
    209a:	083c                	addi	a5,sp,24
    res = dma_load_transaction(&trans2, 512); //0,4
    209c:	1088                	addi	a0,sp,96
    dma_target_t tgt_dst2 = {
    209e:	00e11423          	sh	a4,8(sp)
    dma_trans_t trans2 = {
    20a2:	d0be                	sw	a5,96(sp)
    20a4:	c13a                	sw	a4,128(sp)
    dma_target_t tgt_src2 = {
    20a6:	cc02                	sw	zero,24(sp)
    20a8:	d002                	sw	zero,32(sp)
    20aa:	d202                	sw	zero,36(sp)
    20ac:	d402                	sw	zero,40(sp)
    20ae:	d602                	sw	zero,44(sp)
    dma_target_t tgt_dst2 = {
    20b0:	c002                	sw	zero,0(sp)
    20b2:	c602                	sw	zero,12(sp)
    20b4:	c802                	sw	zero,16(sp)
    20b6:	ca02                	sw	zero,20(sp)
    20b8:	c24e                	sw	s3,4(sp)
    dma_trans_t trans2 = {
    20ba:	d482                	sw	zero,104(sp)
    20bc:	d682                	sw	zero,108(sp)
    20be:	d882                	sw	zero,112(sp)
    20c0:	da82                	sw	zero,116(sp)
    20c2:	dc82                	sw	zero,120(sp)
    20c4:	de82                	sw	zero,124(sp)
    20c6:	c302                	sw	zero,132(sp)
    20c8:	d28a                	sw	sp,100(sp)
    res = dma_load_transaction(&trans2, 512); //0,4
    20ca:	3335                	jal	1df6 <dma_load_transaction.constprop.0.isra.0>
    20cc:	449c                	lw	a5,8(s1)

    do{
        CSR_SET_BITS(CSR_REG_MSTATUS, 0x0);
    20ce:	4701                	li	a4,0
        if ( dma_is_ready() == 0 ) {
            wait_for_interrupt();
        }
        CSR_SET_BITS(CSR_REG_MSTATUS, 0x8);
    20d0:	46a1                	li	a3,8
    20d2:	4b9c                	lw	a5,16(a5)
    20d4:	8b85                	andi	a5,a5,1
        CSR_SET_BITS(CSR_REG_MSTATUS, 0x0);
    20d6:	30072073          	csrs	mstatus,a4
        if ( dma_is_ready() == 0 ) {
    20da:	c39d                	beqz	a5,2100 <intt_driver+0x138>
        CSR_SET_BITS(CSR_REG_MSTATUS, 0x8);
    20dc:	47a1                	li	a5,8
    20de:	3007a073          	csrs	mstatus,a5
    }
    while( ! dma_is_ready());

}
    20e2:	50fa                	lw	ra,188(sp)
    20e4:	54ea                	lw	s1,184(sp)
    20e6:	595a                	lw	s2,180(sp)
    20e8:	59ca                	lw	s3,176(sp)
    20ea:	6129                	addi	sp,sp,192
    20ec:	8082                	ret
    20ee:	10500073          	wfi
    20f2:	449c                	lw	a5,8(s1)
    20f4:	4b9c                	lw	a5,16(a5)
        CSR_SET_BITS(CSR_REG_MSTATUS, 0x8);
    20f6:	3006a073          	csrs	mstatus,a3
    20fa:	8b85                	andi	a5,a5,1
    while ( ! dma_is_ready());
    20fc:	d7b1                	beqz	a5,2048 <intt_driver+0x80>
    20fe:	bf99                	j	2054 <intt_driver+0x8c>
    2100:	10500073          	wfi
    2104:	449c                	lw	a5,8(s1)
    2106:	4b9c                	lw	a5,16(a5)
        CSR_SET_BITS(CSR_REG_MSTATUS, 0x8);
    2108:	3006a073          	csrs	mstatus,a3
    210c:	8b85                	andi	a5,a5,1
    while( ! dma_is_ready());
    210e:	d7e1                	beqz	a5,20d6 <intt_driver+0x10e>
    2110:	bfc9                	j	20e2 <intt_driver+0x11a>

00002112 <dma_load_transaction_keccak.isra.0>:
    dma_cb.trans = p_trans;
    2112:	000806b7          	lui	a3,0x80
    2116:	5bc68693          	addi	a3,a3,1468 # 805bc <dma_cb>
    dma_cb.peri->INTERRUPT_EN |= INTR_EN_TRANS_DONE;
    211a:	469c                	lw	a5,8(a3)
    dma_cb.peri->SRC_PTR = dma_cb.trans->src->ptr;
    211c:	410c                	lw	a1,0(a0)
    dma_cb.peri->DST_PTR = dma_cb.trans->dst->ptr;
    211e:	4158                	lw	a4,4(a0)
    peri_ptr[index] |= (4 & DMA_PTR_INC_DST_PTR_INC_MASK) << 8;
    2120:	0147a883          	lw	a7,20(a5)
    dma_cb.peri->SRC_PTR = dma_cb.trans->src->ptr;
    2124:	0045a803          	lw	a6,4(a1)
    dma_cb.peri->INTERRUPT_EN |= INTR_EN_TRANS_DONE;
    2128:	57d0                	lw	a2,44(a5)
    dma_cb.peri->DST_PTR = dma_cb.trans->dst->ptr;
    212a:	434c                	lw	a1,4(a4)
    peri_ptr[index] |= (4 & DMA_PTR_INC_DST_PTR_INC_MASK) << 8;
    212c:	7741                	lui	a4,0xffff0
    212e:	01177733          	and	a4,a4,a7
    2132:	40476713          	ori	a4,a4,1028
    dma_cb.peri->INTERRUPT_EN |= INTR_EN_TRANS_DONE;
    2136:	00166613          	ori	a2,a2,1
    peri_ptr[index] |= (4 & DMA_PTR_INC_DST_PTR_INC_MASK) << 8;
    213a:	cbd8                	sw	a4,20(a5)
    dma_cb.peri->SIZE = 200;
    213c:	0c800713          	li	a4,200
    dma_cb.trans = p_trans;
    2140:	c288                	sw	a0,0(a3)
    dma_cb.peri->INTERRUPT_EN |= INTR_EN_TRANS_DONE;
    2142:	d7d0                	sw	a2,44(a5)
    dma_cb.peri->SRC_PTR = dma_cb.trans->src->ptr;
    2144:	0107a023          	sw	a6,0(a5)
    dma_cb.peri->DST_PTR = dma_cb.trans->dst->ptr;
    2148:	c3cc                	sw	a1,4(a5)
    dma_cb.peri->SIZE = 200;
    214a:	c7d8                	sw	a4,12(a5)
}
    214c:	8082                	ret

0000214e <keccak_ip_driver>:
// To manage DMA
#include "dma.h"

 
void keccak_ip_driver(uint32_t* Din, uint32_t* Dout)
{
    214e:	7159                	addi	sp,sp,-112
    2150:	d2ca                	sw	s2,100(sp)
  uint32_t volatile *Din_reg_start = (uint32_t*)ATHOS_IP_DIN_START_ADDR;
  uint32_t volatile *ctrl_reg = (uint32_t*)ATHOS_IP_CTRL_START_ADDR;
  uint32_t volatile *Dout_reg_start = (uint32_t*)ATHOS_IP_DOUT_START_ADDR;


  plic_intr_flag = 0;
    2152:	00080937          	lui	s2,0x80
    2156:	5a890913          	addi	s2,s2,1448 # 805a8 <plic_intr_flag>
{
    215a:	d4a6                	sw	s1,104(sp)
    215c:	d0ce                	sw	s3,96(sp)
    215e:	d686                	sw	ra,108(sp)
  plic_intr_flag = 0;
    2160:	00090023          	sb	zero,0(s2)


  uint32_t* ext_addr_4B_PTR = (uint32_t*)ATHOS_IP_DIN_START_ADDR;
  *ctrl_reg = (1 << ATHOS_IP_CTRL_CTRL_OPERATION_OFFSET);
    2164:	200807b7          	lui	a5,0x20080
    2168:	40000713          	li	a4,1024
    216c:	c398                	sw	a4,0(a5)
{
    216e:	872a                	mv	a4,a0
  //The DMA is initialized (i.e. Any current transaction is cleaned.)
  //dma_init(NULL);
  dma_config_flags_t res;
  //First DMA transaction consist on loading Din in ATHOS_IP register file
  dma_target_t tgt_src = {
    2170:	d23a                	sw	a4,36(sp)
                              .ptr        = Din,
                              .inc_du     = 1,
                              .trig       = DMA_TRIG_MEMORY,
                              .type       = DMA_DATA_TYPE_WORD,
                              };
  dma_target_t tgt_dst = {
    2172:	f0000737          	lui	a4,0xf0000
    2176:	c63a                	sw	a4,12(sp)
                              .ptr        = ext_addr_4B_PTR,
                              .inc_du     = 1,
                              .trig       = DMA_TRIG_MEMORY,
                              };
  dma_trans_t trans = {
    2178:	1018                	addi	a4,sp,32
  dma_target_t tgt_src = {
    217a:	4785                	li	a5,1
    217c:	d402                	sw	zero,40(sp)
  dma_target_t tgt_dst = {
    217e:	c802                	sw	zero,16(sp)
  dma_trans_t trans = {
    2180:	dc3a                	sw	a4,56(sp)
                              .dst        = &tgt_dst,
                              .mode       = DMA_TRANS_MODE_SINGLE,
                              .win_du     = 0,
                              .end        = DMA_TRANS_END_INTR,
                              };
  res = dma_load_transaction_keccak(&trans);
    2182:	1828                	addi	a0,sp,56
  dma_trans_t trans = {
    2184:	0038                	addi	a4,sp,8
    return (dma_cb.peri->STATUS & (1U << DMA_STATUS_READY_BIT));
    2186:	000804b7          	lui	s1,0x80
  dma_target_t tgt_src = {
    218a:	02f11423          	sh	a5,40(sp)
  dma_target_t tgt_dst = {
    218e:	00f11823          	sh	a5,16(sp)
  dma_trans_t trans = {
    2192:	de3a                	sw	a4,60(sp)
    2194:	ccbe                	sw	a5,88(sp)
{
    2196:	89ae                	mv	s3,a1
  dma_target_t tgt_src = {
    2198:	d002                	sw	zero,32(sp)
    219a:	d602                	sw	zero,44(sp)
    219c:	d802                	sw	zero,48(sp)
    219e:	da02                	sw	zero,52(sp)
  dma_target_t tgt_dst = {
    21a0:	c402                	sw	zero,8(sp)
    21a2:	ca02                	sw	zero,20(sp)
    21a4:	cc02                	sw	zero,24(sp)
    21a6:	ce02                	sw	zero,28(sp)
  dma_trans_t trans = {
    21a8:	c082                	sw	zero,64(sp)
    21aa:	c282                	sw	zero,68(sp)
    21ac:	c482                	sw	zero,72(sp)
    21ae:	c682                	sw	zero,76(sp)
    21b0:	c882                	sw	zero,80(sp)
    21b2:	ca82                	sw	zero,84(sp)
    21b4:	ce82                	sw	zero,92(sp)
    21b6:	5bc48493          	addi	s1,s1,1468 # 805bc <dma_cb>
  res = dma_load_transaction_keccak(&trans);
    21ba:	3fa1                	jal	2112 <dma_load_transaction_keccak.isra.0>
    21bc:	449c                	lw	a5,8(s1)
  
  do {
      CSR_SET_BITS(CSR_REG_MSTATUS, 0x0);
    21be:	4701                	li	a4,0
      if ( dma_is_ready() == 0 ) {
          wait_for_interrupt();
      }
      CSR_SET_BITS(CSR_REG_MSTATUS, 0x8);
    21c0:	46a1                	li	a3,8
    21c2:	4b9c                	lw	a5,16(a5)
    21c4:	8b85                	andi	a5,a5,1
      CSR_SET_BITS(CSR_REG_MSTATUS, 0x0);
    21c6:	30072073          	csrs	mstatus,a4
      if ( dma_is_ready() == 0 ) {
    21ca:	c3ad                	beqz	a5,222c <keccak_ip_driver+0xde>
      CSR_SET_BITS(CSR_REG_MSTATUS, 0x8);
    21cc:	47a1                	li	a5,8
    21ce:	3007a073          	csrs	mstatus,a5
  while ( ! dma_is_ready());;

 

    asm volatile ("": : : "memory");
    *ctrl_reg = (1 << ATHOS_IP_CTRL_CTRL_C0_BIT) | (1 << ATHOS_IP_CTRL_CTRL_OPERATION_OFFSET);
    21d2:	200807b7          	lui	a5,0x20080
    21d6:	40100713          	li	a4,1025
    21da:	c398                	sw	a4,0(a5)
    //*ctrl_reg = to_write; 
    asm volatile ("": : : "memory");
    *ctrl_reg = (0 << ATHOS_IP_CTRL_CTRL_C0_BIT) | (1 << ATHOS_IP_CTRL_CTRL_OPERATION_OFFSET);
    21dc:	40000713          	li	a4,1024
    21e0:	c398                	sw	a4,0(a5)



  // Wait till ATHOS_IP is done
  while(plic_intr_flag==0) {
    21e2:	00094783          	lbu	a5,0(s2)
    21e6:	e791                	bnez	a5,21f2 <keccak_ip_driver+0xa4>
    21e8:	10500073          	wfi
    21ec:	00094783          	lbu	a5,0(s2)
    21f0:	dfe5                	beqz	a5,21e8 <keccak_ip_driver+0x9a>
      wait_for_interrupt();
  }

  ext_addr_4B_PTR = (uint32_t*)ATHOS_IP_DOUT_START_ADDR;
  tgt_src.ptr = ext_addr_4B_PTR;
    21f2:	f00007b7          	lui	a5,0xf0000
    21f6:	0c878793          	addi	a5,a5,200 # f00000c8 <_sp+0xeff1f918>
  tgt_dst.ptr = Dout;


  res = dma_load_transaction_keccak(&trans);
    21fa:	1828                	addi	a0,sp,56
  tgt_src.ptr = ext_addr_4B_PTR;
    21fc:	d23e                	sw	a5,36(sp)
  tgt_dst.ptr = Dout;
    21fe:	c64e                	sw	s3,12(sp)
  res = dma_load_transaction_keccak(&trans);
    2200:	3f09                	jal	2112 <dma_load_transaction_keccak.isra.0>
    2202:	449c                	lw	a5,8(s1)


   do{
      CSR_SET_BITS(CSR_REG_MSTATUS, 0x0);
    2204:	4701                	li	a4,0
      if ( dma_is_ready() == 0 ) {
          wait_for_interrupt();
      }
      CSR_SET_BITS(CSR_REG_MSTATUS, 0x8);
    2206:	46a1                	li	a3,8
    2208:	4b9c                	lw	a5,16(a5)
    220a:	8b85                	andi	a5,a5,1
      CSR_SET_BITS(CSR_REG_MSTATUS, 0x0);
    220c:	30072073          	csrs	mstatus,a4
      if ( dma_is_ready() == 0 ) {
    2210:	c79d                	beqz	a5,223e <keccak_ip_driver+0xf0>
      CSR_SET_BITS(CSR_REG_MSTATUS, 0x8);
    2212:	47a1                	li	a5,8
    2214:	3007a073          	csrs	mstatus,a5
  *ctrl_reg = 0;




}
    2218:	50b6                	lw	ra,108(sp)
  *ctrl_reg = 0;
    221a:	200807b7          	lui	a5,0x20080
    221e:	0007a023          	sw	zero,0(a5) # 20080000 <_sp+0x1ff9f850>
}
    2222:	54a6                	lw	s1,104(sp)
    2224:	5916                	lw	s2,100(sp)
    2226:	5986                	lw	s3,96(sp)
    2228:	6165                	addi	sp,sp,112
    222a:	8082                	ret
    222c:	10500073          	wfi
    2230:	449c                	lw	a5,8(s1)
    2232:	4b9c                	lw	a5,16(a5)
      CSR_SET_BITS(CSR_REG_MSTATUS, 0x8);
    2234:	3006a073          	csrs	mstatus,a3
    2238:	8b85                	andi	a5,a5,1
  while ( ! dma_is_ready());;
    223a:	d7d1                	beqz	a5,21c6 <keccak_ip_driver+0x78>
    223c:	bf59                	j	21d2 <keccak_ip_driver+0x84>
    223e:	10500073          	wfi
    2242:	449c                	lw	a5,8(s1)
    2244:	4b9c                	lw	a5,16(a5)
      CSR_SET_BITS(CSR_REG_MSTATUS, 0x8);
    2246:	3006a073          	csrs	mstatus,a3
    224a:	8b85                	andi	a5,a5,1
  while( ! dma_is_ready());
    224c:	d3e1                	beqz	a5,220c <keccak_ip_driver+0xbe>
}
    224e:	50b6                	lw	ra,108(sp)
  *ctrl_reg = 0;
    2250:	200807b7          	lui	a5,0x20080
    2254:	0007a023          	sw	zero,0(a5) # 20080000 <_sp+0x1ff9f850>
}
    2258:	54a6                	lw	s1,104(sp)
    225a:	5916                	lw	s2,100(sp)
    225c:	5986                	lw	s3,96(sp)
    225e:	6165                	addi	sp,sp,112
    2260:	8082                	ret

00002262 <keccak_squeezeblocks>:
    while (nblocks > 0) {
    2262:	c5d1                	beqz	a1,22ee <keccak_squeezeblocks+0x8c>
                                 uint64_t *s, uint32_t r) {
    2264:	1101                	addi	sp,sp,-32
    2266:	cc26                	sw	s1,24(sp)
    2268:	ca4a                	sw	s2,20(sp)
    226a:	c84e                	sw	s3,16(sp)
    226c:	c652                	sw	s4,12(sp)
    226e:	c456                	sw	s5,8(sp)
    2270:	c25a                	sw	s6,4(sp)
    2272:	c05e                	sw	s7,0(sp)
    2274:	ce06                	sw	ra,28(sp)
    2276:	8bae                	mv	s7,a1
    2278:	8a2a                	mv	s4,a0
    227a:	8ab2                	mv	s5,a2
    227c:	8936                	mv	s2,a3
    227e:	ff86fb13          	andi	s6,a3,-8
        x[i] = (uint8_t) (u >> 8 * i);
    2282:	49fd                	li	s3,31
    for (size_t i = 0; i < 8; ++i) {
    2284:	04000493          	li	s1,64
        keccak_ip_driver(s,s);
    2288:	85d6                	mv	a1,s5
    228a:	8556                	mv	a0,s5
    228c:	35c9                	jal	214e <keccak_ip_driver>
    228e:	4e81                	li	t4,0
            store64(h + 8 * i, s[i]);
    2290:	01da87b3          	add	a5,s5,t4
    2294:	0047ae03          	lw	t3,4(a5)
    2298:	0007a303          	lw	t1,0(a5)
    for (size_t i = 0; i < 8; ++i) {
    229c:	01da0633          	add	a2,s4,t4
            store64(h + 8 * i, s[i]);
    22a0:	4781                	li	a5,0
        x[i] = (uint8_t) (u >> 8 * i);
    22a2:	001e1893          	slli	a7,t3,0x1
    22a6:	40f98733          	sub	a4,s3,a5
    22aa:	00f356b3          	srl	a3,t1,a5
    22ae:	00e89733          	sll	a4,a7,a4
    22b2:	fe078813          	addi	a6,a5,-32
    22b6:	8ed9                	or	a3,a3,a4
    22b8:	00084463          	bltz	a6,22c0 <keccak_squeezeblocks+0x5e>
    22bc:	010e56b3          	srl	a3,t3,a6
    22c0:	00d60023          	sb	a3,0(a2) # 10000 <aes.c.fb912ae8+0x1098>
    for (size_t i = 0; i < 8; ++i) {
    22c4:	07a1                	addi	a5,a5,8
    22c6:	0605                	addi	a2,a2,1
    22c8:	fc979fe3          	bne	a5,s1,22a6 <keccak_squeezeblocks+0x44>
        for (size_t i = 0; i < (r >> 3); i++) {
    22cc:	0ea1                	addi	t4,t4,8
    22ce:	fd6e91e3          	bne	t4,s6,2290 <keccak_squeezeblocks+0x2e>
        nblocks--;
    22d2:	1bfd                	addi	s7,s7,-1
        h += r;
    22d4:	9a4a                	add	s4,s4,s2
    while (nblocks > 0) {
    22d6:	fa0b99e3          	bnez	s7,2288 <keccak_squeezeblocks+0x26>
}
    22da:	40f2                	lw	ra,28(sp)
    22dc:	44e2                	lw	s1,24(sp)
    22de:	4952                	lw	s2,20(sp)
    22e0:	49c2                	lw	s3,16(sp)
    22e2:	4a32                	lw	s4,12(sp)
    22e4:	4aa2                	lw	s5,8(sp)
    22e6:	4b12                	lw	s6,4(sp)
    22e8:	4b82                	lw	s7,0(sp)
    22ea:	6105                	addi	sp,sp,32
    22ec:	8082                	ret
    22ee:	8082                	ret

000022f0 <keccak_absorb>:
                          size_t mlen, uint8_t p) {
    22f0:	7111                	addi	sp,sp,-256
    22f2:	d3da                	sw	s6,228(sp)
    22f4:	d1de                	sw	s7,224(sp)
    22f6:	cfe2                	sw	s8,220(sp)
    22f8:	8b2e                	mv	s6,a1
    22fa:	8c32                	mv	s8,a2
    22fc:	8bb6                	mv	s7,a3
        s[i] = 0;
    22fe:	0c800613          	li	a2,200
    2302:	4581                	li	a1,0
                          size_t mlen, uint8_t p) {
    2304:	dda6                	sw	s1,248(sp)
    2306:	dbca                	sw	s2,244(sp)
    2308:	d9ce                	sw	s3,240(sp)
    230a:	d7d2                	sw	s4,236(sp)
    230c:	d5d6                	sw	s5,232(sp)
    230e:	df86                	sw	ra,252(sp)
    2310:	8aaa                	mv	s5,a0
    2312:	893a                	mv	s2,a4
    for (i = 0; i < r / 8; ++i) {
    2314:	003b5a13          	srli	s4,s6,0x3
        s[i] = 0;
    2318:	4f8010ef          	jal	ra,3810 <memset>
    while (mlen >= r) {
    231c:	49fd                	li	s3,31
    231e:	04000493          	li	s1,64
    2322:	096be063          	bltu	s7,s6,23a2 <keccak_absorb+0xb2>
        for (i = 0; i < r / 8; ++i) {
    2326:	8356                	mv	t1,s5
    2328:	8ee2                	mv	t4,s8
    232a:	4e01                	li	t3,0
    232c:	86f6                	mv	a3,t4
    232e:	4781                	li	a5,0
    uint64_t r = 0;
    2330:	4501                	li	a0,0
    2332:	4581                	li	a1,0
    2334:	a819                	j	234a <keccak_absorb+0x5a>
        r |= (uint64_t)x[i] << 8 * i;
    2336:	4801                	li	a6,0
    2338:	00c71733          	sll	a4,a4,a2
    for (size_t i = 0; i < 8; ++i) {
    233c:	07a1                	addi	a5,a5,8
        r |= (uint64_t)x[i] << 8 * i;
    233e:	01056533          	or	a0,a0,a6
    2342:	8dd9                	or	a1,a1,a4
    for (size_t i = 0; i < 8; ++i) {
    2344:	0685                	addi	a3,a3,1
    2346:	02978763          	beq	a5,s1,2374 <keccak_absorb+0x84>
        r |= (uint64_t)x[i] << 8 * i;
    234a:	fe078613          	addi	a2,a5,-32
    234e:	0006c703          	lbu	a4,0(a3)
    2352:	40f988b3          	sub	a7,s3,a5
    2356:	fe0650e3          	bgez	a2,2336 <keccak_absorb+0x46>
    235a:	00175613          	srli	a2,a4,0x1
    235e:	00f71833          	sll	a6,a4,a5
    2362:	01165733          	srl	a4,a2,a7
    for (size_t i = 0; i < 8; ++i) {
    2366:	07a1                	addi	a5,a5,8
        r |= (uint64_t)x[i] << 8 * i;
    2368:	01056533          	or	a0,a0,a6
    236c:	8dd9                	or	a1,a1,a4
    for (size_t i = 0; i < 8; ++i) {
    236e:	0685                	addi	a3,a3,1
    2370:	fc979de3          	bne	a5,s1,234a <keccak_absorb+0x5a>
            s[i] ^= load64(m + 8 * i);
    2374:	00032703          	lw	a4,0(t1)
    2378:	00432783          	lw	a5,4(t1)
        for (i = 0; i < r / 8; ++i) {
    237c:	0e05                	addi	t3,t3,1
            s[i] ^= load64(m + 8 * i);
    237e:	8f29                	xor	a4,a4,a0
    2380:	8fad                	xor	a5,a5,a1
    2382:	00e32023          	sw	a4,0(t1)
    2386:	00f32223          	sw	a5,4(t1)
        for (i = 0; i < r / 8; ++i) {
    238a:	0ea1                	addi	t4,t4,8
    238c:	0321                	addi	t1,t1,8
    238e:	f94e6fe3          	bltu	t3,s4,232c <keccak_absorb+0x3c>
        keccak_ip_driver(s, s);
    2392:	85d6                	mv	a1,s5
    2394:	8556                	mv	a0,s5
        mlen -= r;
    2396:	416b8bb3          	sub	s7,s7,s6
        keccak_ip_driver(s, s);
    239a:	3b55                	jal	214e <keccak_ip_driver>
        m += r;
    239c:	9c5a                	add	s8,s8,s6
    while (mlen >= r) {
    239e:	f96bf4e3          	bgeu	s7,s6,2326 <keccak_absorb+0x36>
        t[i] = 0;
    23a2:	865a                	mv	a2,s6
    23a4:	4581                	li	a1,0
    23a6:	0028                	addi	a0,sp,8
    23a8:	468010ef          	jal	ra,3810 <memset>
    for (i = 0; i < mlen; ++i) {
    23ac:	000b8763          	beqz	s7,23ba <keccak_absorb+0xca>
        t[i] = m[i];
    23b0:	865e                	mv	a2,s7
    23b2:	85e2                	mv	a1,s8
    23b4:	0028                	addi	a0,sp,8
    23b6:	2a8020ef          	jal	ra,465e <memcpy>
    t[i] = p;
    23ba:	0d0b8793          	addi	a5,s7,208
    23be:	00278bb3          	add	s7,a5,sp
    t[r - 1] |= 128;
    23c2:	0cfb0793          	addi	a5,s6,207
    t[i] = p;
    23c6:	f32b8c23          	sb	s2,-200(s7)
    t[r - 1] |= 128;
    23ca:	978a                	add	a5,a5,sp
    23cc:	f387c703          	lbu	a4,-200(a5)
    23d0:	00810e93          	addi	t4,sp,8
    for (i = 0; i < r / 8; ++i) {
    23d4:	4f01                	li	t5,0
    t[r - 1] |= 128;
    23d6:	f8076713          	ori	a4,a4,-128
    23da:	f2e78c23          	sb	a4,-200(a5)
        r |= (uint64_t)x[i] << 8 * i;
    23de:	4e7d                	li	t3,31
    for (size_t i = 0; i < 8; ++i) {
    23e0:	04000313          	li	t1,64
    for (i = 0; i < r / 8; ++i) {
    23e4:	86f6                	mv	a3,t4
    23e6:	4781                	li	a5,0
    uint64_t r = 0;
    23e8:	4501                	li	a0,0
    23ea:	4581                	li	a1,0
    23ec:	a819                	j	2402 <keccak_absorb+0x112>
        r |= (uint64_t)x[i] << 8 * i;
    23ee:	4801                	li	a6,0
    23f0:	00c71733          	sll	a4,a4,a2
    for (size_t i = 0; i < 8; ++i) {
    23f4:	07a1                	addi	a5,a5,8
        r |= (uint64_t)x[i] << 8 * i;
    23f6:	01056533          	or	a0,a0,a6
    23fa:	8dd9                	or	a1,a1,a4
    for (size_t i = 0; i < 8; ++i) {
    23fc:	0685                	addi	a3,a3,1
    23fe:	02678763          	beq	a5,t1,242c <keccak_absorb+0x13c>
        r |= (uint64_t)x[i] << 8 * i;
    2402:	fe078613          	addi	a2,a5,-32
    2406:	0006c703          	lbu	a4,0(a3)
    240a:	40fe08b3          	sub	a7,t3,a5
    240e:	fe0650e3          	bgez	a2,23ee <keccak_absorb+0xfe>
    2412:	00175613          	srli	a2,a4,0x1
    2416:	00f71833          	sll	a6,a4,a5
    241a:	01165733          	srl	a4,a2,a7
    for (size_t i = 0; i < 8; ++i) {
    241e:	07a1                	addi	a5,a5,8
        r |= (uint64_t)x[i] << 8 * i;
    2420:	01056533          	or	a0,a0,a6
    2424:	8dd9                	or	a1,a1,a4
    for (size_t i = 0; i < 8; ++i) {
    2426:	0685                	addi	a3,a3,1
    2428:	fc679de3          	bne	a5,t1,2402 <keccak_absorb+0x112>
        s[i] ^= load64(t + 8 * i);
    242c:	000aa703          	lw	a4,0(s5)
    2430:	004aa783          	lw	a5,4(s5)
    for (i = 0; i < r / 8; ++i) {
    2434:	0f05                	addi	t5,t5,1
        s[i] ^= load64(t + 8 * i);
    2436:	8f29                	xor	a4,a4,a0
    2438:	8fad                	xor	a5,a5,a1
    243a:	00eaa023          	sw	a4,0(s5)
    243e:	00faa223          	sw	a5,4(s5)
    for (i = 0; i < r / 8; ++i) {
    2442:	0ea1                	addi	t4,t4,8
    2444:	0aa1                	addi	s5,s5,8
    2446:	f94f6fe3          	bltu	t5,s4,23e4 <keccak_absorb+0xf4>
}
    244a:	50fe                	lw	ra,252(sp)
    244c:	54ee                	lw	s1,248(sp)
    244e:	595e                	lw	s2,244(sp)
    2450:	59ce                	lw	s3,240(sp)
    2452:	5a3e                	lw	s4,236(sp)
    2454:	5aae                	lw	s5,232(sp)
    2456:	5b1e                	lw	s6,228(sp)
    2458:	5b8e                	lw	s7,224(sp)
    245a:	4c7e                	lw	s8,220(sp)
    245c:	6111                	addi	sp,sp,256
    245e:	8082                	ret

00002460 <sha3_512>:
 *
 * Arguments:   - uint8_t *output:      pointer to output
 *              - const uint8_t *input: pointer to input
 *              - size_t inlen:   length of input in bytes
 **************************************************/
void sha3_512(uint8_t *output, const uint8_t *input, size_t inlen) {
    2460:	712d                	addi	sp,sp,-288
    2462:	10912c23          	sw	s1,280(sp)
    2466:	86b2                	mv	a3,a2
    2468:	84aa                	mv	s1,a0
    uint64_t s[25];
    uint8_t t[SHA3_512_RATE];

    /* Absorb input */
    keccak_absorb(s, SHA3_512_RATE, input, inlen, 0x06);
    246a:	4719                	li	a4,6
    246c:	862e                	mv	a2,a1
    246e:	00a8                	addi	a0,sp,72
    2470:	04800593          	li	a1,72
void sha3_512(uint8_t *output, const uint8_t *input, size_t inlen) {
    2474:	10112e23          	sw	ra,284(sp)
    keccak_absorb(s, SHA3_512_RATE, input, inlen, 0x06);
    2478:	3da5                	jal	22f0 <keccak_absorb>

    /* Squeeze output */
    keccak_squeezeblocks(t, 1, s, SHA3_512_RATE);
    247a:	00b0                	addi	a2,sp,72
    247c:	850a                	mv	a0,sp
    247e:	4585                	li	a1,1
    2480:	04800693          	li	a3,72
    2484:	3bf9                	jal	2262 <keccak_squeezeblocks>

    for (size_t i = 0; i < 64; i++) {
        output[i] = t[i];
    2486:	858a                	mv	a1,sp
    2488:	8526                	mv	a0,s1
    248a:	04000613          	li	a2,64
    248e:	1d0020ef          	jal	ra,465e <memcpy>
    }
    2492:	11c12083          	lw	ra,284(sp)
    2496:	11812483          	lw	s1,280(sp)
    249a:	6115                	addi	sp,sp,288
    249c:	8082                	ret

0000249e <sha3_256.constprop.0>:
void sha3_256(uint8_t *output, const uint8_t *input, size_t inlen) {
    249e:	710d                	addi	sp,sp,-352
    24a0:	14912c23          	sw	s1,344(sp)
    24a4:	862e                	mv	a2,a1
    24a6:	84aa                	mv	s1,a0
    keccak_absorb(s, SHA3_256_RATE, input, inlen, 0x06);
    24a8:	4719                	li	a4,6
    24aa:	0128                	addi	a0,sp,136
    24ac:	62000693          	li	a3,1568
    24b0:	08800593          	li	a1,136
void sha3_256(uint8_t *output, const uint8_t *input, size_t inlen) {
    24b4:	14112e23          	sw	ra,348(sp)
    keccak_absorb(s, SHA3_256_RATE, input, inlen, 0x06);
    24b8:	3d25                	jal	22f0 <keccak_absorb>
    keccak_squeezeblocks(t, 1, s, SHA3_256_RATE);
    24ba:	0130                	addi	a2,sp,136
    24bc:	850a                	mv	a0,sp
    24be:	4585                	li	a1,1
    24c0:	08800693          	li	a3,136
    24c4:	3b79                	jal	2262 <keccak_squeezeblocks>
        output[i] = t[i];
    24c6:	858a                	mv	a1,sp
    24c8:	8526                	mv	a0,s1
    24ca:	02000613          	li	a2,32
    24ce:	190020ef          	jal	ra,465e <memcpy>
}
    24d2:	15c12083          	lw	ra,348(sp)
    24d6:	15812483          	lw	s1,344(sp)
    24da:	6135                	addi	sp,sp,352
    24dc:	8082                	ret

000024de <keccak_inc_absorb.constprop.0>:
    while (mlen + s_inc[25] >= r) {
    24de:	0c852783          	lw	a5,200(a0)
static void keccak_inc_absorb(uint64_t *s_inc, uint32_t r, const uint8_t *m,
    24e2:	1101                	addi	sp,sp,-32
    24e4:	c652                	sw	s4,12(sp)
    24e6:	8a32                	mv	s4,a2
    while (mlen + s_inc[25] >= r) {
    24e8:	0cc52603          	lw	a2,204(a0)
    24ec:	00fa06b3          	add	a3,s4,a5
    24f0:	0146b733          	sltu	a4,a3,s4
static void keccak_inc_absorb(uint64_t *s_inc, uint32_t r, const uint8_t *m,
    24f4:	ca4a                	sw	s2,20(sp)
    24f6:	c84e                	sw	s3,16(sp)
    24f8:	ce06                	sw	ra,28(sp)
    24fa:	cc26                	sw	s1,24(sp)
    24fc:	c456                	sw	s5,8(sp)
    24fe:	c25a                	sw	s6,4(sp)
    while (mlen + s_inc[25] >= r) {
    2500:	9732                	add	a4,a4,a2
static void keccak_inc_absorb(uint64_t *s_inc, uint32_t r, const uint8_t *m,
    2502:	892a                	mv	s2,a0
    2504:	89ae                	mv	s3,a1
    while (mlen + s_inc[25] >= r) {
    2506:	12070763          	beqz	a4,2634 <keccak_inc_absorb.constprop.0+0x156>
        for (i = 0; i < r - (uint32_t)s_inc[25]; i++) {
    250a:	08800a93          	li	s5,136
            s_inc[(s_inc[25] + i) >> 3] ^= (uint64_t)m[i] << (8 * ((s_inc[25] + i) & 0x07));
    250e:	4b7d                	li	s6,31
    while (mlen + s_inc[25] >= r) {
    2510:	08700493          	li	s1,135
        for (i = 0; i < r - (uint32_t)s_inc[25]; i++) {
    2514:	4701                	li	a4,0
    2516:	03579663          	bne	a5,s5,2542 <keccak_inc_absorb.constprop.0+0x64>
    251a:	a8b9                	j	2578 <keccak_inc_absorb.constprop.0+0x9a>
            s_inc[(s_inc[25] + i) >> 3] ^= (uint64_t)m[i] << (8 * ((s_inc[25] + i) & 0x07));
    251c:	01089833          	sll	a6,a7,a6
    2520:	4881                	li	a7,0
    2522:	4390                	lw	a2,0(a5)
    2524:	43d4                	lw	a3,4(a5)
        for (i = 0; i < r - (uint32_t)s_inc[25]; i++) {
    2526:	0705                	addi	a4,a4,1
            s_inc[(s_inc[25] + i) >> 3] ^= (uint64_t)m[i] << (8 * ((s_inc[25] + i) & 0x07));
    2528:	011648b3          	xor	a7,a2,a7
    252c:	0106c6b3          	xor	a3,a3,a6
    2530:	c3d4                	sw	a3,4(a5)
    2532:	0117a023          	sw	a7,0(a5)
        for (i = 0; i < r - (uint32_t)s_inc[25]; i++) {
    2536:	0c892783          	lw	a5,200(s2)
    253a:	40fa86b3          	sub	a3,s5,a5
    253e:	02d77963          	bgeu	a4,a3,2570 <keccak_inc_absorb.constprop.0+0x92>
            s_inc[(s_inc[25] + i) >> 3] ^= (uint64_t)m[i] << (8 * ((s_inc[25] + i) & 0x07));
    2542:	97ba                	add	a5,a5,a4
    2544:	0077f693          	andi	a3,a5,7
    2548:	068e                	slli	a3,a3,0x3
    254a:	00e98633          	add	a2,s3,a4
    254e:	9be1                	andi	a5,a5,-8
    2550:	fe068813          	addi	a6,a3,-32
    2554:	00064883          	lbu	a7,0(a2)
    2558:	40db05b3          	sub	a1,s6,a3
    255c:	97ca                	add	a5,a5,s2
    255e:	fa085fe3          	bgez	a6,251c <keccak_inc_absorb.constprop.0+0x3e>
    2562:	0018d813          	srli	a6,a7,0x1
    2566:	00b85833          	srl	a6,a6,a1
    256a:	00d898b3          	sll	a7,a7,a3
    256e:	bf55                	j	2522 <keccak_inc_absorb.constprop.0+0x44>
        mlen -= (size_t)(r - s_inc[25]);
    2570:	f7878793          	addi	a5,a5,-136
    2574:	9a3e                	add	s4,s4,a5
        m += r - s_inc[25];
    2576:	99b6                	add	s3,s3,a3
        s_inc[25] = 0;
    2578:	4781                	li	a5,0
    257a:	4801                	li	a6,0
    257c:	0cf92423          	sw	a5,200(s2)
        keccak_ip_driver(s_inc, s_inc);
    2580:	85ca                	mv	a1,s2
        s_inc[25] = 0;
    2582:	0d092623          	sw	a6,204(s2)
        keccak_ip_driver(s_inc, s_inc);
    2586:	854a                	mv	a0,s2
    2588:	bc7ff0ef          	jal	ra,214e <keccak_ip_driver>
    while (mlen + s_inc[25] >= r) {
    258c:	0c892683          	lw	a3,200(s2)
    2590:	0cc92603          	lw	a2,204(s2)
    2594:	00da05b3          	add	a1,s4,a3
    2598:	0145b733          	sltu	a4,a1,s4
    259c:	9732                	add	a4,a4,a2
    259e:	87b6                	mv	a5,a3
    25a0:	fb35                	bnez	a4,2514 <keccak_inc_absorb.constprop.0+0x36>
    25a2:	f6b4e9e3          	bltu	s1,a1,2514 <keccak_inc_absorb.constprop.0+0x36>
    for (i = 0; i < mlen; i++) {
    25a6:	060a0663          	beqz	s4,2612 <keccak_inc_absorb.constprop.0+0x134>
        for (i = 0; i < r - (uint32_t)s_inc[25]; i++) {
    25aa:	4701                	li	a4,0
        s_inc[(s_inc[25] + i) >> 3] ^= (uint64_t)m[i] << (8 * ((s_inc[25] + i) & 0x07));
    25ac:	487d                	li	a6,31
    25ae:	a839                	j	25cc <keccak_inc_absorb.constprop.0+0xee>
    25b0:	4388                	lw	a0,0(a5)
    25b2:	43d4                	lw	a3,4(a5)
    25b4:	00c59633          	sll	a2,a1,a2
    25b8:	4581                	li	a1,0
    25ba:	8da9                	xor	a1,a1,a0
    25bc:	8eb1                	xor	a3,a3,a2
    for (i = 0; i < mlen; i++) {
    25be:	0705                	addi	a4,a4,1
        s_inc[(s_inc[25] + i) >> 3] ^= (uint64_t)m[i] << (8 * ((s_inc[25] + i) & 0x07));
    25c0:	c38c                	sw	a1,0(a5)
    25c2:	c3d4                	sw	a3,4(a5)
    for (i = 0; i < mlen; i++) {
    25c4:	05477363          	bgeu	a4,s4,260a <keccak_inc_absorb.constprop.0+0x12c>
    s_inc[25] += mlen;
    25c8:	0c892783          	lw	a5,200(s2)
        s_inc[(s_inc[25] + i) >> 3] ^= (uint64_t)m[i] << (8 * ((s_inc[25] + i) & 0x07));
    25cc:	97ba                	add	a5,a5,a4
    25ce:	0077f693          	andi	a3,a5,7
    25d2:	068e                	slli	a3,a3,0x3
    25d4:	00e985b3          	add	a1,s3,a4
    25d8:	9be1                	andi	a5,a5,-8
    25da:	fe068613          	addi	a2,a3,-32
    25de:	0005c583          	lbu	a1,0(a1)
    25e2:	40d80533          	sub	a0,a6,a3
    25e6:	97ca                	add	a5,a5,s2
    25e8:	fc0654e3          	bgez	a2,25b0 <keccak_inc_absorb.constprop.0+0xd2>
    25ec:	0015d613          	srli	a2,a1,0x1
    25f0:	00a65633          	srl	a2,a2,a0
    25f4:	00d595b3          	sll	a1,a1,a3
    25f8:	4388                	lw	a0,0(a5)
    25fa:	43d4                	lw	a3,4(a5)
    for (i = 0; i < mlen; i++) {
    25fc:	0705                	addi	a4,a4,1
        s_inc[(s_inc[25] + i) >> 3] ^= (uint64_t)m[i] << (8 * ((s_inc[25] + i) & 0x07));
    25fe:	8da9                	xor	a1,a1,a0
    2600:	8eb1                	xor	a3,a3,a2
    2602:	c38c                	sw	a1,0(a5)
    2604:	c3d4                	sw	a3,4(a5)
    for (i = 0; i < mlen; i++) {
    2606:	fd4761e3          	bltu	a4,s4,25c8 <keccak_inc_absorb.constprop.0+0xea>
    260a:	0c892683          	lw	a3,200(s2)
    260e:	0cc92603          	lw	a2,204(s2)
    s_inc[25] += mlen;
    2612:	9a36                	add	s4,s4,a3
}
    2614:	40f2                	lw	ra,28(sp)
    s_inc[25] += mlen;
    2616:	00da37b3          	sltu	a5,s4,a3
    261a:	97b2                	add	a5,a5,a2
    261c:	0d492423          	sw	s4,200(s2)
    2620:	0cf92623          	sw	a5,204(s2)
}
    2624:	44e2                	lw	s1,24(sp)
    2626:	4952                	lw	s2,20(sp)
    2628:	49c2                	lw	s3,16(sp)
    262a:	4a32                	lw	s4,12(sp)
    262c:	4aa2                	lw	s5,8(sp)
    262e:	4b12                	lw	s6,4(sp)
    2630:	6105                	addi	sp,sp,32
    2632:	8082                	ret
    while (mlen + s_inc[25] >= r) {
    2634:	08700713          	li	a4,135
    2638:	ecd769e3          	bltu	a4,a3,250a <keccak_inc_absorb.constprop.0+0x2c>
    263c:	b7bd                	j	25aa <keccak_inc_absorb.constprop.0+0xcc>

0000263e <print_exc_msg>:
/**
 * Default Error Handling
 * @param msg error message supplied by caller
 * TODO - this will be soon by a real print formatting
 */
static void print_exc_msg(const char *msg) {
    263e:	85aa                	mv	a1,a0
  printf("%s", msg);
    2640:	00080537          	lui	a0,0x80
static void print_exc_msg(const char *msg) {
    2644:	1141                	addi	sp,sp,-16
  printf("%s", msg);
    2646:	0b850513          	addi	a0,a0,184 # 800b8 <no_exception_handler_msg+0x23>
static void print_exc_msg(const char *msg) {
    264a:	c606                	sw	ra,12(sp)
  printf("%s", msg);
    264c:	060020ef          	jal	ra,46ac <iprintf>
  CSR_READ(CSR_REG_MTVAL, &mtval);
    2650:	343025f3          	csrr	a1,mtval
  printf("MTVAL value is 0x%x\n", get_mtval());
    2654:	00080537          	lui	a0,0x80
    2658:	0bc50513          	addi	a0,a0,188 # 800bc <no_exception_handler_msg+0x27>
    265c:	050020ef          	jal	ra,46ac <iprintf>
  while (1) {
    2660:	a001                	j	2660 <print_exc_msg+0x22>

00002662 <PQCLEAN_KYBER1024_CLEAN_poly_getnoise_eta1>:
void PQCLEAN_KYBER1024_CLEAN_poly_getnoise_eta1(poly *r, const uint8_t seed[KYBER_SYMBYTES], uint8_t nonce) {
    2662:	7169                	addi	sp,sp,-304
    2664:	12912423          	sw	s1,296(sp)
    2668:	84aa                	mv	s1,a0
    state->ctx = malloc(PQC_SHAKECTX_BYTES);
    266a:	0c800513          	li	a0,200
    266e:	13312023          	sw	s3,288(sp)
    2672:	11412e23          	sw	s4,284(sp)
    2676:	12112623          	sw	ra,300(sp)
    267a:	13212223          	sw	s2,292(sp)
    267e:	89ae                	mv	s3,a1
    2680:	8a32                	mv	s4,a2
    2682:	7c1010ef          	jal	ra,4642 <malloc>
    if (state->ctx == NULL) {
    2686:	14050c63          	beqz	a0,27de <PQCLEAN_KYBER1024_CLEAN_poly_getnoise_eta1+0x17c>
    keccak_absorb(state->ctx, SHAKE256_RATE, input, inlen, 0x1F);
    268a:	477d                	li	a4,31
    268c:	86d2                	mv	a3,s4
    268e:	864e                	mv	a2,s3
    2690:	08800593          	li	a1,136
    2694:	892a                	mv	s2,a0
    2696:	39a9                	jal	22f0 <keccak_absorb>
        keccak_ip_driver(s,s);
    2698:	85ca                	mv	a1,s2
    269a:	854a                	mv	a0,s2
    269c:	ab3ff0ef          	jal	ra,214e <keccak_ip_driver>
    26a0:	08810e93          	addi	t4,sp,136
    26a4:	4301                	li	t1,0
        x[i] = (uint8_t) (u >> 8 * i);
    26a6:	4e7d                	li	t3,31
    for (size_t i = 0; i < 8; ++i) {
    26a8:	04000593          	li	a1,64
        for (size_t i = 0; i < (r >> 3); i++) {
    26ac:	08800f13          	li	t5,136
            store64(h + 8 * i, s[i]);
    26b0:	006907b3          	add	a5,s2,t1
    26b4:	43c8                	lw	a0,4(a5)
    26b6:	0007a883          	lw	a7,0(a5)
    26ba:	86f6                	mv	a3,t4
    26bc:	4701                	li	a4,0
        x[i] = (uint8_t) (u >> 8 * i);
    26be:	00151813          	slli	a6,a0,0x1
    26c2:	a809                	j	26d4 <PQCLEAN_KYBER1024_CLEAN_poly_getnoise_eta1+0x72>
    26c4:	00f557b3          	srl	a5,a0,a5
    26c8:	00f68023          	sb	a5,0(a3)
    for (size_t i = 0; i < 8; ++i) {
    26cc:	0721                	addi	a4,a4,8
    26ce:	0685                	addi	a3,a3,1
    26d0:	02b70363          	beq	a4,a1,26f6 <PQCLEAN_KYBER1024_CLEAN_poly_getnoise_eta1+0x94>
        x[i] = (uint8_t) (u >> 8 * i);
    26d4:	fe070793          	addi	a5,a4,-32 # efffffe0 <_sp+0xeff1f830>
    26d8:	fe07d6e3          	bgez	a5,26c4 <PQCLEAN_KYBER1024_CLEAN_poly_getnoise_eta1+0x62>
    26dc:	40ee0633          	sub	a2,t3,a4
    26e0:	00e8d7b3          	srl	a5,a7,a4
    26e4:	00c81633          	sll	a2,a6,a2
    26e8:	8fd1                	or	a5,a5,a2
    26ea:	00f68023          	sb	a5,0(a3)
    for (size_t i = 0; i < 8; ++i) {
    26ee:	0721                	addi	a4,a4,8
    26f0:	0685                	addi	a3,a3,1
    26f2:	feb711e3          	bne	a4,a1,26d4 <PQCLEAN_KYBER1024_CLEAN_poly_getnoise_eta1+0x72>
        for (size_t i = 0; i < (r >> 3); i++) {
    26f6:	0321                	addi	t1,t1,8
    26f8:	0ea1                	addi	t4,t4,8
    26fa:	fbe31be3          	bne	t1,t5,26b0 <PQCLEAN_KYBER1024_CLEAN_poly_getnoise_eta1+0x4e>
            output[i] = t[i];
    26fe:	013c                	addi	a5,sp,136
    2700:	0038                	addi	a4,sp,8
    2702:	10810813          	addi	a6,sp,264
    2706:	4388                	lw	a0,0(a5)
    2708:	43cc                	lw	a1,4(a5)
    270a:	4790                	lw	a2,8(a5)
    270c:	47d4                	lw	a3,12(a5)
    270e:	c308                	sw	a0,0(a4)
    2710:	c34c                	sw	a1,4(a4)
    2712:	c710                	sw	a2,8(a4)
    2714:	c754                	sw	a3,12(a4)
    2716:	07c1                	addi	a5,a5,16
    2718:	0741                	addi	a4,a4,16
    271a:	ff0796e3          	bne	a5,a6,2706 <PQCLEAN_KYBER1024_CLEAN_poly_getnoise_eta1+0xa4>
    free(state->ctx);
    271e:	854a                	mv	a0,s2
    2720:	731010ef          	jal	ra,4650 <free>
static void cbd2(poly *r, const uint8_t buf[2 * KYBER_N / 4]) {
    unsigned int i, j;
    uint32_t t, d;
    int16_t a, b;

    for (i = 0; i < KYBER_N / 8; i++) {
    2724:	0030                	addi	a2,sp,8
    2726:	4781                	li	a5,0
            b = (d >> (4 * j + 2)) & 0x3;
            r->coeffs[8 * i + j] = a - b;
        }*/
        asm volatile (".insn i 0x2b, 2, %[dst], %[src], 0\r\n" : [dst] "=r" (d) : [src] "r" (buf + 4 * i) : );

        asm volatile (".insn r 0x0b, 0x5, 0x9, %[dst], %[src], %[x]\r\n" : [dst] "=r" (r->coeffs[8 * i])      : [src] "r" (d), [x] "r" (0) : );
    2728:	4f81                	li	t6,0
        asm volatile (".insn r 0x0b, 0x5, 0x10, %[dst], %[src], %[x]\r\n" : [dst] "=r" (r->coeffs[8 * i + 1]) : [src] "r" (d), [x] "r" (1) : );
    272a:	4f05                	li	t5,1
        asm volatile (".insn r 0x0b, 0x5, 0x11, %[dst], %[src], %[x]\r\n" : [dst] "=r" (r->coeffs[8 * i + 2]) : [src] "r" (d), [x] "r" (2) : );
    272c:	4e89                	li	t4,2
        asm volatile (".insn r 0x0b, 0x5, 0x12, %[dst], %[src], %[x]\r\n" : [dst] "=r" (r->coeffs[8 * i + 3]) : [src] "r" (d), [x] "r" (3) : );
    272e:	4e0d                	li	t3,3
        asm volatile (".insn r 0x0b, 0x5, 0x13, %[dst], %[src], %[x]\r\n" : [dst] "=r" (r->coeffs[8 * i + 4]) : [src] "r" (d), [x] "r" (4) : );
    2730:	4311                	li	t1,4
        asm volatile (".insn r 0x0b, 0x5, 0x14, %[dst], %[src], %[x]\r\n" : [dst] "=r" (r->coeffs[8 * i + 5]) : [src] "r" (d), [x] "r" (5) : );
    2732:	4895                	li	a7,5
        asm volatile (".insn r 0x0b, 0x5, 0x15, %[dst], %[src], %[x]\r\n" : [dst] "=r" (r->coeffs[8 * i + 6]) : [src] "r" (d), [x] "r" (6) : );
    2734:	4819                	li	a6,6
        asm volatile (".insn r 0x0b, 0x5, 0x16, %[dst], %[src], %[x]\r\n" : [dst] "=r" (r->coeffs[8 * i + 7]) : [src] "r" (d), [x] "r" (7) : );
    2736:	451d                	li	a0,7
    for (i = 0; i < KYBER_N / 8; i++) {
    2738:	10000593          	li	a1,256
        asm volatile (".insn i 0x2b, 2, %[dst], %[src], 0\r\n" : [dst] "=r" (d) : [src] "r" (buf + 4 * i) : );
    273c:	0006272b          	0x6272b
        asm volatile (".insn r 0x0b, 0x5, 0x9, %[dst], %[src], %[x]\r\n" : [dst] "=r" (r->coeffs[8 * i])      : [src] "r" (d), [x] "r" (0) : );
    2740:	13f7528b          	0x13f7528b
    2744:	00179693          	slli	a3,a5,0x1
    2748:	96a6                	add	a3,a3,s1
    274a:	00569023          	sh	t0,0(a3)
        asm volatile (".insn r 0x0b, 0x5, 0x10, %[dst], %[src], %[x]\r\n" : [dst] "=r" (r->coeffs[8 * i + 1]) : [src] "r" (d), [x] "r" (1) : );
    274e:	21e7528b          	0x21e7528b
    2752:	00178693          	addi	a3,a5,1
    2756:	0686                	slli	a3,a3,0x1
    2758:	96a6                	add	a3,a3,s1
    275a:	00569023          	sh	t0,0(a3)
        asm volatile (".insn r 0x0b, 0x5, 0x11, %[dst], %[src], %[x]\r\n" : [dst] "=r" (r->coeffs[8 * i + 2]) : [src] "r" (d), [x] "r" (2) : );
    275e:	23d7528b          	0x23d7528b
    2762:	00278693          	addi	a3,a5,2
    2766:	0686                	slli	a3,a3,0x1
    2768:	96a6                	add	a3,a3,s1
    276a:	00569023          	sh	t0,0(a3)
        asm volatile (".insn r 0x0b, 0x5, 0x12, %[dst], %[src], %[x]\r\n" : [dst] "=r" (r->coeffs[8 * i + 3]) : [src] "r" (d), [x] "r" (3) : );
    276e:	25c7528b          	0x25c7528b
    2772:	00378693          	addi	a3,a5,3
    2776:	0686                	slli	a3,a3,0x1
    2778:	96a6                	add	a3,a3,s1
    277a:	00569023          	sh	t0,0(a3)
        asm volatile (".insn r 0x0b, 0x5, 0x13, %[dst], %[src], %[x]\r\n" : [dst] "=r" (r->coeffs[8 * i + 4]) : [src] "r" (d), [x] "r" (4) : );
    277e:	2667528b          	0x2667528b
    2782:	00478693          	addi	a3,a5,4
    2786:	0686                	slli	a3,a3,0x1
    2788:	96a6                	add	a3,a3,s1
    278a:	00569023          	sh	t0,0(a3)
        asm volatile (".insn r 0x0b, 0x5, 0x14, %[dst], %[src], %[x]\r\n" : [dst] "=r" (r->coeffs[8 * i + 5]) : [src] "r" (d), [x] "r" (5) : );
    278e:	2917528b          	0x2917528b
    2792:	00578693          	addi	a3,a5,5
    2796:	0686                	slli	a3,a3,0x1
    2798:	96a6                	add	a3,a3,s1
    279a:	00569023          	sh	t0,0(a3)
        asm volatile (".insn r 0x0b, 0x5, 0x15, %[dst], %[src], %[x]\r\n" : [dst] "=r" (r->coeffs[8 * i + 6]) : [src] "r" (d), [x] "r" (6) : );
    279e:	2b07528b          	0x2b07528b
    27a2:	00678693          	addi	a3,a5,6
    27a6:	0686                	slli	a3,a3,0x1
    27a8:	96a6                	add	a3,a3,s1
    27aa:	00569023          	sh	t0,0(a3)
        asm volatile (".insn r 0x0b, 0x5, 0x16, %[dst], %[src], %[x]\r\n" : [dst] "=r" (r->coeffs[8 * i + 7]) : [src] "r" (d), [x] "r" (7) : );
    27ae:	2ca7570b          	0x2ca7570b
    27b2:	00778693          	addi	a3,a5,7
    27b6:	0686                	slli	a3,a3,0x1
    27b8:	96a6                	add	a3,a3,s1
    27ba:	00e69023          	sh	a4,0(a3)
    for (i = 0; i < KYBER_N / 8; i++) {
    27be:	07a1                	addi	a5,a5,8
    27c0:	0611                	addi	a2,a2,4
    27c2:	f6b79de3          	bne	a5,a1,273c <PQCLEAN_KYBER1024_CLEAN_poly_getnoise_eta1+0xda>
}
    27c6:	12c12083          	lw	ra,300(sp)
    27ca:	12812483          	lw	s1,296(sp)
    27ce:	12412903          	lw	s2,292(sp)
    27d2:	12012983          	lw	s3,288(sp)
    27d6:	11c12a03          	lw	s4,284(sp)
    27da:	6155                	addi	sp,sp,304
    27dc:	8082                	ret
        exit(111);
    27de:	06f00513          	li	a0,111
    27e2:	a0bfd0ef          	jal	ra,1ec <exit>

000027e6 <PQCLEAN_KYBER1024_CLEAN_gen_matrix>:
void PQCLEAN_KYBER1024_CLEAN_gen_matrix(polyvec *a, const uint8_t seed[KYBER_SYMBYTES], int transposed) {
    27e6:	da010113          	addi	sp,sp,-608
    27ea:	24912c23          	sw	s1,600(sp)
    27ee:	25512423          	sw	s5,584(sp)
    27f2:	84aa                	mv	s1,a0
    27f4:	8ab2                	mv	s5,a2
    memcpy(extseed, seed, KYBER_SYMBYTES);
    27f6:	0808                	addi	a0,sp,16
    27f8:	02000613          	li	a2,32
void PQCLEAN_KYBER1024_CLEAN_gen_matrix(polyvec *a, const uint8_t seed[KYBER_SYMBYTES], int transposed) {
    27fc:	25312823          	sw	s3,592(sp)
    2800:	23a12a23          	sw	s10,564(sp)
    2804:	24112e23          	sw	ra,604(sp)
    2808:	25212a23          	sw	s2,596(sp)
    280c:	25412623          	sw	s4,588(sp)
    2810:	25612223          	sw	s6,580(sp)
    2814:	25712023          	sw	s7,576(sp)
    2818:	23812e23          	sw	s8,572(sp)
    281c:	23912c23          	sw	s9,568(sp)
    2820:	23b12823          	sw	s11,560(sp)
    2824:	c656                	sw	s5,12(sp)
    for (i = 0; i < KYBER_K; i++) {
    2826:	4981                	li	s3,0
    memcpy(extseed, seed, KYBER_SYMBYTES);
    2828:	637010ef          	jal	ra,465e <memcpy>
    keccak_absorb(state->ctx, SHAKE128_RATE, input, inlen, 0x1F);
    282c:	4d7d                	li	s10,31
void PQCLEAN_KYBER1024_CLEAN_gen_matrix(polyvec *a, const uint8_t seed[KYBER_SYMBYTES], int transposed) {
    282e:	8a26                	mv	s4,s1
        for (j = 0; j < KYBER_K; j++) {
    2830:	4901                	li	s2,0
    2832:	0ff9fb93          	zext.b	s7,s3
            while (ctr < KYBER_N) {
    2836:	0ff00b13          	li	s6,255
            if (transposed) {
    283a:	4732                	lw	a4,12(sp)
    283c:	0ff97793          	zext.b	a5,s2
    state->ctx = malloc(PQC_SHAKECTX_BYTES);
    2840:	0c800513          	li	a0,200
    2844:	16070e63          	beqz	a4,29c0 <PQCLEAN_KYBER1024_CLEAN_gen_matrix+0x1da>
                extseed[KYBER_SYMBYTES + 0] = (uint8_t)i;
    2848:	03710823          	sb	s7,48(sp)
                extseed[KYBER_SYMBYTES + 1] = (uint8_t)j;
    284c:	02f108a3          	sb	a5,49(sp)
    2850:	5f3010ef          	jal	ra,4642 <malloc>
    2854:	8daa                	mv	s11,a0
    if (state->ctx == NULL) {
    2856:	16050e63          	beqz	a0,29d2 <PQCLEAN_KYBER1024_CLEAN_gen_matrix+0x1ec>
    keccak_absorb(state->ctx, SHAKE128_RATE, input, inlen, 0x1F);
    285a:	477d                	li	a4,31
    285c:	02200693          	li	a3,34
    2860:	0810                	addi	a2,sp,16
    2862:	0a800593          	li	a1,168
    2866:	a8bff0ef          	jal	ra,22f0 <keccak_absorb>
        for (j = 0; j < KYBER_K; j++) {
    286a:	03410c13          	addi	s8,sp,52
    for (size_t i = 0; i < 8; ++i) {
    286e:	04000c93          	li	s9,64
        for (size_t i = 0; i < (r >> 3); i++) {
    2872:	0a800a93          	li	s5,168
        keccak_ip_driver(s,s);
    2876:	856e                	mv	a0,s11
    2878:	85ee                	mv	a1,s11
    287a:	8d5ff0ef          	jal	ra,214e <keccak_ip_driver>
    287e:	4501                	li	a0,0
            store64(h + 8 * i, s[i]);
    2880:	00ad87b3          	add	a5,s11,a0
    2884:	43cc                	lw	a1,4(a5)
    2886:	0007a883          	lw	a7,0(a5)
    288a:	00ac06b3          	add	a3,s8,a0
    288e:	4701                	li	a4,0
        x[i] = (uint8_t) (u >> 8 * i);
    2890:	00159813          	slli	a6,a1,0x1
    2894:	a809                	j	28a6 <PQCLEAN_KYBER1024_CLEAN_gen_matrix+0xc0>
    2896:	00f5d7b3          	srl	a5,a1,a5
    289a:	00f68023          	sb	a5,0(a3)
    for (size_t i = 0; i < 8; ++i) {
    289e:	0721                	addi	a4,a4,8
    28a0:	0685                	addi	a3,a3,1
    28a2:	03970363          	beq	a4,s9,28c8 <PQCLEAN_KYBER1024_CLEAN_gen_matrix+0xe2>
        x[i] = (uint8_t) (u >> 8 * i);
    28a6:	fe070793          	addi	a5,a4,-32
    28aa:	fe07d6e3          	bgez	a5,2896 <PQCLEAN_KYBER1024_CLEAN_gen_matrix+0xb0>
    28ae:	40ed0633          	sub	a2,s10,a4
    28b2:	00e8d7b3          	srl	a5,a7,a4
    28b6:	00c81633          	sll	a2,a6,a2
    28ba:	8fd1                	or	a5,a5,a2
    28bc:	00f68023          	sb	a5,0(a3)
    for (size_t i = 0; i < 8; ++i) {
    28c0:	0721                	addi	a4,a4,8
    28c2:	0685                	addi	a3,a3,1
    28c4:	ff9711e3          	bne	a4,s9,28a6 <PQCLEAN_KYBER1024_CLEAN_gen_matrix+0xc0>
        for (size_t i = 0; i < (r >> 3); i++) {
    28c8:	0521                	addi	a0,a0,8
    28ca:	fb551be3          	bne	a0,s5,2880 <PQCLEAN_KYBER1024_CLEAN_gen_matrix+0x9a>
        h += r;
    28ce:	0a8c0c13          	addi	s8,s8,168
    while (nblocks > 0) {
    28d2:	147c                	addi	a5,sp,556
    28d4:	fafc11e3          	bne	s8,a5,2876 <PQCLEAN_KYBER1024_CLEAN_gen_matrix+0x90>
            ctr = rej_uniform(a[i].vec[j].coeffs, KYBER_N, buf, buflen);
    28d8:	1f800693          	li	a3,504
    28dc:	1850                	addi	a2,sp,52
    28de:	10000593          	li	a1,256
    28e2:	8552                	mv	a0,s4
    28e4:	9eaff0ef          	jal	ra,1ace <rej_uniform>
    28e8:	8c2a                	mv	s8,a0
    for (size_t i = 0; i < 8; ++i) {
    28ea:	04000a93          	li	s5,64
        for (size_t i = 0; i < (r >> 3); i++) {
    28ee:	0a800c93          	li	s9,168
            while (ctr < KYBER_N) {
    28f2:	06ab6f63          	bltu	s6,a0,2970 <PQCLEAN_KYBER1024_CLEAN_gen_matrix+0x18a>
        keccak_ip_driver(s,s);
    28f6:	85ee                	mv	a1,s11
    28f8:	856e                	mv	a0,s11
    28fa:	855ff0ef          	jal	ra,214e <keccak_ip_driver>
    28fe:	03410f13          	addi	t5,sp,52
    2902:	4e81                	li	t4,0
            store64(h + 8 * i, s[i]);
    2904:	01dd87b3          	add	a5,s11,t4
    2908:	43cc                	lw	a1,4(a5)
    290a:	0007ae03          	lw	t3,0(a5)
    290e:	86fa                	mv	a3,t5
    2910:	4701                	li	a4,0
        x[i] = (uint8_t) (u >> 8 * i);
    2912:	00159513          	slli	a0,a1,0x1
    2916:	a809                	j	2928 <PQCLEAN_KYBER1024_CLEAN_gen_matrix+0x142>
    2918:	00f5d7b3          	srl	a5,a1,a5
    291c:	00f68023          	sb	a5,0(a3)
    for (size_t i = 0; i < 8; ++i) {
    2920:	0721                	addi	a4,a4,8
    2922:	0685                	addi	a3,a3,1
    2924:	03570363          	beq	a4,s5,294a <PQCLEAN_KYBER1024_CLEAN_gen_matrix+0x164>
        x[i] = (uint8_t) (u >> 8 * i);
    2928:	fe070793          	addi	a5,a4,-32
    292c:	fe07d6e3          	bgez	a5,2918 <PQCLEAN_KYBER1024_CLEAN_gen_matrix+0x132>
    2930:	40ed0633          	sub	a2,s10,a4
    2934:	00ee57b3          	srl	a5,t3,a4
    2938:	00c51633          	sll	a2,a0,a2
    293c:	8fd1                	or	a5,a5,a2
    293e:	00f68023          	sb	a5,0(a3)
    for (size_t i = 0; i < 8; ++i) {
    2942:	0721                	addi	a4,a4,8
    2944:	0685                	addi	a3,a3,1
    2946:	ff5711e3          	bne	a4,s5,2928 <PQCLEAN_KYBER1024_CLEAN_gen_matrix+0x142>
        for (size_t i = 0; i < (r >> 3); i++) {
    294a:	0ea1                	addi	t4,t4,8
    294c:	0f21                	addi	t5,t5,8
    294e:	fb9e9be3          	bne	t4,s9,2904 <PQCLEAN_KYBER1024_CLEAN_gen_matrix+0x11e>
                ctr += rej_uniform(a[i].vec[j].coeffs + ctr, KYBER_N - ctr, buf, buflen);
    2952:	001c1513          	slli	a0,s8,0x1
    2956:	10000793          	li	a5,256
    295a:	418785b3          	sub	a1,a5,s8
    295e:	0a800693          	li	a3,168
    2962:	1850                	addi	a2,sp,52
    2964:	9552                	add	a0,a0,s4
    2966:	968ff0ef          	jal	ra,1ace <rej_uniform>
    296a:	9c2a                	add	s8,s8,a0
            while (ctr < KYBER_N) {
    296c:	f98b75e3          	bgeu	s6,s8,28f6 <PQCLEAN_KYBER1024_CLEAN_gen_matrix+0x110>
        for (j = 0; j < KYBER_K; j++) {
    2970:	0905                	addi	s2,s2,1
    2972:	4791                	li	a5,4
    2974:	200a0a13          	addi	s4,s4,512
    2978:	ecf911e3          	bne	s2,a5,283a <PQCLEAN_KYBER1024_CLEAN_gen_matrix+0x54>
    for (i = 0; i < KYBER_K; i++) {
    297c:	6785                	lui	a5,0x1
    297e:	80078793          	addi	a5,a5,-2048 # 800 <main+0x5ea>
    2982:	0985                	addi	s3,s3,1
    2984:	94be                	add	s1,s1,a5
    2986:	eb2994e3          	bne	s3,s2,282e <PQCLEAN_KYBER1024_CLEAN_gen_matrix+0x48>
}
    298a:	25c12083          	lw	ra,604(sp)
    298e:	25812483          	lw	s1,600(sp)
    2992:	25412903          	lw	s2,596(sp)
    2996:	25012983          	lw	s3,592(sp)
    299a:	24c12a03          	lw	s4,588(sp)
    299e:	24812a83          	lw	s5,584(sp)
    29a2:	24412b03          	lw	s6,580(sp)
    29a6:	24012b83          	lw	s7,576(sp)
    29aa:	23c12c03          	lw	s8,572(sp)
    29ae:	23812c83          	lw	s9,568(sp)
    29b2:	23412d03          	lw	s10,564(sp)
    29b6:	23012d83          	lw	s11,560(sp)
    29ba:	26010113          	addi	sp,sp,608
    29be:	8082                	ret
                extseed[KYBER_SYMBYTES + 0] = (uint8_t)j;
    29c0:	02f10823          	sb	a5,48(sp)
                extseed[KYBER_SYMBYTES + 1] = (uint8_t)i;
    29c4:	037108a3          	sb	s7,49(sp)
    state->ctx = malloc(PQC_SHAKECTX_BYTES);
    29c8:	47b010ef          	jal	ra,4642 <malloc>
    29cc:	8daa                	mv	s11,a0
    if (state->ctx == NULL) {
    29ce:	e80516e3          	bnez	a0,285a <PQCLEAN_KYBER1024_CLEAN_gen_matrix+0x74>
        exit(111);
    29d2:	06f00513          	li	a0,111
    29d6:	817fd0ef          	jal	ra,1ec <exit>

000029da <PQCLEAN_KYBER1024_CLEAN_indcpa_enc>:
                                        const uint8_t coins[KYBER_SYMBYTES]) {
    29da:	9a010113          	addi	sp,sp,-1632
    29de:	72f1                	lui	t0,0xffffc
    29e0:	65412623          	sw	s4,1612(sp)
    PQCLEAN_KYBER1024_CLEAN_polyvec_frombytes(pk, packedpk);
    29e4:	6a11                	lui	s4,0x4
                                        const uint8_t coins[KYBER_SYMBYTES]) {
    29e6:	64112e23          	sw	ra,1628(sp)
    29ea:	64912c23          	sw	s1,1624(sp)
    29ee:	65212a23          	sw	s2,1620(sp)
    29f2:	65312823          	sw	s3,1616(sp)
    29f6:	65512423          	sw	s5,1608(sp)
    29fa:	65612223          	sw	s6,1604(sp)
    29fe:	65712023          	sw	s7,1600(sp)
    2a02:	63812e23          	sw	s8,1596(sp)
    2a06:	63912c23          	sw	s9,1592(sp)
    PQCLEAN_KYBER1024_CLEAN_polyvec_frombytes(pk, packedpk);
    2a0a:	620a0793          	addi	a5,s4,1568 # 4620 <_read_r+0x12>
                                        const uint8_t coins[KYBER_SYMBYTES]) {
    2a0e:	9116                	add	sp,sp,t0
    2a10:	84aa                	mv	s1,a0
    PQCLEAN_KYBER1024_CLEAN_polyvec_frombytes(pk, packedpk);
    2a12:	7575                	lui	a0,0xffffd
    2a14:	97aa                	add	a5,a5,a0
    2a16:	0818                	addi	a4,sp,16
    2a18:	00e78533          	add	a0,a5,a4
                                        const uint8_t coins[KYBER_SYMBYTES]) {
    2a1c:	8bae                	mv	s7,a1
    PQCLEAN_KYBER1024_CLEAN_polyvec_frombytes(pk, packedpk);
    2a1e:	85b2                	mv	a1,a2
                                        const uint8_t coins[KYBER_SYMBYTES]) {
    2a20:	8932                	mv	s2,a2
    2a22:	89b6                	mv	s3,a3
    PQCLEAN_KYBER1024_CLEAN_polyvec_frombytes(pk, packedpk);
    2a24:	e0efe0ef          	jal	ra,1032 <PQCLEAN_KYBER1024_CLEAN_polyvec_frombytes>
    memcpy(seed, packedpk + KYBER_POLYVECBYTES, KYBER_SYMBYTES);
    2a28:	77f1                	lui	a5,0xffffc
    2a2a:	620a0713          	addi	a4,s4,1568
    2a2e:	973e                	add	a4,a4,a5
    2a30:	081c                	addi	a5,sp,16
    2a32:	97ba                	add	a5,a5,a4
    2a34:	02000613          	li	a2,32
    2a38:	60090593          	addi	a1,s2,1536
    2a3c:	9e078513          	addi	a0,a5,-1568 # ffffb9e0 <_sp+0xfff1b230>
    2a40:	c63e                	sw	a5,12(sp)
    2a42:	41d010ef          	jal	ra,465e <memcpy>
    2a46:	4e85                	li	t4,1
            asm volatile (".insn r 0x0b, 0x006, 27, %[dst], %[src], %[src2]\r\n" : [dst] "=r" (r->coeffs[8*i+0])  : [src] "r" (msg[i]), [src2] "r" (0) :   );
    2a48:	4b01                	li	s6,0
            asm volatile (".insn r 0x0b, 0x006, 27, %[dst], %[src], %[src2]\r\n" : [dst] "=r" (r->coeffs[8*i+1])  : [src] "r" (msg[i]), [src2] "r" (1) :   );
    2a4a:	4a85                	li	s5,1
            asm volatile (".insn r 0x0b, 0x006, 27, %[dst], %[src], %[src2]\r\n" : [dst] "=r" (r->coeffs[8*i+2])  : [src] "r" (msg[i]), [src2] "r" (2) :   );
    2a4c:	4a09                	li	s4,2
            asm volatile (".insn r 0x0b, 0x006, 27, %[dst], %[src], %[src2]\r\n" : [dst] "=r" (r->coeffs[8*i+3])  : [src] "r" (msg[i]), [src2] "r" (3) :   );
    2a4e:	408d                	li	ra,3
            asm volatile (".insn r 0x0b, 0x006, 27, %[dst], %[src], %[src2]\r\n" : [dst] "=r" (r->coeffs[8*i+4])  : [src] "r" (msg[i]), [src2] "r" (4) :   );
    2a50:	4391                	li	t2,4
            asm volatile (".insn r 0x0b, 0x006, 27, %[dst], %[src], %[src2]\r\n" : [dst] "=r" (r->coeffs[8*i+5])  : [src] "r" (msg[i]), [src2] "r" (5) :   );
    2a52:	4295                	li	t0,5
            asm volatile (".insn r 0x0b, 0x006, 27, %[dst], %[src], %[src2]\r\n" : [dst] "=r" (r->coeffs[8*i+6])  : [src] "r" (msg[i]), [src2] "r" (6) :   );
    2a54:	4f99                	li	t6,6
            asm volatile (".insn r 0x0b, 0x006, 27, %[dst], %[src], %[src2]\r\n" : [dst] "=r" (r->coeffs[8*i+7])  : [src] "r" (msg[i]), [src2] "r" (7) :   );
    2a56:	4f1d                	li	t5,7
    for (i = 0; i < KYBER_N / 8; i++) {
    2a58:	10100c13          	li	s8,257
            asm volatile (".insn r 0x0b, 0x006, 27, %[dst], %[src], %[src2]\r\n" : [dst] "=r" (r->coeffs[8*i+0])  : [src] "r" (msg[i]), [src2] "r" (0) :   );
    2a5c:	4732                	lw	a4,12(sp)
    2a5e:	fffe8313          	addi	t1,t4,-1
            asm volatile (".insn r 0x0b, 0x006, 27, %[dst], %[src], %[src2]\r\n" : [dst] "=r" (r->coeffs[8*i+2])  : [src] "r" (msg[i]), [src2] "r" (2) :   );
    2a62:	001e8893          	addi	a7,t4,1
            asm volatile (".insn r 0x0b, 0x006, 27, %[dst], %[src], %[src2]\r\n" : [dst] "=r" (r->coeffs[8*i+3])  : [src] "r" (msg[i]), [src2] "r" (3) :   );
    2a66:	002e8813          	addi	a6,t4,2
            asm volatile (".insn r 0x0b, 0x006, 27, %[dst], %[src], %[src2]\r\n" : [dst] "=r" (r->coeffs[8*i+4])  : [src] "r" (msg[i]), [src2] "r" (4) :   );
    2a6a:	003e8693          	addi	a3,t4,3
            asm volatile (".insn r 0x0b, 0x006, 27, %[dst], %[src], %[src2]\r\n" : [dst] "=r" (r->coeffs[8*i+5])  : [src] "r" (msg[i]), [src2] "r" (5) :   );
    2a6e:	004e8513          	addi	a0,t4,4
            asm volatile (".insn r 0x0b, 0x006, 27, %[dst], %[src], %[src2]\r\n" : [dst] "=r" (r->coeffs[8*i+6])  : [src] "r" (msg[i]), [src2] "r" (6) :   );
    2a72:	005e8593          	addi	a1,t4,5
            asm volatile (".insn r 0x0b, 0x006, 27, %[dst], %[src], %[src2]\r\n" : [dst] "=r" (r->coeffs[8*i+7])  : [src] "r" (msg[i]), [src2] "r" (7) :   );
    2a76:	006e8613          	addi	a2,t4,6
    2a7a:	000bc783          	lbu	a5,0(s7)
    2a7e:	0306                	slli	t1,t1,0x1
    2a80:	001e9e13          	slli	t3,t4,0x1
    2a84:	0886                	slli	a7,a7,0x1
    2a86:	0806                	slli	a6,a6,0x1
    2a88:	0686                	slli	a3,a3,0x1
    2a8a:	0506                	slli	a0,a0,0x1
    2a8c:	0586                	slli	a1,a1,0x1
    2a8e:	0606                	slli	a2,a2,0x1
    2a90:	4921                	li	s2,8
            asm volatile (".insn r 0x0b, 0x006, 27, %[dst], %[src], %[src2]\r\n" : [dst] "=r" (r->coeffs[8*i+0])  : [src] "r" (msg[i]), [src2] "r" (0) :   );
    2a92:	933a                	add	t1,t1,a4
            asm volatile (".insn r 0x0b, 0x006, 27, %[dst], %[src], %[src2]\r\n" : [dst] "=r" (r->coeffs[8*i+1])  : [src] "r" (msg[i]), [src2] "r" (1) :   );
    2a94:	9e3a                	add	t3,t3,a4
            asm volatile (".insn r 0x0b, 0x006, 27, %[dst], %[src], %[src2]\r\n" : [dst] "=r" (r->coeffs[8*i+2])  : [src] "r" (msg[i]), [src2] "r" (2) :   );
    2a96:	98ba                	add	a7,a7,a4
            asm volatile (".insn r 0x0b, 0x006, 27, %[dst], %[src], %[src2]\r\n" : [dst] "=r" (r->coeffs[8*i+3])  : [src] "r" (msg[i]), [src2] "r" (3) :   );
    2a98:	983a                	add	a6,a6,a4
            asm volatile (".insn r 0x0b, 0x006, 27, %[dst], %[src], %[src2]\r\n" : [dst] "=r" (r->coeffs[8*i+4])  : [src] "r" (msg[i]), [src2] "r" (4) :   );
    2a9a:	96ba                	add	a3,a3,a4
            asm volatile (".insn r 0x0b, 0x006, 27, %[dst], %[src], %[src2]\r\n" : [dst] "=r" (r->coeffs[8*i+5])  : [src] "r" (msg[i]), [src2] "r" (5) :   );
    2a9c:	953a                	add	a0,a0,a4
            asm volatile (".insn r 0x0b, 0x006, 27, %[dst], %[src], %[src2]\r\n" : [dst] "=r" (r->coeffs[8*i+6])  : [src] "r" (msg[i]), [src2] "r" (6) :   );
    2a9e:	95ba                	add	a1,a1,a4
            asm volatile (".insn r 0x0b, 0x006, 27, %[dst], %[src], %[src2]\r\n" : [dst] "=r" (r->coeffs[8*i+7])  : [src] "r" (msg[i]), [src2] "r" (7) :   );
    2aa0:	963a                	add	a2,a2,a4
            asm volatile (".insn r 0x0b, 0x006, 27, %[dst], %[src], %[src2]\r\n" : [dst] "=r" (r->coeffs[8*i+0])  : [src] "r" (msg[i]), [src2] "r" (0) :   );
    2aa2:	3767e70b          	0x3767e70b
    2aa6:	c0e31023          	sh	a4,-1024(t1)
            asm volatile (".insn r 0x0b, 0x006, 27, %[dst], %[src], %[src2]\r\n" : [dst] "=r" (r->coeffs[8*i+1])  : [src] "r" (msg[i]), [src2] "r" (1) :   );
    2aaa:	3757e70b          	0x3757e70b
    2aae:	c0ee1023          	sh	a4,-1024(t3)
            asm volatile (".insn r 0x0b, 0x006, 27, %[dst], %[src], %[src2]\r\n" : [dst] "=r" (r->coeffs[8*i+2])  : [src] "r" (msg[i]), [src2] "r" (2) :   );
    2ab2:	3747e70b          	0x3747e70b
    2ab6:	c0e89023          	sh	a4,-1024(a7)
            asm volatile (".insn r 0x0b, 0x006, 27, %[dst], %[src], %[src2]\r\n" : [dst] "=r" (r->coeffs[8*i+3])  : [src] "r" (msg[i]), [src2] "r" (3) :   );
    2aba:	3617e70b          	0x3617e70b
    2abe:	c0e81023          	sh	a4,-1024(a6)
            asm volatile (".insn r 0x0b, 0x006, 27, %[dst], %[src], %[src2]\r\n" : [dst] "=r" (r->coeffs[8*i+4])  : [src] "r" (msg[i]), [src2] "r" (4) :   );
    2ac2:	3677e70b          	0x3677e70b
    2ac6:	c0e69023          	sh	a4,-1024(a3)
            asm volatile (".insn r 0x0b, 0x006, 27, %[dst], %[src], %[src2]\r\n" : [dst] "=r" (r->coeffs[8*i+5])  : [src] "r" (msg[i]), [src2] "r" (5) :   );
    2aca:	3657e70b          	0x3657e70b
    2ace:	c0e51023          	sh	a4,-1024(a0) # ffffcc00 <_sp+0xfff1c450>
            asm volatile (".insn r 0x0b, 0x006, 27, %[dst], %[src], %[src2]\r\n" : [dst] "=r" (r->coeffs[8*i+6])  : [src] "r" (msg[i]), [src2] "r" (6) :   );
    2ad2:	37f7e70b          	0x37f7e70b
    2ad6:	c0e59023          	sh	a4,-1024(a1)
            asm volatile (".insn r 0x0b, 0x006, 27, %[dst], %[src], %[src2]\r\n" : [dst] "=r" (r->coeffs[8*i+7])  : [src] "r" (msg[i]), [src2] "r" (7) :   );
    2ada:	37e7e70b          	0x37e7e70b
    2ade:	c0e61023          	sh	a4,-1024(a2)
        for (j = 0; j < 8; j++) {
    2ae2:	197d                	addi	s2,s2,-1
    2ae4:	fa091fe3          	bnez	s2,2aa2 <PQCLEAN_KYBER1024_CLEAN_indcpa_enc+0xc8>
    for (i = 0; i < KYBER_N / 8; i++) {
    2ae8:	0ea1                	addi	t4,t4,8
    2aea:	0b85                	addi	s7,s7,1
    2aec:	f78e98e3          	bne	t4,s8,2a5c <PQCLEAN_KYBER1024_CLEAN_indcpa_enc+0x82>
    PQCLEAN_KYBER1024_CLEAN_gen_matrix(at, seed, 1);
    2af0:	6a91                	lui	s5,0x4
    2af2:	75f1                	lui	a1,0xffffc
    2af4:	9e058593          	addi	a1,a1,-1568 # ffffb9e0 <_sp+0xfff1b230>
    2af8:	620a8793          	addi	a5,s5,1568 # 4620 <_read_r+0x12>
    2afc:	0818                	addi	a4,sp,16
    2afe:	97ae                	add	a5,a5,a1
    2b00:	00e785b3          	add	a1,a5,a4
    2b04:	7a79                	lui	s4,0xffffe
    2b06:	620a8793          	addi	a5,s5,1568
    2b0a:	97d2                	add	a5,a5,s4
    2b0c:	00e78533          	add	a0,a5,a4
    2b10:	4605                	li	a2,1
    2b12:	39d1                	jal	27e6 <PQCLEAN_KYBER1024_CLEAN_gen_matrix>
    for (i = 0; i < KYBER_K; i++) {
    2b14:	800a0a13          	addi	s4,s4,-2048 # ffffd800 <_sp+0xfff1d050>
    2b18:	620a8793          	addi	a5,s5,1568
    2b1c:	97d2                	add	a5,a5,s4
    2b1e:	0818                	addi	a4,sp,16
    2b20:	00e78ab3          	add	s5,a5,a4
    2b24:	4a01                	li	s4,0
    2b26:	4b11                	li	s6,4
        PQCLEAN_KYBER1024_CLEAN_poly_getnoise_eta1(sp.vec + i, coins, nonce++);
    2b28:	0ffa7613          	zext.b	a2,s4
    2b2c:	8556                	mv	a0,s5
    2b2e:	85ce                	mv	a1,s3
    for (i = 0; i < KYBER_K; i++) {
    2b30:	0a05                	addi	s4,s4,1
        PQCLEAN_KYBER1024_CLEAN_poly_getnoise_eta1(sp.vec + i, coins, nonce++);
    2b32:	b31ff0ef          	jal	ra,2662 <PQCLEAN_KYBER1024_CLEAN_poly_getnoise_eta1>
    for (i = 0; i < KYBER_K; i++) {
    2b36:	200a8a93          	addi	s5,s5,512
    2b3a:	ff6a17e3          	bne	s4,s6,2b28 <PQCLEAN_KYBER1024_CLEAN_indcpa_enc+0x14e>
    2b3e:	7a75                	lui	s4,0xffffd
    2b40:	6791                	lui	a5,0x4
    2b42:	800a0a13          	addi	s4,s4,-2048 # ffffc800 <_sp+0xfff1c050>
