
sw/applications/PQClean-ATHOS/test/crypto_kem/testvectors-kyber512_clean.elf:     file format elf32-littleriscv


Disassembly of section .vectors:

00000000 <__vector_start>:

.section .vectors, "ax"
.option norvc
vector_table:
	//  0 : exception Handler and user software interrupt
	j handler_exception
   0:	7c40206f          	j	27c4 <handler_exception>
	//  1 : supervisor software interrupt
	j __no_irq_handler
   4:	48d0006f          	j	c90 <__no_irq_handler>
	//  2 : unmapped
	j __no_irq_handler
   8:	4890006f          	j	c90 <__no_irq_handler>
	//  3 : machine software interrupt handler
	j handler_irq_software
   c:	1510206f          	j	295c <handler_irq_software>
	//  4 : user timer interrupt
	j __no_irq_handler
  10:	4810006f          	j	c90 <__no_irq_handler>
	//  5 : supervisor timer interrupt
	j __no_irq_handler
  14:	47d0006f          	j	c90 <__no_irq_handler>
	//  6 : unmapped
	j __no_irq_handler
  18:	4790006f          	j	c90 <__no_irq_handler>
	//  7 : machine timer interrupt handler
	j handler_irq_timer
  1c:	1710206f          	j	298c <handler_irq_timer>
	//  8 : user external interrupt
	j __no_irq_handler
  20:	4710006f          	j	c90 <__no_irq_handler>
	//  9 : supervisor external interrupt
	j __no_irq_handler
  24:	46d0006f          	j	c90 <__no_irq_handler>
	// 10 : unmapped
	j __no_irq_handler
  28:	4690006f          	j	c90 <__no_irq_handler>
	// 11 : machine external interrupt handler
	j handler_irq_external
  2c:	1910206f          	j	29bc <handler_irq_external>
	// 12 : unmapped
	j __no_irq_handler
  30:	4610006f          	j	c90 <__no_irq_handler>
	// 13 : unmapped
	j __no_irq_handler
  34:	45d0006f          	j	c90 <__no_irq_handler>
	// 14 : unmapped
	j __no_irq_handler
  38:	4590006f          	j	c90 <__no_irq_handler>
	// 15 : unmapped
	j __no_irq_handler
  3c:	4550006f          	j	c90 <__no_irq_handler>
	// 16 : fast interrupt - timer_1
	j handler_irq_fast_timer_1
  40:	2290206f          	j	2a68 <handler_irq_fast_timer_1>
	// 17 : fast interrupt - timer_2
	j handler_irq_fast_timer_2
  44:	27d0206f          	j	2ac0 <handler_irq_fast_timer_2>
	// 18 : fast interrupt - timer_3
	j handler_irq_fast_timer_3
  48:	2d10206f          	j	2b18 <handler_irq_fast_timer_3>
	// 19 : fast interrupt - dma
	j handler_irq_fast_dma
  4c:	1f90206f          	j	2a44 <handler_irq_fast_dma>
	// 20 : fast interrupt - spi
	j handler_irq_fast_spi
  50:	3210206f          	j	2b70 <handler_irq_fast_spi>
	// 21 : fast interrupt - spi_flash
	j handler_irq_fast_spi_flash
  54:	3750206f          	j	2bc8 <handler_irq_fast_spi_flash>
	// 22 : fast interrupt - gpio_0
	j handler_irq_fast_gpio_0
  58:	3c90206f          	j	2c20 <handler_irq_fast_gpio_0>
	// 23 : fast interrupt - gpio_1
	j handler_irq_fast_gpio_1
  5c:	41d0206f          	j	2c78 <handler_irq_fast_gpio_1>
	// 24 : fast interrupt - gpio_2
	j handler_irq_fast_gpio_2
  60:	4710206f          	j	2cd0 <handler_irq_fast_gpio_2>
	// 25 : fast interrupt - gpio_3
	j handler_irq_fast_gpio_3
  64:	4c50206f          	j	2d28 <handler_irq_fast_gpio_3>
	// 26 : fast interrupt - gpio_4
	j handler_irq_fast_gpio_4
  68:	5190206f          	j	2d80 <handler_irq_fast_gpio_4>
	// 27 : fast interrupt - gpio_5
	j handler_irq_fast_gpio_5
  6c:	56d0206f          	j	2dd8 <handler_irq_fast_gpio_5>
	// 28 : fast interrupt - gpio_6
	j handler_irq_fast_gpio_6
  70:	5c50206f          	j	2e34 <handler_irq_fast_gpio_6>
	// 29 : fast interrupt - gpio_7
	j handler_irq_fast_gpio_7
  74:	6190206f          	j	2e8c <handler_irq_fast_gpio_7>
	// 30 : fast interrupt - unmapped
	j __no_irq_handler
  78:	4190006f          	j	c90 <__no_irq_handler>
	// vendor interrupts: on Ibex interrupt id 31 is for non-maskable interrupts
	j __no_irq_handler
  7c:	4150006f          	j	c90 <__no_irq_handler>
	// 64-32 : not connected on Ibex
	j verification_irq_handler
  80:	4990006f          	j	d18 <verification_irq_handler>
	j __no_irq_handler
  84:	40d0006f          	j	c90 <__no_irq_handler>
	j __no_irq_handler
  88:	4090006f          	j	c90 <__no_irq_handler>
	j __no_irq_handler
  8c:	4050006f          	j	c90 <__no_irq_handler>
	j __no_irq_handler
  90:	4010006f          	j	c90 <__no_irq_handler>
	j __no_irq_handler
  94:	3fd0006f          	j	c90 <__no_irq_handler>
	j __no_irq_handler
  98:	3f90006f          	j	c90 <__no_irq_handler>
	j __no_irq_handler
  9c:	3f50006f          	j	c90 <__no_irq_handler>
	j __no_irq_handler
  a0:	3f10006f          	j	c90 <__no_irq_handler>
	j __no_irq_handler
  a4:	3ed0006f          	j	c90 <__no_irq_handler>
	j __no_irq_handler
  a8:	3e90006f          	j	c90 <__no_irq_handler>
	j __no_irq_handler
  ac:	3e50006f          	j	c90 <__no_irq_handler>
	j __no_irq_handler
  b0:	3e10006f          	j	c90 <__no_irq_handler>
	j __no_irq_handler
  b4:	3dd0006f          	j	c90 <__no_irq_handler>
	j __no_irq_handler
  b8:	3d90006f          	j	c90 <__no_irq_handler>
	j __no_irq_handler
  bc:	3d50006f          	j	c90 <__no_irq_handler>
	j __no_irq_handler
  c0:	3d10006f          	j	c90 <__no_irq_handler>
	j __no_irq_handler
  c4:	3cd0006f          	j	c90 <__no_irq_handler>
	j __no_irq_handler
  c8:	3c90006f          	j	c90 <__no_irq_handler>
	j __no_irq_handler
  cc:	3c50006f          	j	c90 <__no_irq_handler>
	j __no_irq_handler
  d0:	3c10006f          	j	c90 <__no_irq_handler>
	j __no_irq_handler
  d4:	3bd0006f          	j	c90 <__no_irq_handler>
	j __no_irq_handler
  d8:	3b90006f          	j	c90 <__no_irq_handler>
	j __no_irq_handler
  dc:	3b50006f          	j	c90 <__no_irq_handler>
	j __no_irq_handler
  e0:	3b10006f          	j	c90 <__no_irq_handler>
	j __no_irq_handler
  e4:	3ad0006f          	j	c90 <__no_irq_handler>
	j __no_irq_handler
  e8:	3a90006f          	j	c90 <__no_irq_handler>
	j __no_irq_handler
  ec:	3a50006f          	j	c90 <__no_irq_handler>
	j __no_irq_handler
  f0:	3a10006f          	j	c90 <__no_irq_handler>
	j __no_irq_handler
  f4:	39d0006f          	j	c90 <__no_irq_handler>
	j __no_irq_handler
  f8:	3990006f          	j	c90 <__no_irq_handler>
	j __no_irq_handler
  fc:	3950006f          	j	c90 <__no_irq_handler>
	j __no_irq_handler
 100:	3910006f          	j	c90 <__no_irq_handler>

Disassembly of section .init:

00000180 <_start>:

_start:
/* initialize global pointer */
.option push
.option norelax
1: auipc gp, %pcrel_hi(__global_pointer$)
 180:	00081197          	auipc	gp,0x81
   addi  gp, gp, %pcrel_lo(1b)
 184:	cb418193          	addi	gp,gp,-844 # 80e34 <__global_pointer$>
.option pop

/* initialize stack pointer */
   la sp, _sp
 188:	000e0117          	auipc	sp,0xe0
 18c:	72810113          	addi	sp,sp,1832 # e08b0 <_sp>

/* set the frequency */
   li a0, SOC_CTRL_START_ADDRESS
 190:	20000537          	lui	a0,0x20000
   li a2, REFERENCE_CLOCK_Hz
 194:	05f5e637          	lui	a2,0x5f5e
 198:	10060613          	addi	a2,a2,256 # 5f5e100 <_sp+0x5e7d850>
   sw a2, SOC_CTRL_SYSTEM_FREQUENCY_HZ_REG_OFFSET(a0)
 19c:	cd50                	sw	a2,28(a0)
    sub    a2, a2, a0
    li     a1, 0
    call   memset
#else
/* clear the bss segment */
   la a0, __bss_start
 19e:	00080517          	auipc	a0,0x80
 1a2:	50650513          	addi	a0,a0,1286 # 806a4 <outleft>
   la a2, __bss_end
 1a6:	00080617          	auipc	a2,0x80
 1aa:	6fe60613          	addi	a2,a2,1790 # 808a4 <__BSS_END__>
   sub a2, a2, a0
 1ae:	8e09                	sub	a2,a2,a0
   li a1, 0
 1b0:	4581                	li	a1,0
   call memset
 1b2:	5db020ef          	jal	ra,2f8c <memset>
    blt a1, a2, loop_init_data
    end_init_data:
#endif

/* set vector table address and vectored mode */
    la a0, __vector_start
 1b6:	00000517          	auipc	a0,0x0
 1ba:	e4a50513          	addi	a0,a0,-438 # 0 <__vector_start>
    ori a0, a0, 0x1
 1be:	00156513          	ori	a0,a0,1
    csrw mtvec, a0
 1c2:	30551073          	csrw	mtvec,a0

/* new-style constructors and destructors */
    la a0, __libc_fini_array
 1c6:	00003517          	auipc	a0,0x3
 1ca:	d2650513          	addi	a0,a0,-730 # 2eec <__libc_fini_array>
    call atexit
 1ce:	515020ef          	jal	ra,2ee2 <atexit>
    call __libc_init_array
 1d2:	555020ef          	jal	ra,2f26 <__libc_init_array>

/* call main */
    lw a0, 0(sp)                    /* a0 = argc */
 1d6:	4502                	lw	a0,0(sp)
    addi a1, sp, __SIZEOF_POINTER__ /* a1 = argv */
 1d8:	004c                	addi	a1,sp,4
    li a2, 0                        /* a2 = envp = NULL */
 1da:	4601                	li	a2,0
    call main
 1dc:	03a000ef          	jal	ra,216 <main>
    tail exit
 1e0:	00c0006f          	j	1ec <exit>

000001e4 <_init>:
.global _init
.type   _init, @function
.global _fini
.type   _fini, @function
_init:
    call init
 1e4:	4cc020ef          	jal	ra,26b0 <init>

000001e8 <_fini>:
_fini:
 /* These don't have to do anything since we use init_array/fini_array. Prevent
    missing symbol error */
    ret
 1e8:	8082                	ret

Disassembly of section .text:

000001ec <exit>:
     1ec:	1141                	addi	sp,sp,-16
     1ee:	678d                	lui	a5,0x3
     1f0:	c422                	sw	s0,8(sp)
     1f2:	c606                	sw	ra,12(sp)
     1f4:	3de78793          	addi	a5,a5,990 # 33de <__call_exitprocs>
     1f8:	842a                	mv	s0,a0
     1fa:	c781                	beqz	a5,202 <exit+0x16>
     1fc:	4581                	li	a1,0
     1fe:	1e0030ef          	jal	ra,33de <__call_exitprocs>
     202:	000807b7          	lui	a5,0x80
     206:	6947a503          	lw	a0,1684(a5) # 80694 <_global_impure_ptr>
     20a:	551c                	lw	a5,40(a0)
     20c:	c391                	beqz	a5,210 <exit+0x24>
     20e:	9782                	jalr	a5
     210:	8522                	mv	a0,s0
     212:	4a6020ef          	jal	ra,26b8 <_exit>

00000216 <main>:

#define crypto_kem_keypair NAMESPACE(crypto_kem_keypair)
#define crypto_kem_enc NAMESPACE(crypto_kem_enc)
#define crypto_kem_dec NAMESPACE(crypto_kem_dec)

int main(void) {
     216:	72f9                	lui	t0,0xffffe
     218:	7139                	addi	sp,sp,-64
     21a:	02028293          	addi	t0,t0,32 # ffffe020 <_sp+0xfff1d770>
    uint8_t sk_a[CRYPTO_SECRETKEYBYTES];
    int i, j;
    unsigned int cycles_keygen, cycles_enc, cycles_dec;
    

    printf("Hi testvectors KEM!\n");
     21e:	00080537          	lui	a0,0x80
int main(void) {
     222:	de06                	sw	ra,60(sp)
     224:	dc26                	sw	s1,56(sp)
     226:	da4a                	sw	s2,52(sp)
     228:	d84e                	sw	s3,48(sp)
     22a:	d652                	sw	s4,44(sp)
     22c:	d456                	sw	s5,40(sp)
     22e:	d25a                	sw	s6,36(sp)
     230:	d05e                	sw	s7,32(sp)
     232:	ce62                	sw	s8,28(sp)
    printf("Hi testvectors KEM!\n");
     234:	0dc50513          	addi	a0,a0,220 # 800dc <no_exception_handler_msg+0x47>
int main(void) {
     238:	9116                	add	sp,sp,t0
    printf("Hi testvectors KEM!\n");
     23a:	641020ef          	jal	ra,307a <puts>
    init_athos();
     23e:	3e3000ef          	jal	ra,e20 <init_athos>
    CSR_CLEAR_BITS(CSR_REG_MCOUNTINHIBIT, 0x1);
     242:	4785                	li	a5,1
     244:	3207b073          	csrc	mcountinhibit,a5
    // Starting the performance counter
    CSR_WRITE(CSR_REG_MCYCLE, 0);
     248:	4781                	li	a5,0
     24a:	b0079073          	csrw	mcycle,a5
**************************************************/
int PQCLEAN_KYBER512_CLEAN_crypto_kem_keypair(uint8_t *pk,
        uint8_t *sk) {
    uint8_t coins[2 * KYBER_SYMBYTES];

    randombytes(coins, 2 * KYBER_SYMBYTES);
     24e:	6a89                	lui	s5,0x2
     250:	7979                	lui	s2,0xffffe
     252:	04090993          	addi	s3,s2,64 # ffffe040 <_sp+0xfff1d790>
     256:	fe0a8793          	addi	a5,s5,-32 # 1fe0 <PQCLEAN_KYBER512_CLEAN_gen_matrix+0x1d6>
     25a:	97ce                	add	a5,a5,s3
     25c:	0818                	addi	a4,sp,16
     25e:	00e789b3          	add	s3,a5,a4
     262:	854e                	mv	a0,s3
     264:	04000593          	li	a1,64
     268:	06e010ef          	jal	ra,12d6 <randombytes>
    const uint8_t *noiseseed = buf + KYBER_SYMBYTES;
    uint8_t nonce = 0;
    polyvec a[KYBER_K], e, pkpv, skpv;

    //hash_g(buf, coins, KYBER_SYMBYTES);
    sha3_512(buf, coins, KYBER_SYMBYTES);
     26c:	08090493          	addi	s1,s2,128
     270:	fe0a8793          	addi	a5,s5,-32
     274:	0818                	addi	a4,sp,16
     276:	97a6                	add	a5,a5,s1
     278:	00e784b3          	add	s1,a5,a4
     27c:	85ce                	mv	a1,s3
     27e:	8526                	mv	a0,s1
     280:	02000613          	li	a2,32
     284:	187010ef          	jal	ra,1c0a <sha3_512>

    PQCLEAN_KYBER512_CLEAN_gen_matrix(a, publicseed, 0);
     288:	6c05                	lui	s8,0x1
     28a:	081c                	addi	a5,sp,16
     28c:	7e0c0513          	addi	a0,s8,2016 # 17e0 <intt_driver+0x6e>
     290:	85a6                	mv	a1,s1
     292:	953e                	add	a0,a0,a5
     294:	4601                	li	a2,0
     296:	375010ef          	jal	ra,1e0a <PQCLEAN_KYBER512_CLEAN_gen_matrix>

    for (i = 0; i < KYBER_K; i++) {
        PQCLEAN_KYBER512_CLEAN_poly_getnoise_eta1(&skpv.vec[i], noiseseed, nonce++);
     29a:	79fd                	lui	s3,0xfffff
     29c:	da098a13          	addi	s4,s3,-608 # ffffeda0 <_sp+0xfff1e4f0>
     2a0:	fe0a8793          	addi	a5,s5,-32
     2a4:	97d2                	add	a5,a5,s4
     2a6:	0818                	addi	a4,sp,16
     2a8:	00e78a33          	add	s4,a5,a4
     2ac:	02048493          	addi	s1,s1,32
     2b0:	4601                	li	a2,0
     2b2:	85a6                	mv	a1,s1
     2b4:	8552                	mv	a0,s4
     2b6:	689010ef          	jal	ra,213e <PQCLEAN_KYBER512_CLEAN_poly_getnoise_eta1>
     2ba:	200a0b13          	addi	s6,s4,512
     2be:	4605                	li	a2,1
     2c0:	85a6                	mv	a1,s1
     2c2:	855a                	mv	a0,s6
     2c4:	67b010ef          	jal	ra,213e <PQCLEAN_KYBER512_CLEAN_poly_getnoise_eta1>
    }
    for (i = 0; i < KYBER_K; i++) {
        PQCLEAN_KYBER512_CLEAN_poly_getnoise_eta1(&e.vec[i], noiseseed, nonce++);
     2c8:	5a090913          	addi	s2,s2,1440
     2cc:	fe0a8793          	addi	a5,s5,-32
     2d0:	97ca                	add	a5,a5,s2
     2d2:	0818                	addi	a4,sp,16
     2d4:	00e78933          	add	s2,a5,a4
     2d8:	854a                	mv	a0,s2
     2da:	4609                	li	a2,2
     2dc:	85a6                	mv	a1,s1
     2de:	661010ef          	jal	ra,213e <PQCLEAN_KYBER512_CLEAN_poly_getnoise_eta1>
     2e2:	8bd6                	mv	s7,s5
     2e4:	20090a93          	addi	s5,s2,512
     2e8:	460d                	li	a2,3
     2ea:	85a6                	mv	a1,s1
     2ec:	8556                	mv	a0,s5
     2ee:	651010ef          	jal	ra,213e <PQCLEAN_KYBER512_CLEAN_poly_getnoise_eta1>
    }

   
    //PQCLEAN_KYBER512_CLEAN_polyvec_ntt(&skpv);
    ntt_driver(skpv.vec[0].coeffs, skpv.vec[0].coeffs);
     2f2:	85d2                	mv	a1,s4
     2f4:	8552                	mv	a0,s4
     2f6:	316010ef          	jal	ra,160c <ntt_driver>
    ntt_driver(skpv.vec[1].coeffs, skpv.vec[1].coeffs);
     2fa:	85da                	mv	a1,s6
     2fc:	855a                	mv	a0,s6
     2fe:	30e010ef          	jal	ra,160c <ntt_driver>

    //PQCLEAN_KYBER512_CLEAN_polyvec_ntt(&e);
    ntt_driver(e.vec[0].coeffs, e.vec[0].coeffs);
     302:	85ca                	mv	a1,s2
     304:	854a                	mv	a0,s2
     306:	306010ef          	jal	ra,160c <ntt_driver>
    ntt_driver(e.vec[1].coeffs, e.vec[1].coeffs);
     30a:	85d6                	mv	a1,s5
     30c:	8556                	mv	a0,s5
     30e:	2fe010ef          	jal	ra,160c <ntt_driver>

    // matrix-vector multiplication
    for (i = 0; i < KYBER_K; i++) {
        PQCLEAN_KYBER512_CLEAN_polyvec_basemul_acc_montgomery(&pkpv.vec[i], &a[i], &skpv);
     312:	9a098993          	addi	s3,s3,-1632
     316:	fe0b8793          	addi	a5,s7,-32
     31a:	0818                	addi	a4,sp,16
     31c:	97ce                	add	a5,a5,s3
     31e:	00e789b3          	add	s3,a5,a4
     322:	7e0c0593          	addi	a1,s8,2016
     326:	95ba                	add	a1,a1,a4
     328:	8652                	mv	a2,s4
     32a:	854e                	mv	a0,s3
     32c:	6b9000ef          	jal	ra,11e4 <PQCLEAN_KYBER512_CLEAN_polyvec_basemul_acc_montgomery>
        //unsigned int cycles_montg;
    
        //CSR_CLEAR_BITS(CSR_REG_MCOUNTINHIBIT, 0x1);
        // Starting the performance counter
        //CSR_WRITE(CSR_REG_MCYCLE, 0);
        asm volatile (".insn r 0x0b, 0x003, 2, %[dst], %[src], x0\r\n" : [dst] "=r" (r->coeffs[i]) : [src] "r" ((int32_t)r->coeffs[i] * f) : );
     330:	787d                	lui	a6,0xfffff
     332:	894e                	mv	s2,s3
     334:	864e                	mv	a2,s3
    for (i = 0; i < KYBER_N; i++) {
     336:	4701                	li	a4,0
        asm volatile (".insn r 0x0b, 0x003, 2, %[dst], %[src], x0\r\n" : [dst] "=r" (r->coeffs[i]) : [src] "r" ((int32_t)r->coeffs[i] * f) : );
     338:	54900513          	li	a0,1353
    for (i = 0; i < KYBER_N; i++) {
     33c:	10000593          	li	a1,256
        asm volatile (".insn r 0x0b, 0x003, 2, %[dst], %[src], x0\r\n" : [dst] "=r" (r->coeffs[i]) : [src] "r" ((int32_t)r->coeffs[i] * f) : );
     340:	00061783          	lh	a5,0(a2)
     344:	02a787b3          	mul	a5,a5,a0
     348:	0407b78b          	0x407b78b
     34c:	6485                	lui	s1,0x1
     34e:	1481                	addi	s1,s1,-32
     350:	01010893          	addi	a7,sp,16
     354:	00171693          	slli	a3,a4,0x1
     358:	94c6                	add	s1,s1,a7
     35a:	96a6                	add	a3,a3,s1
     35c:	9af69023          	sh	a5,-1632(a3)
    for (i = 0; i < KYBER_N; i++) {
     360:	0705                	addi	a4,a4,1
     362:	0609                	addi	a2,a2,2
     364:	fcb71ee3          	bne	a4,a1,340 <main+0x12a>
     368:	6709                	lui	a4,0x2
     36a:	fe070793          	addi	a5,a4,-32 # 1fe0 <PQCLEAN_KYBER512_CLEAN_gen_matrix+0x1d6>
     36e:	97c2                	add	a5,a5,a6
     370:	97c6                	add	a5,a5,a7
     372:	ba078493          	addi	s1,a5,-1120
     376:	da080613          	addi	a2,a6,-608 # ffffeda0 <_sp+0xfff1e4f0>
     37a:	fe070793          	addi	a5,a4,-32
     37e:	97b2                	add	a5,a5,a2
     380:	01178633          	add	a2,a5,a7
     384:	bf070793          	addi	a5,a4,-1040
     388:	002785b3          	add	a1,a5,sp
     38c:	8526                	mv	a0,s1
     38e:	8a3a                	mv	s4,a4
     390:	655000ef          	jal	ra,11e4 <PQCLEAN_KYBER512_CLEAN_polyvec_basemul_acc_montgomery>
        asm volatile (".insn r 0x0b, 0x003, 2, %[dst], %[src], x0\r\n" : [dst] "=r" (r->coeffs[i]) : [src] "r" ((int32_t)r->coeffs[i] * f) : );
     394:	77fd                	lui	a5,0xfffff
     396:	fe0a0693          	addi	a3,s4,-32
     39a:	96be                	add	a3,a3,a5
     39c:	081c                	addi	a5,sp,16
     39e:	97b6                	add	a5,a5,a3
     3a0:	8626                	mv	a2,s1
     3a2:	85a6                	mv	a1,s1
    for (i = 0; i < KYBER_N; i++) {
     3a4:	4701                	li	a4,0
        asm volatile (".insn r 0x0b, 0x003, 2, %[dst], %[src], x0\r\n" : [dst] "=r" (r->coeffs[i]) : [src] "r" ((int32_t)r->coeffs[i] * f) : );
     3a6:	54900813          	li	a6,1353
     3aa:	c63e                	sw	a5,12(sp)
    for (i = 0; i < KYBER_N; i++) {
     3ac:	10000513          	li	a0,256
        asm volatile (".insn r 0x0b, 0x003, 2, %[dst], %[src], x0\r\n" : [dst] "=r" (r->coeffs[i]) : [src] "r" ((int32_t)r->coeffs[i] * f) : );
     3b0:	00059783          	lh	a5,0(a1)
     3b4:	030787b3          	mul	a5,a5,a6
     3b8:	0407b78b          	0x407b78b
     3bc:	48b2                	lw	a7,12(sp)
     3be:	00171693          	slli	a3,a4,0x1
    for (i = 0; i < KYBER_N; i++) {
     3c2:	0705                	addi	a4,a4,1
        asm volatile (".insn r 0x0b, 0x003, 2, %[dst], %[src], x0\r\n" : [dst] "=r" (r->coeffs[i]) : [src] "r" ((int32_t)r->coeffs[i] * f) : );
     3c4:	96c6                	add	a3,a3,a7
     3c6:	baf69023          	sh	a5,-1120(a3)
    for (i = 0; i < KYBER_N; i++) {
     3ca:	0589                	addi	a1,a1,2
     3cc:	fea712e3          	bne	a4,a0,3b0 <main+0x19a>
     3d0:	76f9                	lui	a3,0xffffe
     3d2:	6789                	lui	a5,0x2
     3d4:	5a068693          	addi	a3,a3,1440 # ffffe5a0 <_sp+0xfff1dcf0>
     3d8:	1781                	addi	a5,a5,-32
     3da:	97b6                	add	a5,a5,a3
     3dc:	0818                	addi	a4,sp,16
     3de:	00e786b3          	add	a3,a5,a4
     3e2:	20098513          	addi	a0,s3,512
     3e6:	87ce                	mv	a5,s3
*            - const poly *b: pointer to second input polynomial
**************************************************/
void PQCLEAN_KYBER512_CLEAN_poly_add(poly *r, const poly *a, const poly *b) {
    size_t i;
    for (i = 0; i < KYBER_N; i++) {
        r->coeffs[i] = a->coeffs[i] + b->coeffs[i];
     3e8:	0007d703          	lhu	a4,0(a5) # 2000 <PQCLEAN_KYBER512_CLEAN_gen_matrix+0x1f6>
     3ec:	0006d583          	lhu	a1,0(a3)
    for (i = 0; i < KYBER_N; i++) {
     3f0:	0789                	addi	a5,a5,2
     3f2:	0689                	addi	a3,a3,2
        r->coeffs[i] = a->coeffs[i] + b->coeffs[i];
     3f4:	972e                	add	a4,a4,a1
     3f6:	fee79f23          	sh	a4,-2(a5)
    for (i = 0; i < KYBER_N; i++) {
     3fa:	fef517e3          	bne	a0,a5,3e8 <main+0x1d2>
     3fe:	6789                	lui	a5,0x2
     400:	76f9                	lui	a3,0xffffe
     402:	1781                	addi	a5,a5,-32
     404:	97b6                	add	a5,a5,a3
     406:	0818                	addi	a4,sp,16
     408:	00e786b3          	add	a3,a5,a4
     40c:	7a068693          	addi	a3,a3,1952 # ffffe7a0 <_sp+0xfff1def0>
     410:	40098993          	addi	s3,s3,1024
     414:	87a6                	mv	a5,s1
        r->coeffs[i] = a->coeffs[i] + b->coeffs[i];
     416:	0007d703          	lhu	a4,0(a5) # 2000 <PQCLEAN_KYBER512_CLEAN_gen_matrix+0x1f6>
     41a:	0006d583          	lhu	a1,0(a3)
    for (i = 0; i < KYBER_N; i++) {
     41e:	0789                	addi	a5,a5,2
     420:	0689                	addi	a3,a3,2
        r->coeffs[i] = a->coeffs[i] + b->coeffs[i];
     422:	972e                	add	a4,a4,a1
     424:	fee79f23          	sh	a4,-2(a5)
    for (i = 0; i < KYBER_N; i++) {
     428:	fef997e3          	bne	s3,a5,416 <main+0x200>
        asm volatile (".insn r 0x0b, 0x004, 0, %[dst], %[src], x0\r\n" : [dst] "=r" (r->coeffs[i]) : [src] "r" (r->coeffs[i]) : );
     42c:	6689                	lui	a3,0x2
     42e:	777d                	lui	a4,0xfffff
     430:	1681                	addi	a3,a3,-32
     432:	96ba                	add	a3,a3,a4
     434:	0818                	addi	a4,sp,16
     436:	9736                	add	a4,a4,a3
    for (i = 0; i < KYBER_N; i++) {
     438:	4781                	li	a5,0
        asm volatile (".insn r 0x0b, 0x004, 0, %[dst], %[src], x0\r\n" : [dst] "=r" (r->coeffs[i]) : [src] "r" (r->coeffs[i]) : );
     43a:	c63a                	sw	a4,12(sp)
    for (i = 0; i < KYBER_N; i++) {
     43c:	10000593          	li	a1,256
        asm volatile (".insn r 0x0b, 0x004, 0, %[dst], %[src], x0\r\n" : [dst] "=r" (r->coeffs[i]) : [src] "r" (r->coeffs[i]) : );
     440:	00095683          	lhu	a3,0(s2)
     444:	0006c68b          	0x6c68b
     448:	4532                	lw	a0,12(sp)
     44a:	00179713          	slli	a4,a5,0x1
    for (i = 0; i < KYBER_N; i++) {
     44e:	0785                	addi	a5,a5,1
        asm volatile (".insn r 0x0b, 0x004, 0, %[dst], %[src], x0\r\n" : [dst] "=r" (r->coeffs[i]) : [src] "r" (r->coeffs[i]) : );
     450:	972a                	add	a4,a4,a0
     452:	9ad71023          	sh	a3,-1632(a4) # ffffe9a0 <_sp+0xfff1e0f0>
    for (i = 0; i < KYBER_N; i++) {
     456:	0909                	addi	s2,s2,2
     458:	feb794e3          	bne	a5,a1,440 <main+0x22a>
        asm volatile (".insn r 0x0b, 0x004, 0, %[dst], %[src], x0\r\n" : [dst] "=r" (r->coeffs[i]) : [src] "r" (r->coeffs[i]) : );
     45c:	74fd                	lui	s1,0xfffff
    for (i = 0; i < KYBER_N; i++) {
     45e:	4781                	li	a5,0
     460:	10000593          	li	a1,256
        asm volatile (".insn r 0x0b, 0x004, 0, %[dst], %[src], x0\r\n" : [dst] "=r" (r->coeffs[i]) : [src] "r" (r->coeffs[i]) : );
     464:	00065683          	lhu	a3,0(a2)
     468:	0006c68b          	0x6c68b
     46c:	6505                	lui	a0,0x1
     46e:	1501                	addi	a0,a0,-32
     470:	01010813          	addi	a6,sp,16
     474:	00179713          	slli	a4,a5,0x1
     478:	9542                	add	a0,a0,a6
     47a:	972a                	add	a4,a4,a0
     47c:	bad71023          	sh	a3,-1120(a4)
    for (i = 0; i < KYBER_N; i++) {
     480:	0785                	addi	a5,a5,1
     482:	0609                	addi	a2,a2,2
     484:	feb790e3          	bne	a5,a1,464 <main+0x24e>
    PQCLEAN_KYBER512_CLEAN_polyvec_tobytes(r, sk);
     488:	6a09                	lui	s4,0x2
     48a:	da048593          	addi	a1,s1,-608 # ffffeda0 <_sp+0xfff1e4f0>
     48e:	fe0a0793          	addi	a5,s4,-32 # 1fe0 <PQCLEAN_KYBER512_CLEAN_gen_matrix+0x1d6>
     492:	97ae                	add	a5,a5,a1
     494:	010785b3          	add	a1,a5,a6
     498:	1a048513          	addi	a0,s1,416
     49c:	fe0a0793          	addi	a5,s4,-32
     4a0:	97aa                	add	a5,a5,a0
     4a2:	01078533          	add	a0,a5,a6
     4a6:	3a9000ef          	jal	ra,104e <PQCLEAN_KYBER512_CLEAN_polyvec_tobytes>
    PQCLEAN_KYBER512_CLEAN_polyvec_tobytes(r, pk);
     4aa:	79f9                	lui	s3,0xffffe
     4ac:	28098913          	addi	s2,s3,640 # ffffe280 <_sp+0xfff1d9d0>
     4b0:	fe0a0713          	addi	a4,s4,-32
     4b4:	0814                	addi	a3,sp,16
     4b6:	974a                	add	a4,a4,s2
     4b8:	9a048593          	addi	a1,s1,-1632
     4bc:	fe0a0793          	addi	a5,s4,-32
     4c0:	00d70933          	add	s2,a4,a3
     4c4:	97ae                	add	a5,a5,a1
     4c6:	00d785b3          	add	a1,a5,a3
     4ca:	854a                	mv	a0,s2
     4cc:	383000ef          	jal	ra,104e <PQCLEAN_KYBER512_CLEAN_polyvec_tobytes>
    memcpy(r + KYBER_POLYVECBYTES, seed, KYBER_SYMBYTES);
     4d0:	08098793          	addi	a5,s3,128
     4d4:	fe0a0713          	addi	a4,s4,-32
     4d8:	973e                	add	a4,a4,a5
     4da:	081c                	addi	a5,sp,16
     4dc:	97ba                	add	a5,a5,a4
     4de:	0007a303          	lw	t1,0(a5)
     4e2:	4f94                	lw	a3,24(a5)
     4e4:	4fd8                	lw	a4,28(a5)
     4e6:	0047a883          	lw	a7,4(a5)
     4ea:	0087a803          	lw	a6,8(a5)
     4ee:	47c8                	lw	a0,12(a5)
     4f0:	4b8c                	lw	a1,16(a5)
     4f2:	4bd0                	lw	a2,20(a5)
    memcpy(sk + KYBER_INDCPA_SECRETKEYBYTES, pk, KYBER_PUBLICKEYBYTES);
     4f4:	fe0a0493          	addi	s1,s4,-32
     4f8:	6785                	lui	a5,0x1
     4fa:	30692023          	sw	t1,768(s2)
     4fe:	94ce                	add	s1,s1,s3
     500:	01010313          	addi	t1,sp,16
     504:	1781                	addi	a5,a5,-32
     506:	949a                	add	s1,s1,t1
     508:	979a                	add	a5,a5,t1
     50a:	30d92c23          	sw	a3,792(s2)
     50e:	30e92e23          	sw	a4,796(s2)
     512:	c626                	sw	s1,12(sp)
     514:	31192223          	sw	a7,772(s2)
     518:	31092423          	sw	a6,776(s2)
     51c:	30a92623          	sw	a0,780(s2)
     520:	30b92823          	sw	a1,784(s2)
     524:	30c92a23          	sw	a2,788(s2)
     528:	28048713          	addi	a4,s1,640
     52c:	4a078793          	addi	a5,a5,1184 # 14a0 <randombytes+0x1ca>
     530:	5a048693          	addi	a3,s1,1440
     534:	00072803          	lw	a6,0(a4)
     538:	4348                	lw	a0,4(a4)
     53a:	470c                	lw	a1,8(a4)
     53c:	4750                	lw	a2,12(a4)
     53e:	0107a023          	sw	a6,0(a5)
     542:	c3c8                	sw	a0,4(a5)
     544:	c78c                	sw	a1,8(a5)
     546:	c7d0                	sw	a2,12(a5)
     548:	0741                	addi	a4,a4,16
     54a:	07c1                	addi	a5,a5,16
     54c:	fed714e3          	bne	a4,a3,534 <main+0x31e>
    sha3_256(sk + KYBER_SECRETKEYBYTES - 2 * KYBER_SYMBYTES, pk, KYBER_PUBLICKEYBYTES);
     550:	6b09                	lui	s6,0x2
     552:	797d                	lui	s2,0xfffff
     554:	1a090793          	addi	a5,s2,416 # fffff1a0 <_sp+0xfff1e8f0>
     558:	fe0b0713          	addi	a4,s6,-32 # 1fe0 <PQCLEAN_KYBER512_CLEAN_gen_matrix+0x1d6>
     55c:	79f9                	lui	s3,0xffffe
     55e:	973e                	add	a4,a4,a5
     560:	081c                	addi	a5,sp,16
     562:	00f704b3          	add	s1,a4,a5
     566:	28098a13          	addi	s4,s3,640 # ffffe280 <_sp+0xfff1d9d0>
     56a:	fe0b0793          	addi	a5,s6,-32
     56e:	0818                	addi	a4,sp,16
     570:	97d2                	add	a5,a5,s4
     572:	00e78a33          	add	s4,a5,a4
     576:	85d2                	mv	a1,s4
     578:	62048513          	addi	a0,s1,1568
     57c:	6cc010ef          	jal	ra,1c48 <sha3_256.constprop.0>
    memcpy(sk + KYBER_SECRETKEYBYTES - KYBER_SYMBYTES, coins + KYBER_SYMBYTES, KYBER_SYMBYTES);
     580:	04098793          	addi	a5,s3,64
     584:	fe0b0713          	addi	a4,s6,-32
     588:	973e                	add	a4,a4,a5
     58a:	081c                	addi	a5,sp,16
     58c:	97ba                	add	a5,a5,a4
     58e:	0207a303          	lw	t1,32(a5)
     592:	0247a883          	lw	a7,36(a5)
     596:	0287a803          	lw	a6,40(a5)
     59a:	57c8                	lw	a0,44(a5)
     59c:	5b8c                	lw	a1,48(a5)
     59e:	5bd0                	lw	a2,52(a5)
     5a0:	5f94                	lw	a3,56(a5)
     5a2:	5fd8                	lw	a4,60(a5)
     5a4:	6464a023          	sw	t1,1600(s1)
     5a8:	6514a223          	sw	a7,1604(s1)
     5ac:	6504a423          	sw	a6,1608(s1)
     5b0:	64a4a623          	sw	a0,1612(s1)
     5b4:	64b4a823          	sw	a1,1616(s1)
     5b8:	64c4aa23          	sw	a2,1620(s1)
     5bc:	64d4ac23          	sw	a3,1624(s1)
     5c0:	64e4ae23          	sw	a4,1628(s1)
    // Key-pair generation
    crypto_kem_keypair(pk, sk_a);
    CSR_READ(CSR_REG_MCYCLE, &cycles_keygen);
     5c4:	b00025f3          	csrr	a1,mcycle
    printf("Number of clock cycles keygen: %d\n", cycles_keygen);
     5c8:	00080537          	lui	a0,0x80
     5cc:	0f050513          	addi	a0,a0,240 # 800f0 <no_exception_handler_msg+0x5b>
     5d0:	055030ef          	jal	ra,3e24 <iprintf>

    //printbytes(pk, CRYPTO_PUBLICKEYBYTES);
    //printbytes(sk_a, CRYPTO_SECRETKEYBYTES);

    // Encapsulation
    CSR_WRITE(CSR_REG_MCYCLE, 0);
     5d4:	4a81                	li	s5,0
     5d6:	b00a9073          	csrw	mcycle,s5
            
    uint8_t buf[2 * KYBER_SYMBYTES];
    /* Will contain key, coins */
    uint8_t kr[2 * KYBER_SYMBYTES];

    memcpy(buf, coins, KYBER_SYMBYTES);
     5da:	fe0b0793          	addi	a5,s6,-32
     5de:	0818                	addi	a4,sp,16
     5e0:	97ce                	add	a5,a5,s3
     5e2:	97ba                	add	a5,a5,a4
**************************************************/
int PQCLEAN_KYBER512_CLEAN_crypto_kem_enc(uint8_t *ct,
        uint8_t *ss,
        const uint8_t *pk) {
    uint8_t coins[KYBER_SYMBYTES];
    randombytes(coins, KYBER_SYMBYTES);
     5e4:	5a098513          	addi	a0,s3,1440
    memcpy(buf, coins, KYBER_SYMBYTES);
     5e8:	c63e                	sw	a5,12(sp)
    randombytes(coins, KYBER_SYMBYTES);
     5ea:	fe0b0793          	addi	a5,s6,-32
     5ee:	97aa                	add	a5,a5,a0
     5f0:	00e78533          	add	a0,a5,a4
     5f4:	02000593          	li	a1,32
     5f8:	4df000ef          	jal	ra,12d6 <randombytes>
    memcpy(buf, coins, KYBER_SYMBYTES);
     5fc:	47b2                	lw	a5,12(sp)
    sha3_256(buf + KYBER_SYMBYTES, pk, KYBER_PUBLICKEYBYTES);
     5fe:	da090993          	addi	s3,s2,-608
     602:	fe0b0593          	addi	a1,s6,-32
     606:	0808                	addi	a0,sp,16
     608:	95ce                	add	a1,a1,s3
    memcpy(buf, coins, KYBER_SYMBYTES);
     60a:	5a07ae03          	lw	t3,1440(a5)
     60e:	5a47a303          	lw	t1,1444(a5)
     612:	5a87a883          	lw	a7,1448(a5)
     616:	5ac7a803          	lw	a6,1452(a5)
     61a:	5b47a683          	lw	a3,1460(a5)
     61e:	5b87a703          	lw	a4,1464(a5)
    sha3_256(buf + KYBER_SYMBYTES, pk, KYBER_PUBLICKEYBYTES);
     622:	00a589b3          	add	s3,a1,a0
    memcpy(buf, coins, KYBER_SYMBYTES);
     626:	5b07a603          	lw	a2,1456(a5)
     62a:	fe0b0593          	addi	a1,s6,-32
     62e:	5bc7a783          	lw	a5,1468(a5)
     632:	95ca                	add	a1,a1,s2
     634:	00a584b3          	add	s1,a1,a0
     638:	dbc4a023          	sw	t3,-608(s1)
     63c:	da64a223          	sw	t1,-604(s1)
     640:	db14a423          	sw	a7,-600(s1)
     644:	db04a623          	sw	a6,-596(s1)
     648:	dad4aa23          	sw	a3,-588(s1)
     64c:	dae4ac23          	sw	a4,-584(s1)
    sha3_256(buf + KYBER_SYMBYTES, pk, KYBER_PUBLICKEYBYTES);
     650:	85d2                	mv	a1,s4
     652:	02098513          	addi	a0,s3,32
    memcpy(buf, coins, KYBER_SYMBYTES);
     656:	dac4a823          	sw	a2,-592(s1)
     65a:	daf4ae23          	sw	a5,-580(s1)
    sha3_512(kr, buf, 2 * KYBER_SYMBYTES);
     65e:	6b85                	lui	s7,0x1
    sha3_256(buf + KYBER_SYMBYTES, pk, KYBER_PUBLICKEYBYTES);
     660:	5e8010ef          	jal	ra,1c48 <sha3_256.constprop.0>
    sha3_512(kr, buf, 2 * KYBER_SYMBYTES);
     664:	081c                	addi	a5,sp,16
     666:	7e0b8513          	addi	a0,s7,2016 # 17e0 <intt_driver+0x6e>
     66a:	85ce                	mv	a1,s3
     66c:	953e                	add	a0,a0,a5
     66e:	04000613          	li	a2,64
     672:	598010ef          	jal	ra,1c0a <sha3_512>
    PQCLEAN_KYBER512_CLEAN_indcpa_enc(ct, buf, pk, kr + KYBER_SYMBYTES);
     676:	9a090913          	addi	s2,s2,-1632
     67a:	fe0b0793          	addi	a5,s6,-32
     67e:	0818                	addi	a4,sp,16
     680:	97ca                	add	a5,a5,s2
     682:	00e78933          	add	s2,a5,a4
     686:	810b0793          	addi	a5,s6,-2032
     68a:	002786b3          	add	a3,a5,sp
     68e:	8652                	mv	a2,s4
     690:	85ce                	mv	a1,s3
     692:	854a                	mv	a0,s2
     694:	321010ef          	jal	ra,21b4 <PQCLEAN_KYBER512_CLEAN_indcpa_enc>
    memcpy(ss, kr, KYBER_SYMBYTES);
     698:	0814                	addi	a3,sp,16
     69a:	7e0b8793          	addi	a5,s7,2016
     69e:	97b6                	add	a5,a5,a3
     6a0:	439c                	lw	a5,0(a5)
     6a2:	46b2                	lw	a3,12(sp)
     6a4:	0818                	addi	a4,sp,16
     6a6:	d29c                	sw	a5,32(a3)
     6a8:	0814                	addi	a3,sp,16
     6aa:	7e4b8793          	addi	a5,s7,2020
     6ae:	97b6                	add	a5,a5,a3
     6b0:	439c                	lw	a5,0(a5)
     6b2:	46b2                	lw	a3,12(sp)
     6b4:	d2dc                	sw	a5,36(a3)
     6b6:	0814                	addi	a3,sp,16
     6b8:	7e8b8793          	addi	a5,s7,2024
     6bc:	97b6                	add	a5,a5,a3
     6be:	439c                	lw	a5,0(a5)
     6c0:	46b2                	lw	a3,12(sp)
     6c2:	d69c                	sw	a5,40(a3)
     6c4:	0814                	addi	a3,sp,16
     6c6:	7ecb8793          	addi	a5,s7,2028
     6ca:	97b6                	add	a5,a5,a3
     6cc:	439c                	lw	a5,0(a5)
     6ce:	46b2                	lw	a3,12(sp)
     6d0:	d6dc                	sw	a5,44(a3)
     6d2:	0814                	addi	a3,sp,16
     6d4:	7f0b8793          	addi	a5,s7,2032
     6d8:	97b6                	add	a5,a5,a3
     6da:	439c                	lw	a5,0(a5)
     6dc:	46b2                	lw	a3,12(sp)
     6de:	da9c                	sw	a5,48(a3)
     6e0:	0814                	addi	a3,sp,16
     6e2:	7f4b8793          	addi	a5,s7,2036
     6e6:	97b6                	add	a5,a5,a3
     6e8:	439c                	lw	a5,0(a5)
     6ea:	46b2                	lw	a3,12(sp)
     6ec:	dadc                	sw	a5,52(a3)
     6ee:	0814                	addi	a3,sp,16
     6f0:	7f8b8793          	addi	a5,s7,2040
     6f4:	97b6                	add	a5,a5,a3
     6f6:	439c                	lw	a5,0(a5)
     6f8:	46b2                	lw	a3,12(sp)
     6fa:	de9c                	sw	a5,56(a3)
     6fc:	7fcb8793          	addi	a5,s7,2044
     700:	97ba                	add	a5,a5,a4
     702:	439c                	lw	a5,0(a5)
     704:	dedc                	sw	a5,60(a3)
    crypto_kem_enc(sendb, key_b, pk);
    CSR_READ(CSR_REG_MCYCLE, &cycles_enc);
     706:	b00025f3          	csrr	a1,mcycle
    printf("Number of clock cycles enc: %d\n", cycles_enc);
     70a:	00080537          	lui	a0,0x80
     70e:	11450513          	addi	a0,a0,276 # 80114 <no_exception_handler_msg+0x7f>
     712:	712030ef          	jal	ra,3e24 <iprintf>

    //printbytes(sendb, CRYPTO_CIPHERTEXTBYTES);
    //printbytes(key_b, CRYPTO_BYTES);

    // Decapsulation
    CSR_WRITE(CSR_REG_MCYCLE, 0);
     716:	b00a9073          	csrw	mcycle,s5
**************************************************/
void PQCLEAN_KYBER512_CLEAN_polyvec_decompress(polyvec *r, const uint8_t a[KYBER_POLYVECCOMPRESSEDBYTES]) {
    unsigned int i, j, k;

    uint16_t t[4];
    for (i = 0; i < KYBER_K; i++) {
     71a:	4e01                	li	t3,0
     71c:	834a                	mv	t1,s2
            a += 5;

            /*for (k = 0; k < 4; k++) {
                r->vec[i].coeffs[4 * j + k] = ((uint32_t)(t[k] & 0x3FF) * KYBER_Q + 512) >> 10;
            }*/
            asm volatile (".insn r 0x0b, 0x6, 38, %[dst], %[src], %[x]\r\n" : [dst] "=r" (r->vec[i].coeffs[4 * j])  : [src] "r" (t[0]), [x] "r" (0) :  );
     71e:	4801                	li	a6,0
        for (j = 0; j < KYBER_N / 4; j++) {
     720:	10100893          	li	a7,257
     724:	4e85                	li	t4,1
     726:	859a                	mv	a1,t1
     728:	4605                	li	a2,1
     72a:	008e1513          	slli	a0,t3,0x8
            t[0] = (a[0] >> 0) | ((uint16_t)a[1] << 8);
     72e:	0015c683          	lbu	a3,1(a1)
            t[1] = (a[1] >> 2) | ((uint16_t)a[2] << 6);
     732:	0025c283          	lbu	t0,2(a1)
            t[2] = (a[2] >> 4) | ((uint16_t)a[3] << 4);
     736:	0035c783          	lbu	a5,3(a1)
            t[3] = (a[3] >> 6) | ((uint16_t)a[4] << 2);
     73a:	0045c703          	lbu	a4,4(a1)
     73e:	0005c903          	lbu	s2,0(a1)
     742:	00869f93          	slli	t6,a3,0x8
            t[1] = (a[1] >> 2) | ((uint16_t)a[2] << 6);
     746:	00629f13          	slli	t5,t0,0x6
     74a:	8289                	srli	a3,a3,0x2
            t[3] = (a[3] >> 6) | ((uint16_t)a[4] << 2);
     74c:	0067d393          	srli	t2,a5,0x6
     750:	070a                	slli	a4,a4,0x2
     752:	012fefb3          	or	t6,t6,s2
            t[1] = (a[1] >> 2) | ((uint16_t)a[2] << 6);
     756:	00df6f33          	or	t5,t5,a3
            t[3] = (a[3] >> 6) | ((uint16_t)a[4] << 2);
     75a:	00776733          	or	a4,a4,t2
            a += 5;
     75e:	0595                	addi	a1,a1,5
            asm volatile (".insn r 0x0b, 0x6, 38, %[dst], %[src], %[x]\r\n" : [dst] "=r" (r->vec[i].coeffs[4 * j])  : [src] "r" (t[0]), [x] "r" (0) :  );
     760:	4d0fef8b          	0x4d0fef8b
     764:	fff60693          	addi	a3,a2,-1
     768:	96aa                	add	a3,a3,a0
     76a:	0686                	slli	a3,a3,0x1
     76c:	96a6                	add	a3,a3,s1
     76e:	dbf69023          	sh	t6,-608(a3) # 1da0 <keccak_inc_absorb.constprop.0+0x118>
            asm volatile (".insn r 0x0b, 0x6, 38, %[dst], %[src], %[x]\r\n" : [dst] "=r" (r->vec[i].coeffs[4 * j + 1])  : [src] "r" (t[1]), [x] "r" (0) :  );
     772:	4d0f6f0b          	0x4d0f6f0b
     776:	00c506b3          	add	a3,a0,a2
     77a:	0686                	slli	a3,a3,0x1
     77c:	96a6                	add	a3,a3,s1
            t[2] = (a[2] >> 4) | ((uint16_t)a[3] << 4);
     77e:	0042d293          	srli	t0,t0,0x4
     782:	0792                	slli	a5,a5,0x4
            asm volatile (".insn r 0x0b, 0x6, 38, %[dst], %[src], %[x]\r\n" : [dst] "=r" (r->vec[i].coeffs[4 * j + 1])  : [src] "r" (t[1]), [x] "r" (0) :  );
     784:	dbe69023          	sh	t5,-608(a3)
            t[2] = (a[2] >> 4) | ((uint16_t)a[3] << 4);
     788:	0057e7b3          	or	a5,a5,t0
            asm volatile (".insn r 0x0b, 0x6, 38, %[dst], %[src], %[x]\r\n" : [dst] "=r" (r->vec[i].coeffs[4 * j + 2])  : [src] "r" (t[2]), [x] "r" (0) :  );
     78c:	4d07e78b          	0x4d07e78b
     790:	00160693          	addi	a3,a2,1
     794:	96aa                	add	a3,a3,a0
     796:	0686                	slli	a3,a3,0x1
     798:	96a6                	add	a3,a3,s1
     79a:	daf69023          	sh	a5,-608(a3)
            asm volatile (".insn r 0x0b, 0x6, 38, %[dst], %[src], %[x]\r\n" : [dst] "=r" (r->vec[i].coeffs[4 * j + 3])  : [src] "r" (t[3]), [x] "r" (0) :  );
     79e:	4d07670b          	0x4d07670b
     7a2:	00260793          	addi	a5,a2,2
     7a6:	97aa                	add	a5,a5,a0
     7a8:	0786                	slli	a5,a5,0x1
     7aa:	97a6                	add	a5,a5,s1
     7ac:	dae79023          	sh	a4,-608(a5)
        for (j = 0; j < KYBER_N / 4; j++) {
     7b0:	0611                	addi	a2,a2,4
     7b2:	f7161ee3          	bne	a2,a7,72e <main+0x518>
            a += 5;
     7b6:	14030313          	addi	t1,t1,320
    for (i = 0; i < KYBER_K; i++) {
     7ba:	01de0463          	beq	t3,t4,7c2 <main+0x5ac>
     7be:	4e05                	li	t3,1
     7c0:	b79d                	j	726 <main+0x510>
     7c2:	6709                	lui	a4,0x2
     7c4:	787d                	lui	a6,0xfffff
     7c6:	9a080813          	addi	a6,a6,-1632 # ffffe9a0 <_sp+0xfff1e0f0>
     7ca:	fe070793          	addi	a5,a4,-32 # 1fe0 <PQCLEAN_KYBER512_CLEAN_gen_matrix+0x1d6>
     7ce:	97c2                	add	a5,a5,a6
     7d0:	0814                	addi	a3,sp,16
     7d2:	00d78833          	add	a6,a5,a3
        asm volatile (".insn r 0x0b, 0x006, 18, %[dst], %[src], %[x]\r\n" : [dst] "=r" (r->coeffs[2 * i + 0])  : [src] "r" (a[0]), [x] "r" (0) :  );
     7d6:	1701                	addi	a4,a4,-32
     7d8:	77f9                	lui	a5,0xffffe
     7da:	973e                	add	a4,a4,a5
     7dc:	081c                	addi	a5,sp,16
     7de:	97ba                	add	a5,a5,a4
     7e0:	28080693          	addi	a3,a6,640
     7e4:	4601                	li	a2,0
     7e6:	4581                	li	a1,0
     7e8:	c63e                	sw	a5,12(sp)
    for (i = 0; i < KYBER_N / 2; i++) {
     7ea:	74fd                	lui	s1,0xfffff
     7ec:	30080813          	addi	a6,a6,768
        asm volatile (".insn r 0x0b, 0x006, 18, %[dst], %[src], %[x]\r\n" : [dst] "=r" (r->coeffs[2 * i + 0])  : [src] "r" (a[0]), [x] "r" (0) :  );
     7f0:	0006c783          	lbu	a5,0(a3)
     7f4:	24b7e50b          	0x24b7e50b
     7f8:	48b2                	lw	a7,12(sp)
     7fa:	00161713          	slli	a4,a2,0x1
     7fe:	9746                	add	a4,a4,a7
     800:	08a71023          	sh	a0,128(a4)
        asm volatile (".insn r 0x0b, 0x006, 19, %[dst], %[src], %[x]\r\n" : [dst] "=r" (r->coeffs[2 * i + 1])  : [src] "r" (a[0]), [x] "r" (0) :  );
     804:	26b7e70b          	0x26b7e70b
     808:	00160793          	addi	a5,a2,1
     80c:	0786                	slli	a5,a5,0x1
     80e:	97c6                	add	a5,a5,a7
     810:	08e79023          	sh	a4,128(a5) # ffffe080 <_sp+0xfff1d7d0>
        a += 1;
     814:	0685                	addi	a3,a3,1
    for (i = 0; i < KYBER_N / 2; i++) {
     816:	0609                	addi	a2,a2,2
     818:	fd069ce3          	bne	a3,a6,7f0 <main+0x5da>
    PQCLEAN_KYBER512_CLEAN_polyvec_frombytes(sk, packedsk);
     81c:	6909                	lui	s2,0x2
     81e:	1a048593          	addi	a1,s1,416 # fffff1a0 <_sp+0xfff1e8f0>
     822:	fe090793          	addi	a5,s2,-32 # 1fe0 <PQCLEAN_KYBER512_CLEAN_gen_matrix+0x1d6>
     826:	0818                	addi	a4,sp,16
     828:	97ae                	add	a5,a5,a1
     82a:	00e785b3          	add	a1,a5,a4
     82e:	6785                	lui	a5,0x1
     830:	7e078513          	addi	a0,a5,2016 # 17e0 <intt_driver+0x6e>
     834:	953a                	add	a0,a0,a4
     836:	081000ef          	jal	ra,10b6 <PQCLEAN_KYBER512_CLEAN_polyvec_frombytes>
    ntt_driver(r->coeffs, r->coeffs);
     83a:	da048493          	addi	s1,s1,-608
     83e:	fe090793          	addi	a5,s2,-32
     842:	97a6                	add	a5,a5,s1
     844:	0818                	addi	a4,sp,16
     846:	00e784b3          	add	s1,a5,a4
     84a:	85a6                	mv	a1,s1
     84c:	8526                	mv	a0,s1
     84e:	5bf000ef          	jal	ra,160c <ntt_driver>
        asm volatile (".insn r 0x0b, 0x004, 0, %[dst], %[src], x0\r\n" : [dst] "=r" (r->coeffs[i]) : [src] "r" (r->coeffs[i]) : );
     852:	767d                	lui	a2,0xfffff
     854:	85a6                	mv	a1,s1
    for (i = 0; i < KYBER_N; i++) {
     856:	4781                	li	a5,0
     858:	10000513          	li	a0,256
        asm volatile (".insn r 0x0b, 0x004, 0, %[dst], %[src], x0\r\n" : [dst] "=r" (r->coeffs[i]) : [src] "r" (r->coeffs[i]) : );
     85c:	0005d683          	lhu	a3,0(a1)
     860:	0006c68b          	0x6c68b
     864:	6485                	lui	s1,0x1
     866:	1481                	addi	s1,s1,-32
     868:	01010813          	addi	a6,sp,16
     86c:	00179713          	slli	a4,a5,0x1
     870:	94c2                	add	s1,s1,a6
     872:	9726                	add	a4,a4,s1
     874:	dad71023          	sh	a3,-608(a4)
    for (i = 0; i < KYBER_N; i++) {
     878:	0785                	addi	a5,a5,1
     87a:	0589                	addi	a1,a1,2
     87c:	fea790e3          	bne	a5,a0,85c <main+0x646>
    ntt_driver(r->coeffs, r->coeffs);
     880:	6789                	lui	a5,0x2
     882:	1781                	addi	a5,a5,-32
     884:	97b2                	add	a5,a5,a2
     886:	01078633          	add	a2,a5,a6
     88a:	fa060493          	addi	s1,a2,-96 # ffffefa0 <_sp+0xfff1e6f0>
     88e:	85a6                	mv	a1,s1
     890:	8526                	mv	a0,s1
     892:	57b000ef          	jal	ra,160c <ntt_driver>
        asm volatile (".insn r 0x0b, 0x004, 0, %[dst], %[src], x0\r\n" : [dst] "=r" (r->coeffs[i]) : [src] "r" (r->coeffs[i]) : );
     896:	757d                	lui	a0,0xfffff
     898:	85a6                	mv	a1,s1
    for (i = 0; i < KYBER_N; i++) {
     89a:	4781                	li	a5,0
     89c:	10000613          	li	a2,256
        asm volatile (".insn r 0x0b, 0x004, 0, %[dst], %[src], x0\r\n" : [dst] "=r" (r->coeffs[i]) : [src] "r" (r->coeffs[i]) : );
     8a0:	0005d683          	lhu	a3,0(a1)
     8a4:	0006c68b          	0x6c68b
     8a8:	6485                	lui	s1,0x1
     8aa:	1481                	addi	s1,s1,-32
     8ac:	01010813          	addi	a6,sp,16
     8b0:	00179713          	slli	a4,a5,0x1
     8b4:	94c2                	add	s1,s1,a6
     8b6:	9726                	add	a4,a4,s1
     8b8:	fad71023          	sh	a3,-96(a4)
    for (i = 0; i < KYBER_N; i++) {
     8bc:	0785                	addi	a5,a5,1
     8be:	0589                	addi	a1,a1,2
     8c0:	fec790e3          	bne	a5,a2,8a0 <main+0x68a>

    PQCLEAN_KYBER512_CLEAN_polyvec_ntt(&b);
    //ntt_driver(b.vec[0].coeffs, b.vec[0].coeffs);
    //ntt_driver(b.vec[1].coeffs, b.vec[1].coeffs);
    
    PQCLEAN_KYBER512_CLEAN_polyvec_basemul_acc_montgomery(&mp, &skpv, &b);
     8c4:	6989                	lui	s3,0x2
     8c6:	7979                	lui	s2,0xffffe
     8c8:	5a090593          	addi	a1,s2,1440 # ffffe5a0 <_sp+0xfff1dcf0>
     8cc:	fe098793          	addi	a5,s3,-32 # 1fe0 <PQCLEAN_KYBER512_CLEAN_gen_matrix+0x1d6>
     8d0:	97ae                	add	a5,a5,a1
     8d2:	010784b3          	add	s1,a5,a6
     8d6:	da050613          	addi	a2,a0,-608 # ffffeda0 <_sp+0xfff1e4f0>
     8da:	fe098793          	addi	a5,s3,-32
     8de:	97b2                	add	a5,a5,a2
     8e0:	01078633          	add	a2,a5,a6
     8e4:	6785                	lui	a5,0x1
     8e6:	7e078593          	addi	a1,a5,2016 # 17e0 <intt_driver+0x6e>
     8ea:	95c2                	add	a1,a1,a6
     8ec:	8526                	mv	a0,s1
     8ee:	0f7000ef          	jal	ra,11e4 <PQCLEAN_KYBER512_CLEAN_polyvec_basemul_acc_montgomery>
    
    //PQCLEAN_KYBER512_CLEAN_poly_invntt_tomont(&mp);
    intt_driver(mp.coeffs, mp.coeffs);
     8f2:	85a6                	mv	a1,s1
     8f4:	8526                	mv	a0,s1
     8f6:	67d000ef          	jal	ra,1772 <intt_driver>
*            - const poly *a: pointer to first input polynomial
*            - const poly *b: pointer to second input polynomial
**************************************************/
void PQCLEAN_KYBER512_CLEAN_poly_sub(poly *r, const poly *a, const poly *b) {
    size_t i;
    for (i = 0; i < KYBER_N; i++) {
     8fa:	08090693          	addi	a3,s2,128
     8fe:	fe098793          	addi	a5,s3,-32
     902:	97b6                	add	a5,a5,a3
     904:	0818                	addi	a4,sp,16
     906:	00e786b3          	add	a3,a5,a4
     90a:	8626                	mv	a2,s1
     90c:	20048513          	addi	a0,s1,512 # 1200 <PQCLEAN_KYBER512_CLEAN_polyvec_basemul_acc_montgomery+0x1c>
     910:	87a6                	mv	a5,s1
        r->coeffs[i] = a->coeffs[i] - b->coeffs[i];
     912:	0007d583          	lhu	a1,0(a5)
     916:	0006d703          	lhu	a4,0(a3)
    for (i = 0; i < KYBER_N; i++) {
     91a:	0789                	addi	a5,a5,2
     91c:	0689                	addi	a3,a3,2
        r->coeffs[i] = a->coeffs[i] - b->coeffs[i];
     91e:	8f0d                	sub	a4,a4,a1
     920:	fee79f23          	sh	a4,-2(a5)
    for (i = 0; i < KYBER_N; i++) {
     924:	fef517e3          	bne	a0,a5,912 <main+0x6fc>
        asm volatile (".insn r 0x0b, 0x004, 0, %[dst], %[src], x0\r\n" : [dst] "=r" (r->coeffs[i]) : [src] "r" (r->coeffs[i]) : );
     928:	7879                	lui	a6,0xffffe
     92a:	85a6                	mv	a1,s1
    for (i = 0; i < KYBER_N; i++) {
     92c:	4781                	li	a5,0
     92e:	10000893          	li	a7,256
        asm volatile (".insn r 0x0b, 0x004, 0, %[dst], %[src], x0\r\n" : [dst] "=r" (r->coeffs[i]) : [src] "r" (r->coeffs[i]) : );
     932:	0005d683          	lhu	a3,0(a1)
     936:	0006c68b          	0x6c68b
     93a:	00179713          	slli	a4,a5,0x1
     93e:	ff010493          	addi	s1,sp,-16
     942:	9726                	add	a4,a4,s1
     944:	5ad71023          	sh	a3,1440(a4)
    for (i = 0; i < KYBER_N; i++) {
     948:	0785                	addi	a5,a5,1
     94a:	0589                	addi	a1,a1,2
     94c:	ff1793e3          	bne	a5,a7,932 <main+0x71c>
     950:	6789                	lui	a5,0x2
     952:	04080693          	addi	a3,a6,64 # ffffe040 <_sp+0xfff1d790>
     956:	1781                	addi	a5,a5,-32
     958:	97b6                	add	a5,a5,a3
     95a:	0818                	addi	a4,sp,16
     95c:	00e786b3          	add	a3,a5,a4
        asm volatile (".insn r 0x0b, 0x006, 28, %[dst], %[src], %[src2]\r\n" : [dst] "=r" (msg[i])  : [src] "r" (a->coeffs[8 * i + 0]), [src2] "r" (msg[i]) :   );
     960:	4581                	li	a1,0
     962:	00065703          	lhu	a4,0(a2)
     966:	38b7670b          	0x38b7670b
        asm volatile (".insn r 0x0b, 0x006, 29, %[dst], %[src], %[src2]\r\n" : [dst] "=r" (msg[i])  : [src] "r" (a->coeffs[8 * i + 1]), [src2] "r" (msg[i]) :   );
     96a:	00265783          	lhu	a5,2(a2)
     96e:	3ae7e78b          	0x3ae7e78b
        asm volatile (".insn r 0x0b, 0x006, 30, %[dst], %[src], %[src2]\r\n" : [dst] "=r" (msg[i])  : [src] "r" (a->coeffs[8 * i + 2]), [src2] "r" (msg[i]) :   );
     972:	00465703          	lhu	a4,4(a2)
     976:	3cf7670b          	0x3cf7670b
        asm volatile (".insn r 0x0b, 0x006, 31, %[dst], %[src], %[src2]\r\n" : [dst] "=r" (msg[i])  : [src] "r" (a->coeffs[8 * i + 3]), [src2] "r" (msg[i]) :   );
     97a:	00665783          	lhu	a5,6(a2)
     97e:	3ee7e78b          	0x3ee7e78b
        asm volatile (".insn r 0x0b, 0x006, 32, %[dst], %[src], %[src2]\r\n" : [dst] "=r" (msg[i])  : [src] "r" (a->coeffs[8 * i + 4]), [src2] "r" (msg[i]) :   );
     982:	00865703          	lhu	a4,8(a2)
     986:	40f7670b          	0x40f7670b
        asm volatile (".insn r 0x0b, 0x006, 33, %[dst], %[src], %[src2]\r\n" : [dst] "=r" (msg[i])  : [src] "r" (a->coeffs[8 * i + 5]), [src2] "r" (msg[i]) :   );
     98a:	00a65783          	lhu	a5,10(a2)
     98e:	42e7e78b          	0x42e7e78b
        asm volatile (".insn r 0x0b, 0x006, 34, %[dst], %[src], %[src2]\r\n" : [dst] "=r" (msg[i])  : [src] "r" (a->coeffs[8 * i + 6]), [src2] "r" (msg[i]) :   );
     992:	00c65703          	lhu	a4,12(a2)
     996:	44f7670b          	0x44f7670b
        asm volatile (".insn r 0x0b, 0x006, 35, %[dst], %[src], %[src2]\r\n" : [dst] "=r" (msg[i])  : [src] "r" (a->coeffs[8 * i + 7]), [src2] "r" (msg[i]) :   );
     99a:	00e65783          	lhu	a5,14(a2)
     99e:	46e7e78b          	0x46e7e78b
     9a2:	00f68023          	sb	a5,0(a3)
    for (i = 0; i < KYBER_N / 8; i++) {
     9a6:	0641                	addi	a2,a2,16
     9a8:	0685                	addi	a3,a3,1
     9aa:	fac51ce3          	bne	a0,a2,962 <main+0x74c>
    const uint8_t *pk = sk + KYBER_INDCPA_SECRETKEYBYTES;

    PQCLEAN_KYBER512_CLEAN_indcpa_dec(buf, ct, sk);

    /* Multitarget countermeasure for coins + contributory KEM */
    memcpy(buf + KYBER_SYMBYTES, sk + KYBER_SECRETKEYBYTES - 2 * KYBER_SYMBYTES, KYBER_SYMBYTES);
     9ae:	74fd                	lui	s1,0xfffff
     9b0:	6a89                	lui	s5,0x2
     9b2:	1a048993          	addi	s3,s1,416 # fffff1a0 <_sp+0xfff1e8f0>
     9b6:	fe0a8793          	addi	a5,s5,-32 # 1fe0 <PQCLEAN_KYBER512_CLEAN_gen_matrix+0x1d6>
     9ba:	7979                	lui	s2,0xffffe
     9bc:	97ce                	add	a5,a5,s3
     9be:	0818                	addi	a4,sp,16
     9c0:	04090913          	addi	s2,s2,64 # ffffe040 <_sp+0xfff1d790>
     9c4:	fe0a8593          	addi	a1,s5,-32
     9c8:	00e789b3          	add	s3,a5,a4
     9cc:	0808                	addi	a0,sp,16
     9ce:	95ca                	add	a1,a1,s2
     9d0:	00a58933          	add	s2,a1,a0
     9d4:	6389a703          	lw	a4,1592(s3)
     9d8:	6209a603          	lw	a2,1568(s3)
     9dc:	6249ae03          	lw	t3,1572(s3)
     9e0:	6289a303          	lw	t1,1576(s3)
     9e4:	62c9a883          	lw	a7,1580(s3)
     9e8:	6309a803          	lw	a6,1584(s3)
     9ec:	6349a683          	lw	a3,1588(s3)
     9f0:	63c9a783          	lw	a5,1596(s3)
    
    
    //hash_g(kr, buf, 2 * KYBER_SYMBYTES);
    sha3_512(kr, buf, 2 * KYBER_SYMBYTES);
     9f4:	da048a13          	addi	s4,s1,-608
     9f8:	fe0a8593          	addi	a1,s5,-32
     9fc:	95d2                	add	a1,a1,s4
     9fe:	00a58a33          	add	s4,a1,a0
    memcpy(buf + KYBER_SYMBYTES, sk + KYBER_SECRETKEYBYTES - 2 * KYBER_SYMBYTES, KYBER_SYMBYTES);
     a02:	02e92c23          	sw	a4,56(s2)
     a06:	02c92023          	sw	a2,32(s2)
    sha3_512(kr, buf, 2 * KYBER_SYMBYTES);
     a0a:	85ca                	mv	a1,s2
    memcpy(buf + KYBER_SYMBYTES, sk + KYBER_SECRETKEYBYTES - 2 * KYBER_SYMBYTES, KYBER_SYMBYTES);
     a0c:	03c92223          	sw	t3,36(s2)
     a10:	02692423          	sw	t1,40(s2)
     a14:	03192623          	sw	a7,44(s2)
     a18:	03092823          	sw	a6,48(s2)
     a1c:	02d92a23          	sw	a3,52(s2)
     a20:	02f92e23          	sw	a5,60(s2)
    sha3_512(kr, buf, 2 * KYBER_SYMBYTES);
     a24:	04000613          	li	a2,64
     a28:	8552                	mv	a0,s4
     a2a:	1e0010ef          	jal	ra,1c0a <sha3_512>

    /* coins are in kr+KYBER_SYMBYTES */
    PQCLEAN_KYBER512_CLEAN_indcpa_enc(cmp, buf, pk, kr + KYBER_SYMBYTES);
     a2e:	85ca                	mv	a1,s2
     a30:	6905                	lui	s2,0x1
     a32:	081c                	addi	a5,sp,16
     a34:	7e090513          	addi	a0,s2,2016 # 17e0 <intt_driver+0x6e>
     a38:	020a0693          	addi	a3,s4,32
     a3c:	953e                	add	a0,a0,a5
     a3e:	30098613          	addi	a2,s3,768
     a42:	772010ef          	jal	ra,21b4 <PQCLEAN_KYBER512_CLEAN_indcpa_enc>
     a46:	9a048793          	addi	a5,s1,-1632
     a4a:	fe0a8713          	addi	a4,s5,-32
     a4e:	973e                	add	a4,a4,a5
     a50:	081c                	addi	a5,sp,16
     a52:	97ba                	add	a5,a5,a4
     a54:	0814                	addi	a3,sp,16
     a56:	7e090713          	addi	a4,s2,2016
     a5a:	9736                	add	a4,a4,a3
     a5c:	30078593          	addi	a1,a5,768 # 2300 <PQCLEAN_KYBER512_CLEAN_indcpa_enc+0x14c>
*
* Returns 0 if the byte arrays are equal, 1 otherwise
**************************************************/
int PQCLEAN_KYBER512_CLEAN_verify(const uint8_t *a, const uint8_t *b, size_t len) {
    size_t i;
    uint8_t r = 0;
     a60:	4481                	li	s1,0

    for (i = 0; i < len; i++) {
        r |= a[i] ^ b[i];
     a62:	0007c683          	lbu	a3,0(a5)
     a66:	00074603          	lbu	a2,0(a4)
    for (i = 0; i < len; i++) {
     a6a:	0785                	addi	a5,a5,1
     a6c:	0705                	addi	a4,a4,1
        r |= a[i] ^ b[i];
     a6e:	8eb1                	xor	a3,a3,a2
     a70:	8cd5                	or	s1,s1,a3
    for (i = 0; i < len; i++) {
     a72:	fef598e3          	bne	a1,a5,a62 <main+0x84c>
void shake128_inc_ctx_release(shake128incctx *state) {
    free(state->ctx);
}

void shake256_inc_init(shake256incctx *state) {
    state->ctx = malloc(PQC_SHAKEINCCTX_BYTES);
     a76:	0d000513          	li	a0,208
     a7a:	344030ef          	jal	ra,3dbe <malloc>
    }

    return (-(uint64_t)r) >> 63;
     a7e:	009034b3          	snez	s1,s1
     a82:	892a                	mv	s2,a0
    if (state->ctx == NULL) {
     a84:	20050263          	beqz	a0,c88 <main+0xa72>
        s_inc[i] = 0;
     a88:	0c800613          	li	a2,200
     a8c:	4581                	li	a1,0
     a8e:	4fe020ef          	jal	ra,2f8c <memset>
    }
    keccak_inc_init(state->ctx);
}

void shake256_inc_absorb(shake256incctx *state, const uint8_t *input, size_t inlen) {
    keccak_inc_absorb(state->ctx, SHAKE256_RATE, input, inlen);
     a92:	6a09                	lui	s4,0x2
     a94:	79fd                	lui	s3,0xfffff
     a96:	fe0a0793          	addi	a5,s4,-32 # 1fe0 <PQCLEAN_KYBER512_CLEAN_gen_matrix+0x1d6>
     a9a:	0818                	addi	a4,sp,16
     a9c:	97ce                	add	a5,a5,s3
     a9e:	00e785b3          	add	a1,a5,a4
    s_inc[25] = 0;
     aa2:	4801                	li	a6,0
     aa4:	4781                	li	a5,0
    keccak_inc_absorb(state->ctx, SHAKE256_RATE, input, inlen);
     aa6:	02000613          	li	a2,32
     aaa:	7e058593          	addi	a1,a1,2016
     aae:	854a                	mv	a0,s2
    s_inc[25] = 0;
     ab0:	0cf92423          	sw	a5,200(s2)
     ab4:	0d092623          	sw	a6,204(s2)
    keccak_inc_absorb(state->ctx, SHAKE256_RATE, input, inlen);
     ab8:	1d0010ef          	jal	ra,1c88 <keccak_inc_absorb.constprop.0>
     abc:	9a098593          	addi	a1,s3,-1632 # ffffe9a0 <_sp+0xfff1e0f0>
     ac0:	fe0a0793          	addi	a5,s4,-32
     ac4:	97ae                	add	a5,a5,a1
     ac6:	0818                	addi	a4,sp,16
     ac8:	00e785b3          	add	a1,a5,a4
     acc:	30000613          	li	a2,768
     ad0:	854a                	mv	a0,s2
     ad2:	1b6010ef          	jal	ra,1c88 <keccak_inc_absorb.constprop.0>
    s_inc[s_inc[25] >> 3] ^= (uint64_t)p << (8 * (s_inc[25] & 0x07));
     ad6:	0c892783          	lw	a5,200(s2)
     ada:	0077f713          	andi	a4,a5,7
     ade:	070e                	slli	a4,a4,0x3
     ae0:	9be1                	andi	a5,a5,-8
     ae2:	fe070693          	addi	a3,a4,-32
     ae6:	97ca                	add	a5,a5,s2
     ae8:	1806c563          	bltz	a3,c72 <main+0xa5c>
     aec:	467d                	li	a2,31
     aee:	00d61633          	sll	a2,a2,a3
     af2:	4581                	li	a1,0
     af4:	4394                	lw	a3,0(a5)
     af6:	43d8                	lw	a4,4(a5)
    h += i;
     af8:	7a79                	lui	s4,0xffffe
    s_inc[s_inc[25] >> 3] ^= (uint64_t)p << (8 * (s_inc[25] & 0x07));
     afa:	8ead                	xor	a3,a3,a1
     afc:	8f31                	xor	a4,a4,a2
     afe:	c3d8                	sw	a4,4(a5)
     b00:	c394                	sw	a3,0(a5)
    s_inc[(r - 1) >> 3] ^= (uint64_t)128 << (8 * ((r - 1) & 0x07));
     b02:	08492783          	lw	a5,132(s2)
     b06:	80000737          	lui	a4,0x80000
    h += i;
     b0a:	5a0a0a13          	addi	s4,s4,1440 # ffffe5a0 <_sp+0xfff1dcf0>
    s_inc[(r - 1) >> 3] ^= (uint64_t)128 << (8 * ((r - 1) & 0x07));
     b0e:	8fb9                	xor	a5,a5,a4
     b10:	08f92223          	sw	a5,132(s2)
    s_inc[25] = 0;
     b14:	4781                	li	a5,0
     b16:	0cf92423          	sw	a5,200(s2)
    h += i;
     b1a:	6789                	lui	a5,0x2
     b1c:	1781                	addi	a5,a5,-32
    s_inc[25] = 0;
     b1e:	4801                	li	a6,0
    h += i;
     b20:	97d2                	add	a5,a5,s4
     b22:	0818                	addi	a4,sp,16
    s_inc[25] = 0;
     b24:	0d092623          	sw	a6,204(s2)
    outlen -= i;
     b28:	02000993          	li	s3,32
    h += i;
     b2c:	00e78a33          	add	s4,a5,a4
            h[i] = (uint8_t)(s_inc[i >> 3] >> (8 * (i & 0x07)));
     b30:	4b7d                	li	s6,31
        for (i = 0; i < outlen && i < r; i++) {
     b32:	08800a93          	li	s5,136
        keccak_ip_driver(s_inc, s_inc);
     b36:	85ca                	mv	a1,s2
     b38:	854a                	mv	a0,s2
     b3a:	5bf000ef          	jal	ra,18f8 <keccak_ip_driver>
        for (i = 0; i < outlen && i < r; i++) {
     b3e:	4781                	li	a5,0
     b40:	a819                	j	b56 <main+0x940>
            h[i] = (uint8_t)(s_inc[i >> 3] >> (8 * (i & 0x07)));
     b42:	4358                	lw	a4,4(a4)
        for (i = 0; i < outlen && i < r; i++) {
     b44:	0785                	addi	a5,a5,1
            h[i] = (uint8_t)(s_inc[i >> 3] >> (8 * (i & 0x07)));
     b46:	00c75733          	srl	a4,a4,a2
     b4a:	00e58023          	sb	a4,0(a1)
        for (i = 0; i < outlen && i < r; i++) {
     b4e:	0337ff63          	bgeu	a5,s3,b8c <main+0x976>
     b52:	11578e63          	beq	a5,s5,c6e <main+0xa58>
            h[i] = (uint8_t)(s_inc[i >> 3] >> (8 * (i & 0x07)));
     b56:	0077f693          	andi	a3,a5,7
     b5a:	068e                	slli	a3,a3,0x3
     b5c:	ff87f713          	andi	a4,a5,-8
     b60:	fe068613          	addi	a2,a3,-32
     b64:	00fa05b3          	add	a1,s4,a5
     b68:	974a                	add	a4,a4,s2
     b6a:	fc065ce3          	bgez	a2,b42 <main+0x92c>
     b6e:	4350                	lw	a2,4(a4)
     b70:	4318                	lw	a4,0(a4)
     b72:	40db0533          	sub	a0,s6,a3
     b76:	0606                	slli	a2,a2,0x1
     b78:	00a61633          	sll	a2,a2,a0
     b7c:	00d75733          	srl	a4,a4,a3
     b80:	8f51                	or	a4,a4,a2
     b82:	00e58023          	sb	a4,0(a1)
        for (i = 0; i < outlen && i < r; i++) {
     b86:	0785                	addi	a5,a5,1
     b88:	fd37e5e3          	bltu	a5,s3,b52 <main+0x93c>
        s_inc[25] = r - i;
     b8c:	40fa8733          	sub	a4,s5,a5
        outlen -= i;
     b90:	40f989b3          	sub	s3,s3,a5
        s_inc[25] = r - i;
     b94:	0ce92423          	sw	a4,200(s2)
     b98:	0c092623          	sw	zero,204(s2)
        h += i;
     b9c:	9a3e                	add	s4,s4,a5
    while (outlen > 0) {
     b9e:	f8099ce3          	bnez	s3,b36 <main+0x920>
     ba2:	6709                	lui	a4,0x2
     ba4:	7979                	lui	s2,0xffffe
     ba6:	5a090913          	addi	s2,s2,1440 # ffffe5a0 <_sp+0xfff1dcf0>
     baa:	fe070793          	addi	a5,a4,-32 # 1fe0 <PQCLEAN_KYBER512_CLEAN_gen_matrix+0x1d6>
     bae:	97ca                	add	a5,a5,s2
     bb0:	0814                	addi	a3,sp,16
     bb2:	767d                	lui	a2,0xfffff
     bb4:	00d78933          	add	s2,a5,a3
     bb8:	da060613          	addi	a2,a2,-608 # ffffeda0 <_sp+0xfff1e4f0>
     bbc:	fe070793          	addi	a5,a4,-32
*              uint8_t b:        Condition bit; has to be in {0,1}
**************************************************/
void PQCLEAN_KYBER512_CLEAN_cmov(uint8_t *r, const uint8_t *x, size_t len, uint8_t b) {
    size_t i;

    b = -b;
     bc0:	fff48593          	addi	a1,s1,-1
     bc4:	97b2                	add	a5,a5,a2
     bc6:	0ff5f593          	zext.b	a1,a1
     bca:	00d78633          	add	a2,a5,a3
     bce:	02090993          	addi	s3,s2,32
     bd2:	874a                	mv	a4,s2
    for (i = 0; i < len; i++) {
        r[i] ^= b & (r[i] ^ x[i]);
     bd4:	00074683          	lbu	a3,0(a4)
     bd8:	00064783          	lbu	a5,0(a2)
    for (i = 0; i < len; i++) {
     bdc:	0705                	addi	a4,a4,1
     bde:	0605                	addi	a2,a2,1
        r[i] ^= b & (r[i] ^ x[i]);
     be0:	8fb5                	xor	a5,a5,a3
     be2:	8fed                	and	a5,a5,a1
     be4:	8ebd                	xor	a3,a3,a5
     be6:	fed70fa3          	sb	a3,-1(a4)
    for (i = 0; i < len; i++) {
     bea:	fee995e3          	bne	s3,a4,bd4 <main+0x9be>
    crypto_kem_dec(key_a, sendb, sk_a);
    CSR_READ(CSR_REG_MCYCLE, &cycles_dec);
     bee:	b00025f3          	csrr	a1,mcycle
    printf("Number of clock cycles dec: %d\n", cycles_dec);
     bf2:	00080537          	lui	a0,0x80
     bf6:	13450513          	addi	a0,a0,308 # 80134 <no_exception_handler_msg+0x9f>
     bfa:	22a030ef          	jal	ra,3e24 <iprintf>
    
    printbytes(key_a, CRYPTO_BYTES);
     bfe:	74f9                	lui	s1,0xffffe
     c00:	6a09                	lui	s4,0x2
     c02:	5a048513          	addi	a0,s1,1440 # ffffe5a0 <_sp+0xfff1dcf0>
     c06:	fe0a0793          	addi	a5,s4,-32 # 1fe0 <PQCLEAN_KYBER512_CLEAN_gen_matrix+0x1d6>
     c0a:	97aa                	add	a5,a5,a0
     c0c:	0818                	addi	a4,sp,16
     c0e:	00e78533          	add	a0,a5,a4
     c12:	269010ef          	jal	ra,267a <printbytes.constprop.0>
    printbytes(key_b, CRYPTO_BYTES);
     c16:	02048493          	addi	s1,s1,32
     c1a:	fe0a0793          	addi	a5,s4,-32
     c1e:	97a6                	add	a5,a5,s1
     c20:	0818                	addi	a4,sp,16
     c22:	00e784b3          	add	s1,a5,a4
     c26:	8526                	mv	a0,s1
     c28:	253010ef          	jal	ra,267a <printbytes.constprop.0>


    for (j = 0; j < CRYPTO_BYTES; j++) {
     c2c:	8526                	mv	a0,s1
     c2e:	a029                	j	c38 <main+0xa22>
     c30:	0905                	addi	s2,s2,1
     c32:	0505                	addi	a0,a0,1
     c34:	05390863          	beq	s2,s3,c84 <main+0xa6e>
        if (key_a[j] != key_b[j]) {
     c38:	00094703          	lbu	a4,0(s2)
     c3c:	00054783          	lbu	a5,0(a0)
     c40:	fef708e3          	beq	a4,a5,c30 <main+0xa1a>
            printf("ERROR\n");
     c44:	00080537          	lui	a0,0x80
     c48:	15450513          	addi	a0,a0,340 # 80154 <no_exception_handler_msg+0xbf>
     c4c:	42e020ef          	jal	ra,307a <puts>
            return -1;
     c50:	557d                	li	a0,-1
        }
    }

    //printf("Ends testvectors KEM!\n");
    return 0;
}
     c52:	6289                	lui	t0,0x2
     c54:	1281                	addi	t0,t0,-32
     c56:	9116                	add	sp,sp,t0
     c58:	50f2                	lw	ra,60(sp)
     c5a:	54e2                	lw	s1,56(sp)
     c5c:	5952                	lw	s2,52(sp)
     c5e:	59c2                	lw	s3,48(sp)
     c60:	5a32                	lw	s4,44(sp)
     c62:	5aa2                	lw	s5,40(sp)
     c64:	5b12                	lw	s6,36(sp)
     c66:	5b82                	lw	s7,32(sp)
     c68:	4c72                	lw	s8,28(sp)
     c6a:	6121                	addi	sp,sp,64
     c6c:	8082                	ret
     c6e:	4701                	li	a4,0
     c70:	b705                	j	b90 <main+0x97a>
    s_inc[s_inc[25] >> 3] ^= (uint64_t)p << (8 * (s_inc[25] & 0x07));
     c72:	45fd                	li	a1,31
     c74:	40e586b3          	sub	a3,a1,a4
     c78:	463d                	li	a2,15
     c7a:	00d65633          	srl	a2,a2,a3
     c7e:	00e595b3          	sll	a1,a1,a4
     c82:	bd8d                	j	af4 <main+0x8de>
    return 0;
     c84:	4501                	li	a0,0
     c86:	b7f1                	j	c52 <main+0xa3c>
        exit(111);
     c88:	06f00513          	li	a0,111
     c8c:	d60ff0ef          	jal	ra,1ec <exit>

00000c90 <__no_irq_handler>:
/*	j __no_irq_handler */

.section .text.vecs
/* exception handling */
__no_irq_handler:
	la a0, no_exception_handler_msg
     c90:	0007f517          	auipc	a0,0x7f
     c94:	40550513          	addi	a0,a0,1029 # 80095 <no_exception_handler_msg>
	jal ra, puts
     c98:	3e2020ef          	jal	ra,307a <puts>
	j __no_irq_handler
     c9c:	ff5ff06f          	j	c90 <__no_irq_handler>

00000ca0 <sw_irq_handler>:


sw_irq_handler:
	csrr t0, mcause
     ca0:	342022f3          	csrr	t0,mcause
	slli t0, t0, 1  /* shift off the high bit */
     ca4:	00129293          	slli	t0,t0,0x1
	srli t0, t0, 1
     ca8:	0012d293          	srli	t0,t0,0x1
	li t1, 2
     cac:	00200313          	li	t1,2
	beq t0, t1, handle_illegal_insn
     cb0:	02628c63          	beq	t0,t1,ce8 <handle_illegal_insn>
	li t1, 11
     cb4:	00b00313          	li	t1,11
	beq t0, t1, handle_ecall
     cb8:	00628863          	beq	t0,t1,cc8 <handle_ecall>
	li t1, 3
     cbc:	00300313          	li	t1,3
	beq t0, t1, handle_ebreak
     cc0:	00628c63          	beq	t0,t1,cd8 <handle_ebreak>
	j handle_unknown
     cc4:	0340006f          	j	cf8 <handle_unknown>

00000cc8 <handle_ecall>:

handle_ecall:
	la a0, ecall_msg
     cc8:	0007f517          	auipc	a0,0x7f
     ccc:	36750513          	addi	a0,a0,871 # 8002f <ecall_msg>
	jal ra, puts
     cd0:	3aa020ef          	jal	ra,307a <puts>
	j end_handler
     cd4:	0340006f          	j	d08 <end_handler>

00000cd8 <handle_ebreak>:

handle_ebreak:
	la a0, ebreak_msg
     cd8:	0007f517          	auipc	a0,0x7f
     cdc:	37850513          	addi	a0,a0,888 # 80050 <ebreak_msg>
	jal ra, puts
     ce0:	39a020ef          	jal	ra,307a <puts>
	j end_handler
     ce4:	0240006f          	j	d08 <end_handler>

00000ce8 <handle_illegal_insn>:

handle_illegal_insn:
	la a0, illegal_insn_msg
     ce8:	0007f517          	auipc	a0,0x7f
     cec:	31850513          	addi	a0,a0,792 # 80000 <illegal_insn_msg>
	jal ra, puts
     cf0:	38a020ef          	jal	ra,307a <puts>
	j end_handler
     cf4:	0140006f          	j	d08 <end_handler>

00000cf8 <handle_unknown>:

handle_unknown:
	la a0, unknown_msg
     cf8:	0007f517          	auipc	a0,0x7f
     cfc:	37a50513          	addi	a0,a0,890 # 80072 <unknown_msg>
	jal ra, puts
     d00:	37a020ef          	jal	ra,307a <puts>
	j end_handler
     d04:	0040006f          	j	d08 <end_handler>

00000d08 <end_handler>:

end_handler:
	csrr a0, mepc
     d08:	34102573          	csrr	a0,mepc
	addi a0, a0, 4
     d0c:	00450513          	addi	a0,a0,4
	csrw mepc, a0
     d10:	34151073          	csrw	mepc,a0
	mret
     d14:	30200073          	mret

00000d18 <verification_irq_handler>:
/* this interrupt can be generated for verification purposes, random or when the PC is equal to a given value*/
verification_irq_handler:
	mret
     d18:	30200073          	mret

00000d1c <handler_irq_uart>:
size_t uart_sink(void *uart, const char *data, size_t len) {
  return uart_write((const uart_t *)uart, (const uint8_t *)data, len);
}

__attribute__((weak, optimize("O0"))) void handler_irq_uart(uint32_t id)
{
     d1c:	1101                	addi	sp,sp,-32
     d1e:	ce22                	sw	s0,28(sp)
     d20:	1000                	addi	s0,sp,32
     d22:	fea42623          	sw	a0,-20(s0)
 // Replace this function with a non-weak implementation
     d26:	0001                	nop
     d28:	4472                	lw	s0,28(sp)
     d2a:	6105                	addi	sp,sp,32
     d2c:	8082                	ret

00000d2e <handler_irq_dummy>:
/*                            LOCAL FUNCTIONS                               */
/**                                                                        **/
/****************************************************************************/

__attribute__((optimize("O0"))) static void handler_irq_dummy( uint32_t dummy )
{
     d2e:	1101                	addi	sp,sp,-32
     d30:	ce22                	sw	s0,28(sp)
     d32:	1000                	addi	s0,sp,32
     d34:	fea42623          	sw	a0,-20(s0)
}
     d38:	0001                	nop
     d3a:	4472                	lw	s0,28(sp)
     d3c:	6105                	addi	sp,sp,32
     d3e:	8082                	ret

00000d40 <gpio_handler_irq_dummy>:
/*                            LOCAL FUNCTIONS                               */
/**                                                                        **/
/****************************************************************************/

__attribute__((optimize("O0"))) static void gpio_handler_irq_dummy( uint32_t dummy )
{
     d40:	1101                	addi	sp,sp,-32
     d42:	ce22                	sw	s0,28(sp)
     d44:	1000                	addi	s0,sp,32
     d46:	fea42623          	sw	a0,-20(s0)
  return;
     d4a:	0001                	nop
}
     d4c:	4472                	lw	s0,28(sp)
     d4e:	6105                	addi	sp,sp,32
     d50:	8082                	ret

00000d52 <handler_irq_i2c>:
     d52:	1101                	addi	sp,sp,-32
     d54:	ce22                	sw	s0,28(sp)
     d56:	1000                	addi	s0,sp,32
     d58:	fea42623          	sw	a0,-20(s0)
     d5c:	fec42503          	lw	a0,-20(s0)
     d60:	4472                	lw	s0,28(sp)
     d62:	6105                	addi	sp,sp,32
     d64:	bf65                	j	d1c <handler_irq_uart>

00000d66 <fic_irq_timer_1>:
    fast_intr_ctrl_peri->FAST_INTR_CLEAR = reg;
    return kFastIntrCtrlOk_e;
}

__attribute__((weak, optimize("O0"))) void fic_irq_timer_1(void)
{
     d66:	1141                	addi	sp,sp,-16
     d68:	c622                	sw	s0,12(sp)
     d6a:	0800                	addi	s0,sp,16
    /* Users should implement their non-weak version */
}
     d6c:	0001                	nop
     d6e:	4432                	lw	s0,12(sp)
     d70:	0141                	addi	sp,sp,16
     d72:	8082                	ret

00000d74 <fic_irq_timer_2>:
     d74:	1141                	addi	sp,sp,-16
     d76:	c622                	sw	s0,12(sp)
     d78:	0800                	addi	s0,sp,16
     d7a:	4432                	lw	s0,12(sp)
     d7c:	0141                	addi	sp,sp,16
     d7e:	b7e5                	j	d66 <fic_irq_timer_1>

00000d80 <fic_irq_timer_3>:
     d80:	1141                	addi	sp,sp,-16
     d82:	c622                	sw	s0,12(sp)
     d84:	0800                	addi	s0,sp,16
     d86:	4432                	lw	s0,12(sp)
     d88:	0141                	addi	sp,sp,16
     d8a:	bff1                	j	d66 <fic_irq_timer_1>

00000d8c <fic_irq_spi>:
     d8c:	1141                	addi	sp,sp,-16
     d8e:	c622                	sw	s0,12(sp)
     d90:	0800                	addi	s0,sp,16
     d92:	4432                	lw	s0,12(sp)
     d94:	0141                	addi	sp,sp,16
     d96:	bfc1                	j	d66 <fic_irq_timer_1>

00000d98 <fic_irq_spi_flash>:
     d98:	1141                	addi	sp,sp,-16
     d9a:	c622                	sw	s0,12(sp)
     d9c:	0800                	addi	s0,sp,16
     d9e:	4432                	lw	s0,12(sp)
     da0:	0141                	addi	sp,sp,16
     da2:	b7d1                	j	d66 <fic_irq_timer_1>

00000da4 <fic_irq_gpio_0>:
     da4:	1141                	addi	sp,sp,-16
     da6:	c622                	sw	s0,12(sp)
     da8:	0800                	addi	s0,sp,16
     daa:	4432                	lw	s0,12(sp)
     dac:	0141                	addi	sp,sp,16
     dae:	bf65                	j	d66 <fic_irq_timer_1>

00000db0 <fic_irq_gpio_1>:
     db0:	1141                	addi	sp,sp,-16
     db2:	c622                	sw	s0,12(sp)
     db4:	0800                	addi	s0,sp,16
     db6:	4432                	lw	s0,12(sp)
     db8:	0141                	addi	sp,sp,16
     dba:	b775                	j	d66 <fic_irq_timer_1>

00000dbc <fic_irq_gpio_2>:
     dbc:	1141                	addi	sp,sp,-16
     dbe:	c622                	sw	s0,12(sp)
     dc0:	0800                	addi	s0,sp,16
     dc2:	4432                	lw	s0,12(sp)
     dc4:	0141                	addi	sp,sp,16
     dc6:	b745                	j	d66 <fic_irq_timer_1>

00000dc8 <fic_irq_gpio_3>:
     dc8:	1141                	addi	sp,sp,-16
     dca:	c622                	sw	s0,12(sp)
     dcc:	0800                	addi	s0,sp,16
     dce:	4432                	lw	s0,12(sp)
     dd0:	0141                	addi	sp,sp,16
     dd2:	bf51                	j	d66 <fic_irq_timer_1>

00000dd4 <fic_irq_gpio_4>:
     dd4:	1141                	addi	sp,sp,-16
     dd6:	c622                	sw	s0,12(sp)
     dd8:	0800                	addi	s0,sp,16
     dda:	4432                	lw	s0,12(sp)
     ddc:	0141                	addi	sp,sp,16
     dde:	b761                	j	d66 <fic_irq_timer_1>

00000de0 <fic_irq_gpio_5>:
     de0:	1141                	addi	sp,sp,-16
     de2:	c622                	sw	s0,12(sp)
     de4:	0800                	addi	s0,sp,16
     de6:	4432                	lw	s0,12(sp)
     de8:	0141                	addi	sp,sp,16
     dea:	bfb5                	j	d66 <fic_irq_timer_1>

00000dec <fic_irq_gpio_6>:
     dec:	1141                	addi	sp,sp,-16
     dee:	c622                	sw	s0,12(sp)
     df0:	0800                	addi	s0,sp,16
     df2:	4432                	lw	s0,12(sp)
     df4:	0141                	addi	sp,sp,16
     df6:	bf85                	j	d66 <fic_irq_timer_1>

00000df8 <fic_irq_gpio_7>:
     df8:	1141                	addi	sp,sp,-16
     dfa:	c622                	sw	s0,12(sp)
     dfc:	0800                	addi	s0,sp,16
     dfe:	4432                	lw	s0,12(sp)
     e00:	0141                	addi	sp,sp,16
     e02:	b795                	j	d66 <fic_irq_timer_1>

00000e04 <handler_irq_spi>:
     e04:	1101                	addi	sp,sp,-32
     e06:	ce22                	sw	s0,28(sp)
     e08:	1000                	addi	s0,sp,32
     e0a:	fea42623          	sw	a0,-20(s0)
     e0e:	fec42503          	lw	a0,-20(s0)
     e12:	4472                	lw	s0,28(sp)
     e14:	6105                	addi	sp,sp,32
     e16:	b719                	j	d1c <handler_irq_uart>

00000e18 <handler_irq_gpio>:
    gpio_handlers[ id - GPIO_INTR_START ]();
     e18:	4781                	li	a5,0
     e1a:	8782                	jr	a5

00000e1c <dma_intr_handler_trans_done>:
    return (dma_cb.peri->STATUS & (1U << DMA_STATUS_READY_BIT));
}

__attribute__((weak, optimize("O3"))) void dma_intr_handler_trans_done()
{
}
     e1c:	8082                	ret

00000e1e <handler_irq_dma>:
}
     e1e:	8082                	ret

00000e20 <init_athos>:
    (&rv_plic_peri->LE0)[i] = 0;
     e20:	300007b7          	lui	a5,0x30000
     e24:	0007a423          	sw	zero,8(a5) # 30000008 <_sp+0x2ff1f758>
  for(uint8_t i=0; i<RV_PLIC_PARAM_NUM_SRC; i++)
     e28:	300006b7          	lui	a3,0x30000
    (&rv_plic_peri->LE0)[i] = 0;
     e2c:	0007a623          	sw	zero,12(a5)
  for(uint8_t i=0; i<RV_PLIC_PARAM_NUM_SRC; i++)
     e30:	11068713          	addi	a4,a3,272 # 30000110 <_sp+0x2ff1f860>
    (&rv_plic_peri->LE0)[i] = 0;
     e34:	07c1                	addi	a5,a5,16
    (&rv_plic_peri->PRIO0)[i] = 0;
     e36:	0007a023          	sw	zero,0(a5)
  for(uint8_t i=0; i<RV_PLIC_PARAM_NUM_SRC; i++)
     e3a:	0791                	addi	a5,a5,4
     e3c:	fee79de3          	bne	a5,a4,e36 <init_athos+0x16>
    (&rv_plic_peri->IE00)[i] = 0;
     e40:	2006a023          	sw	zero,512(a3)
     e44:	2006a223          	sw	zero,516(a3)
  rv_plic_peri->THRESHOLD0 = 0;
     e48:	2006a423          	sw	zero,520(a3)
  if(rv_plic_peri->THRESHOLD0 != 0)
     e4c:	2086a783          	lw	a5,520(a3)
     e50:	e791                	bnez	a5,e5c <init_athos+0x3c>
  rv_plic_peri->MSIP0 = 0;
     e52:	2006a823          	sw	zero,528(a3)
  if(rv_plic_peri->MSIP0 != 0)
     e56:	2106a783          	lw	a5,528(a3)
     e5a:	c391                	beqz	a5,e5e <init_athos+0x3e>
     e5c:	8082                	ret
  handlers[NULL_INTR] = &handler_irq_dummy;
     e5e:	00080eb7          	lui	t4,0x80
     e62:	6f05                	lui	t5,0x1

// Interrupt controller variables
plic_result_t plic_res;

void init_athos()
{
     e64:	1141                	addi	sp,sp,-16
     e66:	6c8e8e93          	addi	t4,t4,1736 # 806c8 <handlers>
     e6a:	d2ef0f13          	addi	t5,t5,-722 # d2e <handler_irq_dummy>
      handlers[i] = &handler_irq_i2c;
     e6e:	6885                	lui	a7,0x1
      handlers[i] = &handler_irq_gpio;
     e70:	6505                	lui	a0,0x1
      handlers[i] = &handler_irq_uart;
     e72:	6305                	lui	t1,0x1
     e74:	c626                	sw	s1,12(sp)
     e76:	c44a                	sw	s2,8(sp)
     e78:	c24e                	sw	s3,4(sp)
  handlers[NULL_INTR] = &handler_irq_dummy;
     e7a:	01eea023          	sw	t5,0(t4)
  for( uint8_t i = NULL_INTR +1; i < QTY_INTR; i++ )
     e7e:	004e8713          	addi	a4,t4,4
  handlers[NULL_INTR] = &handler_irq_dummy;
     e82:	4785                	li	a5,1
     e84:	4481                	li	s1,0
     e86:	4981                	li	s3,0
     e88:	4901                	li	s2,0
    if ( i <= UART_ID_END)
     e8a:	4621                	li	a2,8
    else if ( i <= GPIO_ID_END)
     e8c:	02000593          	li	a1,32
    else if ( i <= I2C_ID_END)
     e90:	03000813          	li	a6,48
    else if ( i == SPI_ID)
     e94:	03100e13          	li	t3,49
    else if ( i == I2S_ID)
     e98:	03200f93          	li	t6,50
    else if ( i == DMA_ID)
     e9c:	03300293          	li	t0,51
  for( uint8_t i = NULL_INTR +1; i < QTY_INTR; i++ )
     ea0:	03f00393          	li	t2,63
      handlers[i] = &handler_irq_i2c;
     ea4:	d5288893          	addi	a7,a7,-686 # d52 <handler_irq_i2c>
      handlers[i] = &handler_irq_gpio;
     ea8:	e1850513          	addi	a0,a0,-488 # e18 <handler_irq_gpio>
      handlers[i] = &handler_irq_uart;
     eac:	d1c30313          	addi	t1,t1,-740 # d1c <handler_irq_uart>
     eb0:	a021                	j	eb8 <init_athos+0x98>
      handlers[i] = &handler_irq_gpio;
     eb2:	c308                	sw	a0,0(a4)
     eb4:	0785                	addi	a5,a5,1
     eb6:	0711                	addi	a4,a4,4
    if ( i <= UART_ID_END)
     eb8:	0ff7f693          	zext.b	a3,a5
     ebc:	00f67963          	bgeu	a2,a5,ece <init_athos+0xae>
    else if ( i <= GPIO_ID_END)
     ec0:	fed5f9e3          	bgeu	a1,a3,eb2 <init_athos+0x92>
    else if ( i <= I2C_ID_END)
     ec4:	00d86863          	bltu	a6,a3,ed4 <init_athos+0xb4>
      handlers[i] = &handler_irq_i2c;
     ec8:	01172023          	sw	a7,0(a4)
     ecc:	b7e5                	j	eb4 <init_athos+0x94>
      handlers[i] = &handler_irq_uart;
     ece:	00672023          	sw	t1,0(a4)
     ed2:	b7cd                	j	eb4 <init_athos+0x94>
    else if ( i == SPI_ID)
     ed4:	0dc68663          	beq	a3,t3,fa0 <init_athos+0x180>
    else if ( i == I2S_ID)
     ed8:	0df68663          	beq	a3,t6,fa4 <init_athos+0x184>
    else if ( i == DMA_ID)
     edc:	0c568663          	beq	a3,t0,fa8 <init_athos+0x188>
      handlers[i] = &handler_irq_dummy;
     ee0:	01e72023          	sw	t5,0(a4)
  for( uint8_t i = NULL_INTR +1; i < QTY_INTR; i++ )
     ee4:	fc7698e3          	bne	a3,t2,eb4 <init_athos+0x94>
     ee8:	c491                	beqz	s1,ef4 <init_athos+0xd4>
     eea:	6785                	lui	a5,0x1
     eec:	e1e78793          	addi	a5,a5,-482 # e1e <handler_irq_dma>
     ef0:	0cfea623          	sw	a5,204(t4)
     ef4:	00098663          	beqz	s3,f00 <init_athos+0xe0>
     ef8:	00000793          	li	a5,0
     efc:	0cfea423          	sw	a5,200(t4)
     f00:	00090763          	beqz	s2,f0e <init_athos+0xee>
     f04:	6785                	lui	a5,0x1
     f06:	e0478793          	addi	a5,a5,-508 # e04 <handler_irq_spi>
     f0a:	0cfea223          	sw	a5,196(t4)
  (&rv_plic_peri->PRIO0)[irq] = priority;
     f0e:	300007b7          	lui	a5,0x30000
     f12:	0e078713          	addi	a4,a5,224 # 300000e0 <_sp+0x2ff1f830>
     f16:	4685                	li	a3,1
     f18:	c314                	sw	a3,0(a4)
  (&rv_plic_peri->IE00)[offset] = bitfield_write((&rv_plic_peri->IE00)[offset],
     f1a:	20478793          	addi	a5,a5,516
     f1e:	4398                	lw	a4,0(a5)
inline uint32_t bitfield_write(uint32_t bitfield,
                                       uint32_t mask, 
                                       uint32_t index,
                                       uint32_t value) 
{
  bitfield &= ~(mask << index);
     f20:	fff006b7          	lui	a3,0xfff00
     f24:	16fd                	addi	a3,a3,-1
     f26:	8f75                	and	a4,a4,a3
  bitfield |= (value & mask) << index;
     f28:	001006b7          	lui	a3,0x100
     f2c:	8f55                	or	a4,a4,a3
     f2e:	c398                	sw	a4,0(a5)
  // Enable the interrupt in reg 0 
  plic_res = plic_irq_set_enabled(EXT_INTR_0, kPlicToggleEnabled);

  // Enable interrupt on processor side
  // Enable global interrupt for machine-level interrupts
  CSR_SET_BITS(CSR_REG_MSTATUS, 0x8);
     f30:	4621                	li	a2,8
     f32:	30062073          	csrs	mstatus,a2
  // Set mie.MEIE bit to one to enable machine-level external interrupts
  const uint32_t mask = 1 << 11;//IRQ_EXT_ENABLE_OFFSET;
  CSR_SET_BITS(CSR_REG_MIE, mask);
     f36:	6705                	lui	a4,0x1
     f38:	80070793          	addi	a5,a4,-2048 # 800 <main+0x5ea>
     f3c:	3047a073          	csrs	mie,a5
    dma_cb.peri = dma_peri;
     f40:	000806b7          	lui	a3,0x80
     f44:	200607b7          	lui	a5,0x20060
     f48:	6bc68693          	addi	a3,a3,1724 # 806bc <dma_cb>
     f4c:	c69c                	sw	a5,8(a3)
    dma_cb.trans = NULL;
     f4e:	0006a023          	sw	zero,0(a3)
    dma_cb.peri->SRC_PTR       = 0;
     f52:	0007a023          	sw	zero,0(a5) # 20060000 <_sp+0x1ff7f750>
    dma_cb.peri->DST_PTR       = 0;
     f56:	0007a223          	sw	zero,4(a5)
    dma_cb.peri->SIZE          = 0;
     f5a:	0007a623          	sw	zero,12(a5)
    dma_cb.peri->PTR_INC       = 0;
     f5e:	0007aa23          	sw	zero,20(a5)
    dma_cb.peri->SLOT          = 0;
     f62:	0007ac23          	sw	zero,24(a5)
    dma_cb.peri->DATA_TYPE     = 0;
     f66:	0007ae23          	sw	zero,28(a5)
    dma_cb.peri->MODE          = 0;
     f6a:	0207a023          	sw	zero,32(a5)
    dma_cb.peri->WINDOW_SIZE   = 0;
     f6e:	0207a223          	sw	zero,36(a5)
    dma_cb.peri->INTERRUPT_EN  = 0;
     f72:	0207a623          	sw	zero,44(a5)
    CSR_CLEAR_BITS(CSR_REG_MIE, DMA_CSR_REG_MIE_MASK );
     f76:	000817b7          	lui	a5,0x81
     f7a:	80078793          	addi	a5,a5,-2048 # 80800 <out+0x8>
     f7e:	3047b073          	csrc	mie,a5
    CSR_SET_BITS(CSR_REG_MSTATUS, 0x8 );
     f82:	30062073          	csrs	mstatus,a2
    CSR_SET_BITS(CSR_REG_MIE, DMA_CSR_REG_MIE_MASK );
     f86:	3047a073          	csrs	mie,a5


  dma_init(NULL);

  //Making the TRNG starts
  *ctrl_reg = (1 << ATHOS_IP_CTRL_CTRL_C3_BIT) | (4 << ATHOS_IP_CTRL_CTRL_OPERATION_OFFSET);
     f8a:	200807b7          	lui	a5,0x20080
     f8e:	0721                	addi	a4,a4,8
     f90:	c398                	sw	a4,0(a5)
  *ctrl_reg = (0 << ATHOS_IP_CTRL_CTRL_C3_BIT) | (0 << ATHOS_IP_CTRL_CTRL_OPERATION_OFFSET);
     f92:	0007a023          	sw	zero,0(a5) # 20080000 <_sp+0x1ff9f750>




     f96:	44b2                	lw	s1,12(sp)
     f98:	4922                	lw	s2,8(sp)
     f9a:	4992                	lw	s3,4(sp)
     f9c:	0141                	addi	sp,sp,16
     f9e:	8082                	ret
     fa0:	4905                	li	s2,1
     fa2:	bf09                	j	eb4 <init_athos+0x94>
     fa4:	4985                	li	s3,1
     fa6:	b739                	j	eb4 <init_athos+0x94>
     fa8:	4485                	li	s1,1
  for( uint8_t i = NULL_INTR +1; i < QTY_INTR; i++ )
     faa:	b729                	j	eb4 <init_athos+0x94>

00000fac <cbd2>:
*              a centered binomial distribution with parameter eta=2
*
* Arguments:   - poly *r: pointer to output polynomial
*              - const uint8_t *buf: pointer to input byte array
**************************************************/
static void cbd2(poly *r, const uint8_t buf[2 * KYBER_N / 4]) {
     fac:	4781                	li	a5,0
        /*t  = load32_littleendian(buf + 4 * i);
        d  = t & 0x55555555;
        d += (t >> 1) & 0x55555555;*/
        asm volatile (".insn i 0x2b, 2, %[dst], %[src], 0\r\n" : [dst] "=r" (d) : [src] "r" (buf + 4 * i) : );

        asm volatile (".insn r 0x0b, 0x5, 0x9, %[dst], %[src], %[x]\r\n" : [dst] "=r" (r->coeffs[8 * i])      : [src] "r" (d), [x] "r" (0) : );
     fae:	4281                	li	t0,0
        asm volatile (".insn r 0x0b, 0x5, 0x10, %[dst], %[src], %[x]\r\n" : [dst] "=r" (r->coeffs[8 * i + 1]) : [src] "r" (d), [x] "r" (1) : );
     fb0:	4f85                	li	t6,1
        asm volatile (".insn r 0x0b, 0x5, 0x11, %[dst], %[src], %[x]\r\n" : [dst] "=r" (r->coeffs[8 * i + 2]) : [src] "r" (d), [x] "r" (2) : );
     fb2:	4f09                	li	t5,2
        asm volatile (".insn r 0x0b, 0x5, 0x12, %[dst], %[src], %[x]\r\n" : [dst] "=r" (r->coeffs[8 * i + 3]) : [src] "r" (d), [x] "r" (3) : );
     fb4:	4e8d                	li	t4,3
        asm volatile (".insn r 0x0b, 0x5, 0x13, %[dst], %[src], %[x]\r\n" : [dst] "=r" (r->coeffs[8 * i + 4]) : [src] "r" (d), [x] "r" (4) : );
     fb6:	4e11                	li	t3,4
        asm volatile (".insn r 0x0b, 0x5, 0x14, %[dst], %[src], %[x]\r\n" : [dst] "=r" (r->coeffs[8 * i + 5]) : [src] "r" (d), [x] "r" (5) : );
     fb8:	4315                	li	t1,5
        asm volatile (".insn r 0x0b, 0x5, 0x15, %[dst], %[src], %[x]\r\n" : [dst] "=r" (r->coeffs[8 * i + 6]) : [src] "r" (d), [x] "r" (6) : );
     fba:	4899                	li	a7,6
        asm volatile (".insn r 0x0b, 0x5, 0x16, %[dst], %[src], %[x]\r\n" : [dst] "=r" (r->coeffs[8 * i + 7]) : [src] "r" (d), [x] "r" (7) : );
     fbc:	481d                	li	a6,7
    for (i = 0; i < KYBER_N / 8; i++) {
     fbe:	10000613          	li	a2,256
        asm volatile (".insn i 0x2b, 2, %[dst], %[src], 0\r\n" : [dst] "=r" (d) : [src] "r" (buf + 4 * i) : );
     fc2:	0005a72b          	0x5a72b
        asm volatile (".insn r 0x0b, 0x5, 0x9, %[dst], %[src], %[x]\r\n" : [dst] "=r" (r->coeffs[8 * i])      : [src] "r" (d), [x] "r" (0) : );
     fc6:	1257538b          	0x1257538b
     fca:	00179693          	slli	a3,a5,0x1
     fce:	96aa                	add	a3,a3,a0
     fd0:	00769023          	sh	t2,0(a3)
        asm volatile (".insn r 0x0b, 0x5, 0x10, %[dst], %[src], %[x]\r\n" : [dst] "=r" (r->coeffs[8 * i + 1]) : [src] "r" (d), [x] "r" (1) : );
     fd4:	21f7538b          	0x21f7538b
     fd8:	00178693          	addi	a3,a5,1
     fdc:	0686                	slli	a3,a3,0x1
     fde:	96aa                	add	a3,a3,a0
     fe0:	00769023          	sh	t2,0(a3)
        asm volatile (".insn r 0x0b, 0x5, 0x11, %[dst], %[src], %[x]\r\n" : [dst] "=r" (r->coeffs[8 * i + 2]) : [src] "r" (d), [x] "r" (2) : );
     fe4:	23e7538b          	0x23e7538b
     fe8:	00278693          	addi	a3,a5,2
     fec:	0686                	slli	a3,a3,0x1
     fee:	96aa                	add	a3,a3,a0
     ff0:	00769023          	sh	t2,0(a3)
        asm volatile (".insn r 0x0b, 0x5, 0x12, %[dst], %[src], %[x]\r\n" : [dst] "=r" (r->coeffs[8 * i + 3]) : [src] "r" (d), [x] "r" (3) : );
     ff4:	25d7538b          	0x25d7538b
     ff8:	00378693          	addi	a3,a5,3
     ffc:	0686                	slli	a3,a3,0x1
     ffe:	96aa                	add	a3,a3,a0
    1000:	00769023          	sh	t2,0(a3)
        asm volatile (".insn r 0x0b, 0x5, 0x13, %[dst], %[src], %[x]\r\n" : [dst] "=r" (r->coeffs[8 * i + 4]) : [src] "r" (d), [x] "r" (4) : );
    1004:	27c7538b          	0x27c7538b
    1008:	00478693          	addi	a3,a5,4
    100c:	0686                	slli	a3,a3,0x1
    100e:	96aa                	add	a3,a3,a0
    1010:	00769023          	sh	t2,0(a3)
        asm volatile (".insn r 0x0b, 0x5, 0x14, %[dst], %[src], %[x]\r\n" : [dst] "=r" (r->coeffs[8 * i + 5]) : [src] "r" (d), [x] "r" (5) : );
    1014:	2867538b          	0x2867538b
    1018:	00578693          	addi	a3,a5,5
    101c:	0686                	slli	a3,a3,0x1
    101e:	96aa                	add	a3,a3,a0
    1020:	00769023          	sh	t2,0(a3)
        asm volatile (".insn r 0x0b, 0x5, 0x15, %[dst], %[src], %[x]\r\n" : [dst] "=r" (r->coeffs[8 * i + 6]) : [src] "r" (d), [x] "r" (6) : );
    1024:	2b17538b          	0x2b17538b
    1028:	00678693          	addi	a3,a5,6
    102c:	0686                	slli	a3,a3,0x1
    102e:	96aa                	add	a3,a3,a0
    1030:	00769023          	sh	t2,0(a3)
        asm volatile (".insn r 0x0b, 0x5, 0x16, %[dst], %[src], %[x]\r\n" : [dst] "=r" (r->coeffs[8 * i + 7]) : [src] "r" (d), [x] "r" (7) : );
    1034:	2d07570b          	0x2d07570b
    1038:	00778693          	addi	a3,a5,7
    103c:	0686                	slli	a3,a3,0x1
    103e:	96aa                	add	a3,a3,a0
    1040:	00e69023          	sh	a4,0(a3)
    for (i = 0; i < KYBER_N / 8; i++) {
    1044:	07a1                	addi	a5,a5,8
    1046:	0591                	addi	a1,a1,4
    1048:	f6c79de3          	bne	a5,a2,fc2 <cbd2+0x16>
            b = (d >> (4 * j + 2)) & 0x3;
            r->coeffs[8 * i + j] = a - b;
        }*/
        
    }
}
    104c:	8082                	ret

0000104e <PQCLEAN_KYBER512_CLEAN_polyvec_tobytes>:
        t0 += ((int16_t)t0 >> 15) & KYBER_Q;
    104e:	6885                	lui	a7,0x1
    1050:	18050313          	addi	t1,a0,384
    1054:	48050e13          	addi	t3,a0,1152
    1058:	d0188893          	addi	a7,a7,-767 # d01 <handle_unknown+0x9>
    unsigned int i;
    for (i = 0; i < KYBER_K; i++) {
        //unsigned int cycles_poly_tobytes;
        //CSR_CLEAR_BITS(CSR_REG_MCOUNTINHIBIT, 0x1);
        //CSR_WRITE(CSR_REG_MCYCLE, 0);
        PQCLEAN_KYBER512_CLEAN_poly_tobytes(r + i * KYBER_POLYBYTES, &a->vec[i]);
    105c:	e8030693          	addi	a3,t1,-384
void PQCLEAN_KYBER512_CLEAN_polyvec_tobytes(uint8_t r[KYBER_POLYVECBYTES], const polyvec *a) {
    1060:	862e                	mv	a2,a1
        t0  = a->coeffs[2 * i];
    1062:	00061703          	lh	a4,0(a2)
        t1 = a->coeffs[2 * i + 1];
    1066:	00261783          	lh	a5,2(a2)
    for (i = 0; i < KYBER_N / 2; i++) {
    106a:	068d                	addi	a3,a3,3
        t0 += ((int16_t)t0 >> 15) & KYBER_Q;
    106c:	40f75813          	srai	a6,a4,0xf
        t1 += ((int16_t)t1 >> 15) & KYBER_Q;
    1070:	40f7d513          	srai	a0,a5,0xf
        t0 += ((int16_t)t0 >> 15) & KYBER_Q;
    1074:	01187833          	and	a6,a6,a7
        t1 += ((int16_t)t1 >> 15) & KYBER_Q;
    1078:	01157533          	and	a0,a0,a7
        t0 += ((int16_t)t0 >> 15) & KYBER_Q;
    107c:	9742                	add	a4,a4,a6
        t1 += ((int16_t)t1 >> 15) & KYBER_Q;
    107e:	97aa                	add	a5,a5,a0
        t0 += ((int16_t)t0 >> 15) & KYBER_Q;
    1080:	0742                	slli	a4,a4,0x10
        t1 += ((int16_t)t1 >> 15) & KYBER_Q;
    1082:	07c2                	slli	a5,a5,0x10
        t0 += ((int16_t)t0 >> 15) & KYBER_Q;
    1084:	8341                	srli	a4,a4,0x10
        t1 += ((int16_t)t1 >> 15) & KYBER_Q;
    1086:	83c1                	srli	a5,a5,0x10
        r[3 * i + 1] = (uint8_t)((t0 >> 8) | (t1 << 4));
    1088:	00479813          	slli	a6,a5,0x4
    108c:	00875513          	srli	a0,a4,0x8
    1090:	01056533          	or	a0,a0,a6
        r[3 * i + 2] = (uint8_t)(t1 >> 4);
    1094:	8391                	srli	a5,a5,0x4
        r[3 * i + 0] = (uint8_t)(t0 >> 0);
    1096:	fee68ea3          	sb	a4,-3(a3)
        r[3 * i + 1] = (uint8_t)((t0 >> 8) | (t1 << 4));
    109a:	fea68f23          	sb	a0,-2(a3)
        r[3 * i + 2] = (uint8_t)(t1 >> 4);
    109e:	fef68fa3          	sb	a5,-1(a3)
    for (i = 0; i < KYBER_N / 2; i++) {
    10a2:	0611                	addi	a2,a2,4
    10a4:	fad31fe3          	bne	t1,a3,1062 <PQCLEAN_KYBER512_CLEAN_polyvec_tobytes+0x14>
    for (i = 0; i < KYBER_K; i++) {
    10a8:	18030313          	addi	t1,t1,384
    10ac:	20058593          	addi	a1,a1,512
    10b0:	fa6e16e3          	bne	t3,t1,105c <PQCLEAN_KYBER512_CLEAN_polyvec_tobytes+0xe>
        //CSR_READ(CSR_REG_MCYCLE, &cycles_poly_tobytes);
        //printf("Number of clock cycles poly_tobytes: %d\n", cycles_poly_tobytes);
    }
}
    10b4:	8082                	ret

000010b6 <PQCLEAN_KYBER512_CLEAN_polyvec_frombytes>:
*              - const polyvec *a: pointer to input vector of polynomials
*                                  (of length KYBER_POLYVECBYTES)
**************************************************/
void PQCLEAN_KYBER512_CLEAN_polyvec_frombytes(polyvec *r, const uint8_t a[KYBER_POLYVECBYTES]) {
    unsigned int i;
    for (i = 0; i < KYBER_K; i++) {
    10b6:	18058813          	addi	a6,a1,384
    10ba:	48058893          	addi	a7,a1,1152
        r->coeffs[2 * i]   = ((a[3 * i + 0] >> 0) | ((uint16_t)a[3 * i + 1] << 8)) & 0xFFF;
    10be:	6585                	lui	a1,0x1
    10c0:	15fd                	addi	a1,a1,-1
        //unsigned int cycles_poly_frombytes;
        //CSR_CLEAR_BITS(CSR_REG_MCOUNTINHIBIT, 0x1);
        //CSR_WRITE(CSR_REG_MCYCLE, 0);
        PQCLEAN_KYBER512_CLEAN_poly_frombytes(&r->vec[i], a + i * KYBER_POLYBYTES);
    10c2:	e8080713          	addi	a4,a6,-384
void PQCLEAN_KYBER512_CLEAN_polyvec_frombytes(polyvec *r, const uint8_t a[KYBER_POLYVECBYTES]) {
    10c6:	86aa                	mv	a3,a0
    10c8:	00174783          	lbu	a5,1(a4)
    10cc:	00074603          	lbu	a2,0(a4)
    for (i = 0; i < KYBER_N / 2; i++) {
    10d0:	070d                	addi	a4,a4,3
        r->coeffs[2 * i]   = ((a[3 * i + 0] >> 0) | ((uint16_t)a[3 * i + 1] << 8)) & 0xFFF;
    10d2:	07a2                	slli	a5,a5,0x8
    10d4:	8fd1                	or	a5,a5,a2
    10d6:	8fed                	and	a5,a5,a1
    10d8:	00f69023          	sh	a5,0(a3)
        r->coeffs[2 * i + 1] = ((a[3 * i + 1] >> 4) | ((uint16_t)a[3 * i + 2] << 4)) & 0xFFF;
    10dc:	ffe74603          	lbu	a2,-2(a4)
    10e0:	fff74783          	lbu	a5,-1(a4)
    for (i = 0; i < KYBER_N / 2; i++) {
    10e4:	0691                	addi	a3,a3,4
        r->coeffs[2 * i + 1] = ((a[3 * i + 1] >> 4) | ((uint16_t)a[3 * i + 2] << 4)) & 0xFFF;
    10e6:	8211                	srli	a2,a2,0x4
    10e8:	0792                	slli	a5,a5,0x4
    10ea:	8fd1                	or	a5,a5,a2
    10ec:	fef69f23          	sh	a5,-2(a3)
    for (i = 0; i < KYBER_N / 2; i++) {
    10f0:	fce81ce3          	bne	a6,a4,10c8 <PQCLEAN_KYBER512_CLEAN_polyvec_frombytes+0x12>
    for (i = 0; i < KYBER_K; i++) {
    10f4:	18080813          	addi	a6,a6,384
    10f8:	20050513          	addi	a0,a0,512
    10fc:	fd0893e3          	bne	a7,a6,10c2 <PQCLEAN_KYBER512_CLEAN_polyvec_frombytes+0xc>
        //CSR_READ(CSR_REG_MCYCLE, &cycles_poly_frombytes);
        //printf("Number of clock cycles poly_frombytes: %d\n", cycles_poly_frombytes);

    }
}
    1100:	8082                	ret

00001102 <PQCLEAN_KYBER512_CLEAN_poly_basemul_montgomery>:
    for (i = 0; i < KYBER_N / 4; i++) {
    1102:	000808b7          	lui	a7,0x80
    1106:	2c088893          	addi	a7,a7,704 # 802c0 <PQCLEAN_KYBER512_CLEAN_zetas>
    110a:	08288813          	addi	a6,a7,130
void PQCLEAN_KYBER512_CLEAN_poly_basemul_montgomery(poly *r, const poly *a, const poly *b) {
    110e:	bb100713          	li	a4,-1103
    1112:	10088893          	addi	a7,a7,256
    1116:	a021                	j	111e <PQCLEAN_KYBER512_CLEAN_poly_basemul_montgomery+0x1c>
        PQCLEAN_KYBER512_CLEAN_basemul(&r->coeffs[4 * i], &a->coeffs[4 * i], &b->coeffs[4 * i], PQCLEAN_KYBER512_CLEAN_zetas[64 + i]);
    1118:	00081703          	lh	a4,0(a6)
    111c:	0809                	addi	a6,a6,2
    //r[0]  = fqmul(r[0], zeta);
    //r[0] += fqmul(a[0], b[0]);
    //r[1]  = fqmul(a[0], b[1]);
    //r[1] += fqmul(a[1], b[0]);

    asm volatile (".insn r 0x0b, 0x003, 2, %[dst], %[src], x0\r\n" : [dst] "=r" (r0) : [src] "r" ((int32_t)a[1] * b[1]) : );
    111e:	00259783          	lh	a5,2(a1) # 1002 <cbd2+0x56>
    1122:	00261683          	lh	a3,2(a2)
    1126:	02d787b3          	mul	a5,a5,a3
    112a:	0407b78b          	0x407b78b
    112e:	07c2                	slli	a5,a5,0x10
    1130:	87c1                	srai	a5,a5,0x10
    asm volatile (".insn r 0x0b, 0x003, 2, %[dst], %[src], x0\r\n" : [dst] "=r" (r1) : [src] "r" ((int32_t)r0*zeta) : );
    1132:	02e787b3          	mul	a5,a5,a4
    1136:	0407b78b          	0x407b78b
    
    asm volatile (".insn r 0x0b, 0x003, 2, %[dst], %[src], x0\r\n" : [dst] "=r" (r2) : [src] "r" ((int32_t)a[0] * b[0]) : );
    113a:	00059683          	lh	a3,0(a1)
    113e:	00061303          	lh	t1,0(a2)
    1142:	026686b3          	mul	a3,a3,t1
    1146:	0406b68b          	0x406b68b
    r[0] = r1 + r2;
    114a:	97b6                	add	a5,a5,a3
    114c:	00f51023          	sh	a5,0(a0)

    asm volatile (".insn r 0x0b, 0x003, 2, %[dst], %[src], x0\r\n" : [dst] "=r" (r3) : [src] "r" ((int32_t)a[0] * b[1]) : );
    1150:	00059783          	lh	a5,0(a1)
    1154:	00261683          	lh	a3,2(a2)
    1158:	02d787b3          	mul	a5,a5,a3
    115c:	0407b78b          	0x407b78b
    asm volatile (".insn r 0x0b, 0x003, 2, %[dst], %[src], x0\r\n" : [dst] "=r" (r4) : [src] "r" ((int32_t)a[1] * b[0]) : );
    1160:	00259683          	lh	a3,2(a1)
    1164:	00061303          	lh	t1,0(a2)
    1168:	026686b3          	mul	a3,a3,t1
    116c:	0406b68b          	0x406b68b
    r[1] = r3 + r4;
    1170:	97b6                	add	a5,a5,a3
    1172:	00f51123          	sh	a5,2(a0)
    asm volatile (".insn r 0x0b, 0x003, 2, %[dst], %[src], x0\r\n" : [dst] "=r" (r0) : [src] "r" ((int32_t)a[1] * b[1]) : );
    1176:	00659683          	lh	a3,6(a1)
    117a:	00661783          	lh	a5,6(a2)
    117e:	02f686b3          	mul	a3,a3,a5
    1182:	0406b68b          	0x406b68b
        PQCLEAN_KYBER512_CLEAN_basemul(&r->coeffs[4 * i + 2], &a->coeffs[4 * i + 2], &b->coeffs[4 * i + 2], -PQCLEAN_KYBER512_CLEAN_zetas[64 + i]);
    1186:	40e007b3          	neg	a5,a4
    asm volatile (".insn r 0x0b, 0x003, 2, %[dst], %[src], x0\r\n" : [dst] "=r" (r1) : [src] "r" ((int32_t)r0*zeta) : );
    118a:	07c2                	slli	a5,a5,0x10
    asm volatile (".insn r 0x0b, 0x003, 2, %[dst], %[src], x0\r\n" : [dst] "=r" (r0) : [src] "r" ((int32_t)a[1] * b[1]) : );
    118c:	01069713          	slli	a4,a3,0x10
    1190:	8741                	srai	a4,a4,0x10
    asm volatile (".insn r 0x0b, 0x003, 2, %[dst], %[src], x0\r\n" : [dst] "=r" (r1) : [src] "r" ((int32_t)r0*zeta) : );
    1192:	87c1                	srai	a5,a5,0x10
    1194:	02e787b3          	mul	a5,a5,a4
    1198:	0407b78b          	0x407b78b
    asm volatile (".insn r 0x0b, 0x003, 2, %[dst], %[src], x0\r\n" : [dst] "=r" (r2) : [src] "r" ((int32_t)a[0] * b[0]) : );
    119c:	00459703          	lh	a4,4(a1)
    11a0:	00461683          	lh	a3,4(a2)
    11a4:	02d70733          	mul	a4,a4,a3
    11a8:	0407370b          	0x407370b
    r[0] = r1 + r2;
    11ac:	97ba                	add	a5,a5,a4
    11ae:	00f51223          	sh	a5,4(a0)
    asm volatile (".insn r 0x0b, 0x003, 2, %[dst], %[src], x0\r\n" : [dst] "=r" (r3) : [src] "r" ((int32_t)a[0] * b[1]) : );
    11b2:	00459783          	lh	a5,4(a1)
    11b6:	00661703          	lh	a4,6(a2)
    11ba:	02e787b3          	mul	a5,a5,a4
    11be:	0407b78b          	0x407b78b
    asm volatile (".insn r 0x0b, 0x003, 2, %[dst], %[src], x0\r\n" : [dst] "=r" (r4) : [src] "r" ((int32_t)a[1] * b[0]) : );
    11c2:	00659703          	lh	a4,6(a1)
    11c6:	00461683          	lh	a3,4(a2)
    11ca:	02d70733          	mul	a4,a4,a3
    11ce:	0407370b          	0x407370b
    r[1] = r3 + r4;
    11d2:	97ba                	add	a5,a5,a4
    11d4:	00f51323          	sh	a5,6(a0)
    for (i = 0; i < KYBER_N / 4; i++) {
    11d8:	05a1                	addi	a1,a1,8
    11da:	0621                	addi	a2,a2,8
    11dc:	0521                	addi	a0,a0,8
    11de:	f3181de3          	bne	a6,a7,1118 <PQCLEAN_KYBER512_CLEAN_poly_basemul_montgomery+0x16>
}
    11e2:	8082                	ret

000011e4 <PQCLEAN_KYBER512_CLEAN_polyvec_basemul_acc_montgomery>:
*
* Arguments: - poly *r: pointer to output polynomial
*            - const polyvec *a: pointer to first input vector of polynomials
*            - const polyvec *b: pointer to second input vector of polynomials
**************************************************/
void PQCLEAN_KYBER512_CLEAN_polyvec_basemul_acc_montgomery(poly *r, const polyvec *a, const polyvec *b) {
    11e4:	df010113          	addi	sp,sp,-528
    11e8:	20112623          	sw	ra,524(sp)
    11ec:	20912423          	sw	s1,520(sp)
    11f0:	21212223          	sw	s2,516(sp)
    11f4:	84aa                	mv	s1,a0
    11f6:	21312023          	sw	s3,512(sp)
    11fa:	892e                	mv	s2,a1
    11fc:	89b2                	mv	s3,a2
    unsigned int i;
    poly t;

    PQCLEAN_KYBER512_CLEAN_poly_basemul_montgomery(r, &a->vec[0], &b->vec[0]);
    11fe:	3711                	jal	1102 <PQCLEAN_KYBER512_CLEAN_poly_basemul_montgomery>
    for (i = 1; i < KYBER_K; i++) {
        PQCLEAN_KYBER512_CLEAN_poly_basemul_montgomery(&t, &a->vec[i], &b->vec[i]);
    1200:	20098613          	addi	a2,s3,512
    1204:	850a                	mv	a0,sp
    1206:	20090593          	addi	a1,s2,512
    120a:	3de5                	jal	1102 <PQCLEAN_KYBER512_CLEAN_poly_basemul_montgomery>
    for (i = 0; i < KYBER_N; i++) {
    120c:	8626                	mv	a2,s1
    120e:	878a                	mv	a5,sp
    1210:	0408                	addi	a0,sp,512
    1212:	8726                	mv	a4,s1
        r->coeffs[i] = a->coeffs[i] + b->coeffs[i];
    1214:	00075683          	lhu	a3,0(a4)
    1218:	0007d583          	lhu	a1,0(a5)
    for (i = 0; i < KYBER_N; i++) {
    121c:	0709                	addi	a4,a4,2
    121e:	0789                	addi	a5,a5,2
        r->coeffs[i] = a->coeffs[i] + b->coeffs[i];
    1220:	96ae                	add	a3,a3,a1
    1222:	fed71f23          	sh	a3,-2(a4)
    for (i = 0; i < KYBER_N; i++) {
    1226:	fea797e3          	bne	a5,a0,1214 <PQCLEAN_KYBER512_CLEAN_polyvec_basemul_acc_montgomery+0x30>
    for (i = 0; i < KYBER_N; i++) {
    122a:	4781                	li	a5,0
    122c:	10000593          	li	a1,256
        asm volatile (".insn r 0x0b, 0x004, 0, %[dst], %[src], x0\r\n" : [dst] "=r" (r->coeffs[i]) : [src] "r" (r->coeffs[i]) : );
    1230:	00065683          	lhu	a3,0(a2)
    1234:	0006c68b          	0x6c68b
    1238:	00179713          	slli	a4,a5,0x1
    123c:	9726                	add	a4,a4,s1
    123e:	00d71023          	sh	a3,0(a4)
    for (i = 0; i < KYBER_N; i++) {
    1242:	0785                	addi	a5,a5,1
    1244:	0609                	addi	a2,a2,2
    1246:	feb795e3          	bne	a5,a1,1230 <PQCLEAN_KYBER512_CLEAN_polyvec_basemul_acc_montgomery+0x4c>
        PQCLEAN_KYBER512_CLEAN_poly_add(r, r, &t);
    }

    PQCLEAN_KYBER512_CLEAN_poly_reduce(r);
}
    124a:	20c12083          	lw	ra,524(sp)
    124e:	20812483          	lw	s1,520(sp)
    1252:	20412903          	lw	s2,516(sp)
    1256:	20012983          	lw	s3,512(sp)
    125a:	21010113          	addi	sp,sp,528
    125e:	8082                	ret

00001260 <rej_uniform>:
        if (val0 < KYBER_Q) {
    1260:	6e05                	lui	t3,0x1
    while (ctr < len && pos + 3 <= buflen) {
    1262:	4e8d                	li	t4,3
                                unsigned int buflen) {
    1264:	8f2a                	mv	t5,a0
    ctr = pos = 0;
    1266:	4801                	li	a6,0
        if (val0 < KYBER_Q) {
    1268:	d00e0e13          	addi	t3,t3,-768 # d00 <handle_unknown+0x8>
    while (ctr < len && pos + 3 <= buflen) {
    126c:	40ce8eb3          	sub	t4,t4,a2
        asm volatile (".insn r 0x0b, 0x1, 40, %[dst], %[src], %[src2]\r\n" : [dst] "=r" (val0)  : [src] "r" (buf[pos + 0]), [src2] "r" (buf[pos + 1]) :  );
    1270:	00164783          	lbu	a5,1(a2)
    1274:	00064703          	lbu	a4,0(a2)
    1278:	50f7170b          	0x50f7170b
    127c:	01071893          	slli	a7,a4,0x10
        asm volatile (".insn r 0x0b, 0x1, 41, %[dst], %[src], %[src2]\r\n" : [dst] "=r" (val1)  : [src] "r" (buf[pos + 1]), [src2] "r" (buf[pos + 2]) :  );
    1280:	00264303          	lbu	t1,2(a2)
        asm volatile (".insn r 0x0b, 0x1, 40, %[dst], %[src], %[src2]\r\n" : [dst] "=r" (val0)  : [src] "r" (buf[pos + 0]), [src2] "r" (buf[pos + 1]) :  );
    1284:	0108d893          	srli	a7,a7,0x10
        asm volatile (".insn r 0x0b, 0x1, 41, %[dst], %[src], %[src2]\r\n" : [dst] "=r" (val1)  : [src] "r" (buf[pos + 1]), [src2] "r" (buf[pos + 2]) :  );
    1288:	5267978b          	0x5267978b
    128c:	01079313          	slli	t1,a5,0x10
    1290:	01035313          	srli	t1,t1,0x10
        if (val0 < KYBER_Q) {
    1294:	011e6c63          	bltu	t3,a7,12ac <rej_uniform+0x4c>
            r[ctr++] = val0;
    1298:	00181893          	slli	a7,a6,0x1
    129c:	98fa                	add	a7,a7,t5
    129e:	00180513          	addi	a0,a6,1
    12a2:	00e89023          	sh	a4,0(a7)
        if (ctr < len && val1 < KYBER_Q) {
    12a6:	02b56463          	bltu	a0,a1,12ce <rej_uniform+0x6e>
}
    12aa:	8082                	ret
        if (ctr < len && val1 < KYBER_Q) {
    12ac:	006e6863          	bltu	t3,t1,12bc <rej_uniform+0x5c>
            r[ctr++] = val1;
    12b0:	00181713          	slli	a4,a6,0x1
    12b4:	977a                	add	a4,a4,t5
    12b6:	00f71023          	sh	a5,0(a4)
    12ba:	0805                	addi	a6,a6,1
    while (ctr < len && pos + 3 <= buflen) {
    12bc:	00b87763          	bgeu	a6,a1,12ca <rej_uniform+0x6a>
    12c0:	060d                	addi	a2,a2,3
    12c2:	00ce87b3          	add	a5,t4,a2
    12c6:	faf6f5e3          	bgeu	a3,a5,1270 <rej_uniform+0x10>
    12ca:	8542                	mv	a0,a6
    return ctr;
    12cc:	8082                	ret
        if (ctr < len && val1 < KYBER_Q) {
    12ce:	882a                	mv	a6,a0
    12d0:	fe6e70e3          	bgeu	t3,t1,12b0 <rej_uniform+0x50>
    12d4:	b7f5                	j	12c0 <rej_uniform+0x60>

000012d6 <randombytes>:
            out[i] ^= t[i + 4];
        }
    }
}

void randombytes(uint8_t *buf, size_t xlen) {
    12d6:	7159                	addi	sp,sp,-112
    12d8:	00b50733          	add	a4,a0,a1
    12dc:	c03a                	sw	a4,0(sp)
    12de:	00080737          	lui	a4,0x80
    12e2:	3c070713          	addi	a4,a4,960 # 803c0 <seed>
    12e6:	c6e6                	sw	s9,76(sp)
    12e8:	c63a                	sw	a4,12(sp)
    while (xlen > 0) {
        if (!outleft) {
    12ea:	00080cb7          	lui	s9,0x80
    12ee:	1c886737          	lui	a4,0x1c886
    12f2:	47070713          	addi	a4,a4,1136 # 1c886470 <_sp+0x1c7a5bc0>
    12f6:	6a4c8c93          	addi	s9,s9,1700 # 806a4 <outleft>
    12fa:	c23a                	sw	a4,4(sp)
    12fc:	000ca783          	lw	a5,0(s9)
    for (loop = 0; loop < 2; ++loop) {
    1300:	aa66d737          	lui	a4,0xaa66d
void randombytes(uint8_t *buf, size_t xlen) {
    1304:	d0d2                	sw	s4,96(sp)
    1306:	ced6                	sw	s5,92(sp)
    1308:	ccda                	sw	s6,88(sp)
    130a:	c4ea                	sw	s10,72(sp)
    130c:	00080b37          	lui	s6,0x80
            if (!++in[0]) {
    1310:	00080d37          	lui	s10,0x80
    1314:	00081ab7          	lui	s5,0x81
            sum += 0x9e3779b9;
    1318:	9e378a37          	lui	s4,0x9e378
    for (loop = 0; loop < 2; ++loop) {
    131c:	2b070713          	addi	a4,a4,688 # aa66d2b0 <_sp+0xaa58ca00>
void randombytes(uint8_t *buf, size_t xlen) {
    1320:	cade                	sw	s7,84(sp)
    1322:	c8e2                	sw	s8,80(sp)
    1324:	c2ee                	sw	s11,68(sp)
    1326:	d6a6                	sw	s1,108(sp)
    1328:	d4ca                	sw	s2,104(sp)
    132a:	d2ce                	sw	s3,100(sp)
    132c:	8c2a                	mv	s8,a0
    while (xlen > 0) {
    132e:	7f8b0b13          	addi	s6,s6,2040 # 807f8 <out>
            if (!++in[0]) {
    1332:	7c8d0d13          	addi	s10,s10,1992 # 807c8 <in>
    1336:	04010b93          	addi	s7,sp,64
        out[i] = seed[24 + i];
    133a:	4d8d                	li	s11,3
    133c:	818a8a93          	addi	s5,s5,-2024 # 80818 <_global_atexit0>
            sum += 0x9e3779b9;
    1340:	9b9a0a13          	addi	s4,s4,-1607 # 9e3779b9 <_sp+0x9e297109>
    for (loop = 0; loop < 2; ++loop) {
    1344:	c43a                	sw	a4,8(sp)
        if (!outleft) {
    1346:	cb9d                	beqz	a5,137c <randombytes+0xa6>
                }
            }
            surf();
            outleft = 8;
        }
        *buf = (uint8_t) out[--outleft];
    1348:	17fd                	addi	a5,a5,-1
    134a:	00279713          	slli	a4,a5,0x2
    134e:	975a                	add	a4,a4,s6
    1350:	4318                	lw	a4,0(a4)
        ++buf;
    1352:	0c05                	addi	s8,s8,1
        *buf = (uint8_t) out[--outleft];
    1354:	00fca023          	sw	a5,0(s9)
    1358:	feec0fa3          	sb	a4,-1(s8)
    while (xlen > 0) {
    135c:	4702                	lw	a4,0(sp)
    135e:	feec14e3          	bne	s8,a4,1346 <randombytes+0x70>
        --xlen;
    }
}
    1362:	54b6                	lw	s1,108(sp)
    1364:	5926                	lw	s2,104(sp)
    1366:	5996                	lw	s3,100(sp)
    1368:	5a06                	lw	s4,96(sp)
    136a:	4af6                	lw	s5,92(sp)
    136c:	4b66                	lw	s6,88(sp)
    136e:	4bd6                	lw	s7,84(sp)
    1370:	4c46                	lw	s8,80(sp)
    1372:	4cb6                	lw	s9,76(sp)
    1374:	4d26                	lw	s10,72(sp)
    1376:	4d96                	lw	s11,68(sp)
    1378:	6165                	addi	sp,sp,112
    137a:	8082                	ret
            if (!++in[0]) {
    137c:	000d2783          	lw	a5,0(s10)
    1380:	0785                	addi	a5,a5,1
    1382:	00fd2023          	sw	a5,0(s10)
    1386:	e395                	bnez	a5,13aa <randombytes+0xd4>
                if (!++in[1]) {
    1388:	004d2703          	lw	a4,4(s10)
    138c:	0705                	addi	a4,a4,1
    138e:	00ed2223          	sw	a4,4(s10)
    1392:	ef01                	bnez	a4,13aa <randombytes+0xd4>
                    if (!++in[2]) {
    1394:	008d2703          	lw	a4,8(s10)
    1398:	0705                	addi	a4,a4,1
    139a:	00ed2423          	sw	a4,8(s10)
    139e:	e711                	bnez	a4,13aa <randombytes+0xd4>
                        ++in[3];
    13a0:	00cd2703          	lw	a4,12(s10)
    13a4:	0705                	addi	a4,a4,1
    13a6:	00ed2623          	sw	a4,12(s10)
    13aa:	4732                	lw	a4,12(sp)
    13ac:	004d0613          	addi	a2,s10,4
void randombytes(uint8_t *buf, size_t xlen) {
    13b0:	45a5                	li	a1,9
    13b2:	03470693          	addi	a3,a4,52
    13b6:	0818                	addi	a4,sp,16
    13b8:	a029                	j	13c2 <randombytes+0xec>
        t[i] = in[i] ^ seed[12 + i];
    13ba:	421c                	lw	a5,0(a2)
    13bc:	428c                	lw	a1,0(a3)
    13be:	0611                	addi	a2,a2,4
    13c0:	0691                	addi	a3,a3,4
    13c2:	8fad                	xor	a5,a5,a1
    13c4:	c31c                	sw	a5,0(a4)
    for (i = 0; i < 12; ++i) {
    13c6:	0711                	addi	a4,a4,4
    13c8:	feeb99e3          	bne	s7,a4,13ba <randombytes+0xe4>
        out[i] = seed[24 + i];
    13cc:	47a1                	li	a5,8
    13ce:	00fb2423          	sw	a5,8(s6)
    13d2:	4789                	li	a5,2
    13d4:	00fb2823          	sw	a5,16(s6)
    13d8:	479d                	li	a5,7
    13da:	00fb2a23          	sw	a5,20(s6)
    13de:	47a5                	li	a5,9
    13e0:	00fb2c23          	sw	a5,24(s6)
    x = t[11];
    13e4:	5e72                	lw	t3,60(sp)
        out[i] = seed[24 + i];
    13e6:	4795                	li	a5,5
    13e8:	42c2                	lw	t0,16(sp)
    13ea:	4fd2                	lw	t6,20(sp)
    13ec:	4f62                	lw	t5,24(sp)
    13ee:	4ef2                	lw	t4,28(sp)
    13f0:	5362                	lw	t1,56(sp)
    13f2:	58d2                	lw	a7,52(sp)
    13f4:	5842                	lw	a6,48(sp)
    13f6:	5512                	lw	a0,36(sp)
    13f8:	55b2                	lw	a1,44(sp)
    13fa:	5622                	lw	a2,40(sp)
    13fc:	5682                	lw	a3,32(sp)
    13fe:	00fb2e23          	sw	a5,28(s6)
    x = t[11];
    1402:	e377a7b7          	lui	a5,0xe377a
        out[i] = seed[24 + i];
    1406:	01bb2023          	sw	s11,0(s6)
    140a:	01bb2223          	sw	s11,4(s6)
    140e:	01bb2623          	sw	s11,12(s6)
    x = t[11];
    1412:	b9078993          	addi	s3,a5,-1136 # e3779b90 <_sp+0xe36992e0>
    1416:	448d                	li	s1,3
    1418:	4792                	lw	a5,4(sp)
    141a:	97ce                	add	a5,a5,s3
            sum += 0x9e3779b9;
    141c:	97d2                	add	a5,a5,s4
            MUSH(0, 5)
    141e:	01be5913          	srli	s2,t3,0x1b
    1422:	003e4713          	xori	a4,t3,3
    1426:	005e1393          	slli	t2,t3,0x5
    142a:	0123e3b3          	or	t2,t2,s2
    142e:	973e                	add	a4,a4,a5
    1430:	00774733          	xor	a4,a4,t2
    1434:	92ba                	add	t0,t0,a4
            MUSH(1, 7)
    1436:	0192d913          	srli	s2,t0,0x19
    143a:	0012c713          	xori	a4,t0,1
    143e:	00729393          	slli	t2,t0,0x7
    1442:	0123e3b3          	or	t2,t2,s2
    1446:	973e                	add	a4,a4,a5
    1448:	00774733          	xor	a4,a4,t2
    144c:	9fba                	add	t6,t6,a4
            MUSH(2, 9)
    144e:	017fd913          	srli	s2,t6,0x17
    1452:	004fc713          	xori	a4,t6,4
    1456:	009f9393          	slli	t2,t6,0x9
    145a:	0123e3b3          	or	t2,t2,s2
    145e:	973e                	add	a4,a4,a5
    1460:	00774733          	xor	a4,a4,t2
    1464:	9f3a                	add	t5,t5,a4
            MUSH(3, 13)
    1466:	013f5913          	srli	s2,t5,0x13
    146a:	001f4713          	xori	a4,t5,1
    146e:	00df1393          	slli	t2,t5,0xd
    1472:	0123e3b3          	or	t2,t2,s2
    1476:	973e                	add	a4,a4,a5
    1478:	00774733          	xor	a4,a4,t2
    147c:	9eba                	add	t4,t4,a4
            MUSH(4, 5)
    147e:	01bed913          	srli	s2,t4,0x1b
    1482:	005ec713          	xori	a4,t4,5
    1486:	005e9393          	slli	t2,t4,0x5
    148a:	0123e3b3          	or	t2,t2,s2
    148e:	973e                	add	a4,a4,a5
    1490:	00774733          	xor	a4,a4,t2
    1494:	96ba                	add	a3,a3,a4
            MUSH(5, 7)
    1496:	0196d913          	srli	s2,a3,0x19
    149a:	0096c713          	xori	a4,a3,9
    149e:	00769393          	slli	t2,a3,0x7
    14a2:	0123e3b3          	or	t2,t2,s2
    14a6:	973e                	add	a4,a4,a5
    14a8:	00774733          	xor	a4,a4,t2
    14ac:	953a                	add	a0,a0,a4
            MUSH(6, 9)
    14ae:	01755913          	srli	s2,a0,0x17
    14b2:	00254713          	xori	a4,a0,2
    14b6:	00951393          	slli	t2,a0,0x9
    14ba:	0123e3b3          	or	t2,t2,s2
    14be:	973e                	add	a4,a4,a5
    14c0:	00774733          	xor	a4,a4,t2
    14c4:	963a                	add	a2,a2,a4
            MUSH(7, 13)
    14c6:	01365913          	srli	s2,a2,0x13
    14ca:	00664713          	xori	a4,a2,6
    14ce:	00d61393          	slli	t2,a2,0xd
    14d2:	0123e3b3          	or	t2,t2,s2
    14d6:	973e                	add	a4,a4,a5
    14d8:	00774733          	xor	a4,a4,t2
    14dc:	95ba                	add	a1,a1,a4
            MUSH(8, 5)
    14de:	01b5d913          	srli	s2,a1,0x1b
    14e2:	0055c713          	xori	a4,a1,5
    14e6:	00559393          	slli	t2,a1,0x5
    14ea:	0123e3b3          	or	t2,t2,s2
    14ee:	973e                	add	a4,a4,a5
    14f0:	00774733          	xor	a4,a4,t2
    14f4:	983a                	add	a6,a6,a4
            MUSH(9, 7)
    14f6:	01985913          	srli	s2,a6,0x19
    14fa:	00384713          	xori	a4,a6,3
    14fe:	00781393          	slli	t2,a6,0x7
    1502:	0123e3b3          	or	t2,t2,s2
    1506:	973e                	add	a4,a4,a5
    1508:	00774733          	xor	a4,a4,t2
    150c:	98ba                	add	a7,a7,a4
            MUSH(10, 9)
    150e:	0178d913          	srli	s2,a7,0x17
    1512:	0058c713          	xori	a4,a7,5
    1516:	00989393          	slli	t2,a7,0x9
    151a:	0123e3b3          	or	t2,t2,s2
    151e:	973e                	add	a4,a4,a5
    1520:	00774733          	xor	a4,a4,t2
    1524:	933a                	add	t1,t1,a4
            MUSH(11, 13)
    1526:	00834713          	xori	a4,t1,8
    152a:	00d31393          	slli	t2,t1,0xd
    152e:	01335913          	srli	s2,t1,0x13
    1532:	973e                	add	a4,a4,a5
    1534:	0123e3b3          	or	t2,t2,s2
    1538:	00774733          	xor	a4,a4,t2
    153c:	9e3a                	add	t3,t3,a4
        for (r = 0; r < 16; ++r) {
    153e:	ed379fe3          	bne	a5,s3,141c <randombytes+0x146>
    1542:	d036                	sw	a3,32(sp)
    1544:	d22a                	sw	a0,36(sp)
    1546:	d432                	sw	a2,40(sp)
    1548:	d62e                	sw	a1,44(sp)
    154a:	d842                	sw	a6,48(sp)
    154c:	da46                	sw	a7,52(sp)
    154e:	dc1a                	sw	t1,56(sp)
    1550:	de72                	sw	t3,60(sp)
    1552:	87da                	mv	a5,s6
    1554:	01010393          	addi	t2,sp,16
            MUSH(4, 5)
    1558:	8736                	mv	a4,a3
    155a:	a021                	j	1562 <randombytes+0x28c>
            out[i] ^= t[i + 4];
    155c:	4384                	lw	s1,0(a5)
    155e:	0103a703          	lw	a4,16(t2)
    1562:	8f25                	xor	a4,a4,s1
    1564:	c398                	sw	a4,0(a5)
        for (i = 0; i < 8; ++i) {
    1566:	0791                	addi	a5,a5,4
    1568:	0391                	addi	t2,t2,4
    156a:	fefa99e3          	bne	s5,a5,155c <randombytes+0x286>
    for (loop = 0; loop < 2; ++loop) {
    156e:	e377a7b7          	lui	a5,0xe377a
    1572:	b9078793          	addi	a5,a5,-1136 # e3779b90 <_sp+0xe36992e0>
    1576:	99be                	add	s3,s3,a5
    1578:	47a2                	lw	a5,8(sp)
    157a:	00f98563          	beq	s3,a5,1584 <randombytes+0x2ae>
            out[i] ^= t[i + 4];
    157e:	000b2483          	lw	s1,0(s6)
    1582:	bd59                	j	1418 <randombytes+0x142>
            outleft = 8;
    1584:	479d                	li	a5,7
    1586:	b3d1                	j	134a <randombytes+0x74>

00001588 <dma_load_transaction.constprop.0.isra.0>:
    dma_cb.trans = p_trans;
    1588:	000806b7          	lui	a3,0x80
    158c:	6bc68693          	addi	a3,a3,1724 # 806bc <dma_cb>
    dma_cb.peri->INTERRUPT_EN |= INTR_EN_TRANS_DONE;
    1590:	469c                	lw	a5,8(a3)
    dma_cb.peri->SRC_PTR = dma_cb.trans->src->ptr;
    1592:	00052883          	lw	a7,0(a0)
    dma_cb.peri->DST_PTR = dma_cb.trans->dst->ptr;
    1596:	00452803          	lw	a6,4(a0)
    peri_ptr[index] &= ~(DMA_PTR_INC_SRC_PTR_INC_MASK);
    159a:	4bd8                	lw	a4,20(a5)
    dma_cb.peri->INTERRUPT_EN |= INTR_EN_TRANS_DONE;
    159c:	57d0                	lw	a2,44(a5)
    dma_cb.peri->SRC_PTR = dma_cb.trans->src->ptr;
    159e:	0048ae83          	lw	t4,4(a7)
    peri_ptr[index] &= ~(DMA_PTR_INC_SRC_PTR_INC_MASK);
    15a2:	f0077713          	andi	a4,a4,-256
    dma_cb.peri->DST_PTR = dma_cb.trans->dst->ptr;
    15a6:	00482e03          	lw	t3,4(a6)
    peri_ptr[index] &= ~(DMA_PTR_INC_SRC_PTR_INC_MASK);
    15aa:	cbd8                	sw	a4,20(a5)


uint32_t get_increment_b( dma_target_t * p_tgt )
{
    uint32_t inc_b = 0;
    if(  p_tgt->trig  == DMA_TRIG_MEMORY )
    15ac:	0148a303          	lw	t1,20(a7)
    dma_cb.peri->INTERRUPT_EN |= INTR_EN_TRANS_DONE;
    15b0:	00166613          	ori	a2,a2,1
    dma_cb.trans = p_trans;
    15b4:	c288                	sw	a0,0(a3)
    dma_cb.peri->INTERRUPT_EN |= INTR_EN_TRANS_DONE;
    15b6:	d7d0                	sw	a2,44(a5)
    dma_cb.peri->SRC_PTR = dma_cb.trans->src->ptr;
    15b8:	01d7a023          	sw	t4,0(a5)
    dma_cb.peri->DST_PTR = dma_cb.trans->dst->ptr;
    15bc:	01c7a223          	sw	t3,4(a5)
    if(  p_tgt->trig  == DMA_TRIG_MEMORY )
    15c0:	00031e63          	bnez	t1,15dc <dma_load_transaction.constprop.0.isra.0+0x54>
    {
        /* If the transaction increment has been overriden (due to misalignments), then that value is used (it's always set to 1). */
        inc_b = dma_cb.trans->inc_b;
        
        uint8_t dataSize_b = DMA_DATA_TYPE_2_SIZE( dma_cb.trans->type );
    15c4:	01452303          	lw	t1,20(a0)
        inc_b = ( p_tgt->inc_du * dataSize_b );
    15c8:	0088d603          	lhu	a2,8(a7)
        uint8_t dataSize_b = DMA_DATA_TYPE_2_SIZE( dma_cb.trans->type );
    15cc:	4691                	li	a3,4
    15ce:	4066d6b3          	sra	a3,a3,t1
        inc_b = ( p_tgt->inc_du * dataSize_b );
    15d2:	02c686b3          	mul	a3,a3,a2
    peri_ptr[index] |= (get_increment_b( dma_cb.trans->src ) & DMA_PTR_INC_SRC_PTR_INC_MASK);
    15d6:	0ff6f693          	zext.b	a3,a3
    15da:	8f55                	or	a4,a4,a3
    peri_ptr[index] &= ~(DMA_PTR_INC_DST_PTR_INC_MASK << 8);
    15dc:	76c1                	lui	a3,0xffff0
    15de:	0ff68693          	addi	a3,a3,255 # ffff00ff <_sp+0xfff0f84f>
    15e2:	8f75                	and	a4,a4,a3
    15e4:	cbd8                	sw	a4,20(a5)
    if(  p_tgt->trig  == DMA_TRIG_MEMORY )
    15e6:	01482683          	lw	a3,20(a6)
    15ea:	ee91                	bnez	a3,1606 <dma_load_transaction.constprop.0.isra.0+0x7e>
        uint8_t dataSize_b = DMA_DATA_TYPE_2_SIZE( dma_cb.trans->type );
    15ec:	4948                	lw	a0,20(a0)
        inc_b = ( p_tgt->inc_du * dataSize_b );
    15ee:	00885603          	lhu	a2,8(a6)
        uint8_t dataSize_b = DMA_DATA_TYPE_2_SIZE( dma_cb.trans->type );
    15f2:	4691                	li	a3,4
    15f4:	40a6d6b3          	sra	a3,a3,a0
        inc_b = ( p_tgt->inc_du * dataSize_b );
    15f8:	02c686b3          	mul	a3,a3,a2
    peri_ptr[index] |= (get_increment_b( dma_cb.trans->dst ) & DMA_PTR_INC_DST_PTR_INC_MASK) << 8;
    15fc:	6641                	lui	a2,0x10
    15fe:	167d                	addi	a2,a2,-1
    1600:	06a2                	slli	a3,a3,0x8
    1602:	8ef1                	and	a3,a3,a2
    1604:	8f55                	or	a4,a4,a3
    1606:	cbd8                	sw	a4,20(a5)
    dma_cb.peri->SIZE = size;
    1608:	c7cc                	sw	a1,12(a5)
}
    160a:	8082                	ret

0000160c <ntt_driver>:
#include "stdasm.h"



void ntt_driver(uint32_t* Din, uint32_t* Dout)
{
    160c:	7155                	addi	sp,sp,-208
    160e:	c3ca                	sw	s2,196(sp)
    uint32_t volatile *ctrl_reg = (uint32_t*)ATHOS_IP_CTRL_START_ADDR;
    uint32_t volatile *Dout_reg_start = (uint32_t*)ATHOS_IP_DOUT_START_ADDR;
    dma_config_flags_t res;

    //Needed to be reset for the new-interrupt
    plic_intr_flag = 0;
    1610:	00080937          	lui	s2,0x80
    //Define the src of DMA transaction
    uint32_t* ext_addr_4B_PTR = (uint32_t*)ATHOS_IP_DIN_START_ADDR;
  
    //dma_init(NULL);
    *ctrl_reg = (1 << ATHOS_IP_CTRL_CTRL_C1_BIT) | (2 << ATHOS_IP_CTRL_CTRL_OPERATION_OFFSET);
    1614:	6785                	lui	a5,0x1
    plic_intr_flag = 0;
    1616:	6a890913          	addi	s2,s2,1704 # 806a8 <plic_intr_flag>
{
    161a:	c5a6                	sw	s1,200(sp)
    161c:	c1ce                	sw	s3,192(sp)
    161e:	df52                	sw	s4,188(sp)
    *ctrl_reg = (1 << ATHOS_IP_CTRL_CTRL_C1_BIT) | (2 << ATHOS_IP_CTRL_CTRL_OPERATION_OFFSET);
    1620:	80278693          	addi	a3,a5,-2046 # 802 <main+0x5ec>
{
    1624:	c786                	sw	ra,204(sp)
    plic_intr_flag = 0;
    1626:	00090023          	sb	zero,0(s2)
    *ctrl_reg = (1 << ATHOS_IP_CTRL_CTRL_C1_BIT) | (2 << ATHOS_IP_CTRL_CTRL_OPERATION_OFFSET);
    162a:	20080737          	lui	a4,0x20080
    162e:	c314                	sw	a3,0(a4)
    *ctrl_reg = (0 << ATHOS_IP_CTRL_CTRL_C1_BIT) | (2 << ATHOS_IP_CTRL_CTRL_OPERATION_OFFSET);
    1630:	80078793          	addi	a5,a5,-2048
    1634:	c31c                	sw	a5,0(a4)
{
    1636:	872a                	mv	a4,a0

    //Define transaction parameter
    dma_target_t tgt_src = {
    1638:	c6ba                	sw	a4,76(sp)
                                .ptr        = Din,
                                .inc_du     = 1,
                                .trig       = DMA_TRIG_MEMORY,
                                .type       = DMA_DATA_TYPE_WORD,
                                };
    dma_target_t tgt_dst = {
    163a:	f0000737          	lui	a4,0xf0000
    163e:	da3a                	sw	a4,52(sp)
    return (dma_cb.peri->STATUS & (1U << DMA_STATUS_READY_BIT));
    1640:	000804b7          	lui	s1,0x80
                                .ptr        = ext_addr_4B_PTR,
                                };
    dma_trans_t trans = {
    1644:	00b8                	addi	a4,sp,72
    dma_target_t tgt_src = {
    1646:	4785                	li	a5,1
    1648:	c882                	sw	zero,80(sp)
    dma_trans_t trans = {
    164a:	c53a                	sw	a4,136(sp)
{
    164c:	8a2e                	mv	s4,a1
    dma_trans_t trans = {
    164e:	1818                	addi	a4,sp,48
                                .dst        = &tgt_dst,
                                .mode       = DMA_TRANS_MODE_SINGLE,
                                .win_du     = 0,
                                .end        = DMA_TRANS_END_INTR,
                                };
    res = dma_load_transaction(&trans, 1024); //4,0
    1650:	40000593          	li	a1,1024
    1654:	0128                	addi	a0,sp,136
    1656:	6bc48493          	addi	s1,s1,1724 # 806bc <dma_cb>
    dma_target_t tgt_src = {
    165a:	04f11823          	sh	a5,80(sp)
    dma_trans_t trans = {
    165e:	c73a                	sw	a4,140(sp)
    1660:	d53e                	sw	a5,168(sp)
    dma_target_t tgt_src = {
    1662:	c482                	sw	zero,72(sp)
    1664:	ca82                	sw	zero,84(sp)
    1666:	cc82                	sw	zero,88(sp)
    1668:	ce82                	sw	zero,92(sp)
    dma_target_t tgt_dst = {
    166a:	d802                	sw	zero,48(sp)
    166c:	dc02                	sw	zero,56(sp)
    166e:	de02                	sw	zero,60(sp)
    1670:	c082                	sw	zero,64(sp)
    1672:	c282                	sw	zero,68(sp)
    dma_trans_t trans = {
    1674:	c902                	sw	zero,144(sp)
    1676:	cb02                	sw	zero,148(sp)
    1678:	cd02                	sw	zero,152(sp)
    167a:	cf02                	sw	zero,156(sp)
    167c:	d102                	sw	zero,160(sp)
    167e:	d302                	sw	zero,164(sp)
    1680:	d702                	sw	zero,172(sp)
    res = dma_load_transaction(&trans, 1024); //4,0
    1682:	3719                	jal	1588 <dma_load_transaction.constprop.0.isra.0>
    1684:	0084a983          	lw	s3,8(s1)
 
    //Wait for the DMA transaction to finish
    do{
        CSR_SET_BITS(CSR_REG_MSTATUS, 0x0);
    1688:	4701                	li	a4,0
        if ( dma_is_ready() == 0 ) {
            wait_for_interrupt();
        }
        CSR_SET_BITS(CSR_REG_MSTATUS, 0x8);
    168a:	46a1                	li	a3,8
    168c:	0109a783          	lw	a5,16(s3)
    1690:	8b85                	andi	a5,a5,1
        CSR_SET_BITS(CSR_REG_MSTATUS, 0x0);
    1692:	30072073          	csrs	mstatus,a4
        if ( dma_is_ready() == 0 ) {
    1696:	c7c5                	beqz	a5,173e <ntt_driver+0x132>
        CSR_SET_BITS(CSR_REG_MSTATUS, 0x8);
    1698:	47a1                	li	a5,8
    169a:	3007a073          	csrs	mstatus,a5
    }
    while( !dma_is_ready());

    //Start IP execution
    *ctrl_reg = (1 << ATHOS_IP_CTRL_CTRL_C0_BIT) | (2 << ATHOS_IP_CTRL_CTRL_OPERATION_OFFSET);
    169e:	6785                	lui	a5,0x1
    16a0:	20080737          	lui	a4,0x20080
    16a4:	80178693          	addi	a3,a5,-2047 # 801 <main+0x5eb>
    16a8:	c314                	sw	a3,0(a4)
    *ctrl_reg = (0 << ATHOS_IP_CTRL_CTRL_C0_BIT) | (2 << ATHOS_IP_CTRL_CTRL_OPERATION_OFFSET);
    16aa:	80078793          	addi	a5,a5,-2048
    16ae:	c31c                	sw	a5,0(a4)

    //Wait for IP interrupt
    while(plic_intr_flag==0) {
    16b0:	00094783          	lbu	a5,0(s2)
    16b4:	eb81                	bnez	a5,16c4 <ntt_driver+0xb8>
 * Hints to the processor that we don't have anything better to be doing, and to
 * go into low-power mode until an interrupt is serviced.
 *
 * This function may behave as if it is a no-op.
 */
inline void wait_for_interrupt(void) { asm volatile("wfi"); }
    16b6:	10500073          	wfi
    16ba:	00094783          	lbu	a5,0(s2)
    16be:	dfe5                	beqz	a5,16b6 <ntt_driver+0xaa>
    16c0:	0084a983          	lw	s3,8(s1)
        wait_for_interrupt();
    }

    //Read the output of the IP
    *ctrl_reg = (1 << ATHOS_IP_CTRL_CTRL_C5_BIT) | (2 << ATHOS_IP_CTRL_CTRL_OPERATION_OFFSET);
    16c4:	6785                	lui	a5,0x1
    16c6:	82078693          	addi	a3,a5,-2016 # 820 <main+0x60a>
    16ca:	20080737          	lui	a4,0x20080
    16ce:	c314                	sw	a3,0(a4)
    *ctrl_reg = (0 << ATHOS_IP_CTRL_CTRL_C5_BIT) | (2 << ATHOS_IP_CTRL_CTRL_OPERATION_OFFSET);
    16d0:	80078793          	addi	a5,a5,-2048
    16d4:	c31c                	sw	a5,0(a4)
  
    //Define the src of the second DMA transaction
    ext_addr_4B_PTR = (uint32_t*)ATHOS_IP_DOUT_START_ADDR;
    dma_target_t tgt_src2 = {
    16d6:	f00007b7          	lui	a5,0xf0000
    16da:	0c878793          	addi	a5,a5,200 # f00000c8 <_sp+0xeff1f818>
                                .ptr        = ext_addr_4B_PTR,
                                .trig       = DMA_TRIG_MEMORY,
                                .type       = DMA_DATA_TYPE_WORD,
                              };    
    dma_target_t tgt_dst2 = {
    16de:	4705                	li	a4,1
    16e0:	c402                	sw	zero,8(sp)
    dma_target_t tgt_src2 = {
    16e2:	ce3e                	sw	a5,28(sp)
                                .dst        = &tgt_dst2,
                                .mode       = DMA_TRANS_MODE_SINGLE,
                                .win_du     = 0,
                                .end        = DMA_TRANS_END_INTR,
                                };
    res = dma_load_transaction(&trans2, 512); //0,4
    16e4:	20000593          	li	a1,512
    dma_trans_t trans2 = {
    16e8:	083c                	addi	a5,sp,24
    res = dma_load_transaction(&trans2, 512); //0,4
    16ea:	1088                	addi	a0,sp,96
    dma_target_t tgt_dst2 = {
    16ec:	00e11423          	sh	a4,8(sp)
    dma_trans_t trans2 = {
    16f0:	d0be                	sw	a5,96(sp)
    16f2:	c13a                	sw	a4,128(sp)
    dma_target_t tgt_src2 = {
    16f4:	cc02                	sw	zero,24(sp)
    16f6:	d002                	sw	zero,32(sp)
    16f8:	d202                	sw	zero,36(sp)
    16fa:	d402                	sw	zero,40(sp)
    16fc:	d602                	sw	zero,44(sp)
    dma_target_t tgt_dst2 = {
    16fe:	c002                	sw	zero,0(sp)
    1700:	c602                	sw	zero,12(sp)
    1702:	c802                	sw	zero,16(sp)
    1704:	ca02                	sw	zero,20(sp)
    1706:	c252                	sw	s4,4(sp)
    dma_trans_t trans2 = {
    1708:	d482                	sw	zero,104(sp)
    170a:	d682                	sw	zero,108(sp)
    170c:	d882                	sw	zero,112(sp)
    170e:	da82                	sw	zero,116(sp)
    1710:	dc82                	sw	zero,120(sp)
    1712:	de82                	sw	zero,124(sp)
    1714:	c302                	sw	zero,132(sp)
    1716:	d28a                	sw	sp,100(sp)
    res = dma_load_transaction(&trans2, 512); //0,4
    1718:	3d85                	jal	1588 <dma_load_transaction.constprop.0.isra.0>
    171a:	0109a783          	lw	a5,16(s3)

    //Wait for the DMA transaction to finish
    do{
        CSR_SET_BITS(CSR_REG_MSTATUS, 0x0);
    171e:	4701                	li	a4,0
        if ( dma_is_ready() == 0 ) {
            wait_for_interrupt();
        }
        CSR_SET_BITS(CSR_REG_MSTATUS, 0x8);
    1720:	46a1                	li	a3,8
    1722:	8b85                	andi	a5,a5,1
        CSR_SET_BITS(CSR_REG_MSTATUS, 0x0);
    1724:	30072073          	csrs	mstatus,a4
        if ( dma_is_ready() == 0 ) {
    1728:	c795                	beqz	a5,1754 <ntt_driver+0x148>
        CSR_SET_BITS(CSR_REG_MSTATUS, 0x8);
    172a:	47a1                	li	a5,8
    172c:	3007a073          	csrs	mstatus,a5
    }
    while( ! dma_is_ready());

}
    1730:	40be                	lw	ra,204(sp)
    1732:	44ae                	lw	s1,200(sp)
    1734:	491e                	lw	s2,196(sp)
    1736:	498e                	lw	s3,192(sp)
    1738:	5a7a                	lw	s4,188(sp)
    173a:	6169                	addi	sp,sp,208
    173c:	8082                	ret
    173e:	10500073          	wfi
    1742:	0084a983          	lw	s3,8(s1)
    1746:	0109a783          	lw	a5,16(s3)
        CSR_SET_BITS(CSR_REG_MSTATUS, 0x8);
    174a:	3006a073          	csrs	mstatus,a3
    174e:	8b85                	andi	a5,a5,1
    while( !dma_is_ready());
    1750:	d3a9                	beqz	a5,1692 <ntt_driver+0x86>
    1752:	b7b1                	j	169e <ntt_driver+0x92>
    1754:	10500073          	wfi
    1758:	449c                	lw	a5,8(s1)
    175a:	4b9c                	lw	a5,16(a5)
        CSR_SET_BITS(CSR_REG_MSTATUS, 0x8);
    175c:	3006a073          	csrs	mstatus,a3
    1760:	8b85                	andi	a5,a5,1
    while( ! dma_is_ready());
    1762:	d3e9                	beqz	a5,1724 <ntt_driver+0x118>
}
    1764:	40be                	lw	ra,204(sp)
    1766:	44ae                	lw	s1,200(sp)
    1768:	491e                	lw	s2,196(sp)
    176a:	498e                	lw	s3,192(sp)
    176c:	5a7a                	lw	s4,188(sp)
    176e:	6169                	addi	sp,sp,208
    1770:	8082                	ret

00001772 <intt_driver>:
#include "fast_intr_ctrl.h"
#include "stdasm.h"

 
void intt_driver(uint32_t* Din, uint32_t* Dout)
{
    1772:	7131                	addi	sp,sp,-192
    1774:	db4a                	sw	s2,180(sp)
    uint32_t volatile *ctrl_reg = (uint32_t*)ATHOS_IP_CTRL_START_ADDR;
    uint32_t volatile *Dout_reg_start = (uint32_t*)ATHOS_IP_DOUT_START_ADDR;
    dma_config_flags_t res;

    //Needed to be reset for the new-interrupt
    plic_intr_flag = 0;
    1776:	00080937          	lui	s2,0x80
    //Define the src of DMA transaction
    uint32_t* ext_addr_4B_PTR = (uint32_t*)ATHOS_IP_DIN_START_ADDR;

    //dma_init(NULL);
    *ctrl_reg = (1 << ATHOS_IP_CTRL_CTRL_C2_BIT) | (3 << ATHOS_IP_CTRL_CTRL_OPERATION_OFFSET);
    177a:	6785                	lui	a5,0x1
    plic_intr_flag = 0;
    177c:	6a890913          	addi	s2,s2,1704 # 806a8 <plic_intr_flag>
{
    1780:	dd26                	sw	s1,184(sp)
    1782:	d94e                	sw	s3,176(sp)
    *ctrl_reg = (1 << ATHOS_IP_CTRL_CTRL_C2_BIT) | (3 << ATHOS_IP_CTRL_CTRL_OPERATION_OFFSET);
    1784:	c0478693          	addi	a3,a5,-1020 # c04 <main+0x9ee>
{
    1788:	df06                	sw	ra,188(sp)
    plic_intr_flag = 0;
    178a:	00090023          	sb	zero,0(s2)
    *ctrl_reg = (1 << ATHOS_IP_CTRL_CTRL_C2_BIT) | (3 << ATHOS_IP_CTRL_CTRL_OPERATION_OFFSET);
    178e:	20080737          	lui	a4,0x20080
    1792:	c314                	sw	a3,0(a4)
    *ctrl_reg = (0 << ATHOS_IP_CTRL_CTRL_C2_BIT) | (3 << ATHOS_IP_CTRL_CTRL_OPERATION_OFFSET);
    1794:	c0078793          	addi	a5,a5,-1024
    1798:	c31c                	sw	a5,0(a4)
{
    179a:	872a                	mv	a4,a0

    //Define transaction parameter
    dma_target_t tgt_src = {
    179c:	c6ba                	sw	a4,76(sp)
                                .ptr        = Din,
                                .inc_du     = 1,
                                .trig       = DMA_TRIG_MEMORY,
                                .type       = DMA_DATA_TYPE_WORD,
                                };
    dma_target_t tgt_dst = {
    179e:	f0000737          	lui	a4,0xf0000
    17a2:	da3a                	sw	a4,52(sp)
                                .ptr        = ext_addr_4B_PTR,
                                };
    dma_trans_t trans = {
    17a4:	00b8                	addi	a4,sp,72
    dma_target_t tgt_src = {
    17a6:	4785                	li	a5,1
    17a8:	c882                	sw	zero,80(sp)
    dma_trans_t trans = {
    17aa:	c53a                	sw	a4,136(sp)
{
    17ac:	89ae                	mv	s3,a1
    dma_trans_t trans = {
    17ae:	1818                	addi	a4,sp,48
                                .dst        = &tgt_dst,
                                .mode       = DMA_TRANS_MODE_SINGLE,
                                .win_du     = 0,
                                .end        = DMA_TRANS_END_INTR,
                                };
    res = dma_load_transaction(&trans, 1024); //4,0
    17b0:	40000593          	li	a1,1024
    17b4:	0128                	addi	a0,sp,136
    17b6:	000804b7          	lui	s1,0x80
    dma_target_t tgt_src = {
    17ba:	04f11823          	sh	a5,80(sp)
    dma_trans_t trans = {
    17be:	c73a                	sw	a4,140(sp)
    17c0:	d53e                	sw	a5,168(sp)
    dma_target_t tgt_src = {
    17c2:	c482                	sw	zero,72(sp)
    17c4:	ca82                	sw	zero,84(sp)
    17c6:	cc82                	sw	zero,88(sp)
    17c8:	ce82                	sw	zero,92(sp)
    dma_target_t tgt_dst = {
    17ca:	d802                	sw	zero,48(sp)
    17cc:	dc02                	sw	zero,56(sp)
    17ce:	de02                	sw	zero,60(sp)
    17d0:	c082                	sw	zero,64(sp)
    17d2:	c282                	sw	zero,68(sp)
    dma_trans_t trans = {
    17d4:	c902                	sw	zero,144(sp)
    17d6:	cb02                	sw	zero,148(sp)
    17d8:	cd02                	sw	zero,152(sp)
    17da:	cf02                	sw	zero,156(sp)
    17dc:	d102                	sw	zero,160(sp)
    17de:	d302                	sw	zero,164(sp)
    17e0:	d702                	sw	zero,172(sp)
    17e2:	6bc48493          	addi	s1,s1,1724 # 806bc <dma_cb>
    res = dma_load_transaction(&trans, 1024); //4,0
    17e6:	334d                	jal	1588 <dma_load_transaction.constprop.0.isra.0>
    17e8:	449c                	lw	a5,8(s1)
    //Wait for the DMA transaction to finish
    do {
        CSR_SET_BITS(CSR_REG_MSTATUS, 0x0);
    17ea:	4701                	li	a4,0
        if ( dma_is_ready() == 0 ) {
            wait_for_interrupt();
        }
        CSR_SET_BITS(CSR_REG_MSTATUS, 0x8);
    17ec:	46a1                	li	a3,8
    17ee:	4b9c                	lw	a5,16(a5)
    17f0:	8b85                	andi	a5,a5,1
        CSR_SET_BITS(CSR_REG_MSTATUS, 0x0);
    17f2:	30072073          	csrs	mstatus,a4
        if ( dma_is_ready() == 0 ) {
    17f6:	c3cd                	beqz	a5,1898 <intt_driver+0x126>
        CSR_SET_BITS(CSR_REG_MSTATUS, 0x8);
    17f8:	47a1                	li	a5,8
    17fa:	3007a073          	csrs	mstatus,a5
    }
    while ( ! dma_is_ready());

    //Start IP execution
    *ctrl_reg = (1 << ATHOS_IP_CTRL_CTRL_C8_BIT) | (3 << ATHOS_IP_CTRL_CTRL_OPERATION_OFFSET);
    17fe:	6785                	lui	a5,0x1
    1800:	20080737          	lui	a4,0x20080
    1804:	d0078693          	addi	a3,a5,-768 # d00 <handle_unknown+0x8>
    1808:	c314                	sw	a3,0(a4)
    *ctrl_reg = (0 << ATHOS_IP_CTRL_CTRL_C8_BIT) | (3 << ATHOS_IP_CTRL_CTRL_OPERATION_OFFSET);
    180a:	c0078793          	addi	a5,a5,-1024
    180e:	c31c                	sw	a5,0(a4)

    // Wait for IP interrupt
    while(plic_intr_flag==0) {
    1810:	00094783          	lbu	a5,0(s2)
    1814:	e791                	bnez	a5,1820 <intt_driver+0xae>
    1816:	10500073          	wfi
    181a:	00094783          	lbu	a5,0(s2)
    181e:	dfe5                	beqz	a5,1816 <intt_driver+0xa4>
        wait_for_interrupt();
    }

    //Read the output of the IP
    *ctrl_reg = (1 << ATHOS_IP_CTRL_CTRL_C5_BIT) | (3 << ATHOS_IP_CTRL_CTRL_OPERATION_OFFSET);
    1820:	6785                	lui	a5,0x1
    1822:	c2078693          	addi	a3,a5,-992 # c20 <main+0xa0a>
    1826:	20080737          	lui	a4,0x20080
    182a:	c314                	sw	a3,0(a4)
    *ctrl_reg = (0 << ATHOS_IP_CTRL_CTRL_C5_BIT) | (3 << ATHOS_IP_CTRL_CTRL_OPERATION_OFFSET);
    182c:	c0078793          	addi	a5,a5,-1024
    1830:	c31c                	sw	a5,0(a4)
    
    //Define the src of the second DMA transaction
    ext_addr_4B_PTR = (uint32_t*)ATHOS_IP_DOUT_START_ADDR;
    dma_target_t tgt_src2 = {
    1832:	f00007b7          	lui	a5,0xf0000
    1836:	0c878793          	addi	a5,a5,200 # f00000c8 <_sp+0xeff1f818>
                                .ptr        = ext_addr_4B_PTR,
                                .trig       = DMA_TRIG_MEMORY,
                                .type       = DMA_DATA_TYPE_WORD,
                              };      
    dma_target_t tgt_dst2 = {
    183a:	4705                	li	a4,1
    183c:	c402                	sw	zero,8(sp)
    dma_target_t tgt_src2 = {
    183e:	ce3e                	sw	a5,28(sp)
                                .dst        = &tgt_dst2,
                                .mode       = DMA_TRANS_MODE_SINGLE,
                                .win_du     = 0,
                                .end        = DMA_TRANS_END_INTR,
                                };
    res = dma_load_transaction(&trans2, 512); //0,4
    1840:	20000593          	li	a1,512
    dma_trans_t trans2 = {
    1844:	083c                	addi	a5,sp,24
    res = dma_load_transaction(&trans2, 512); //0,4
    1846:	1088                	addi	a0,sp,96
    dma_target_t tgt_dst2 = {
    1848:	00e11423          	sh	a4,8(sp)
    dma_trans_t trans2 = {
    184c:	d0be                	sw	a5,96(sp)
    184e:	c13a                	sw	a4,128(sp)
    dma_target_t tgt_src2 = {
    1850:	cc02                	sw	zero,24(sp)
    1852:	d002                	sw	zero,32(sp)
    1854:	d202                	sw	zero,36(sp)
    1856:	d402                	sw	zero,40(sp)
    1858:	d602                	sw	zero,44(sp)
    dma_target_t tgt_dst2 = {
    185a:	c002                	sw	zero,0(sp)
    185c:	c602                	sw	zero,12(sp)
    185e:	c802                	sw	zero,16(sp)
    1860:	ca02                	sw	zero,20(sp)
    1862:	c24e                	sw	s3,4(sp)
    dma_trans_t trans2 = {
    1864:	d482                	sw	zero,104(sp)
    1866:	d682                	sw	zero,108(sp)
    1868:	d882                	sw	zero,112(sp)
    186a:	da82                	sw	zero,116(sp)
    186c:	dc82                	sw	zero,120(sp)
    186e:	de82                	sw	zero,124(sp)
    1870:	c302                	sw	zero,132(sp)
    1872:	d28a                	sw	sp,100(sp)
    res = dma_load_transaction(&trans2, 512); //0,4
    1874:	3b11                	jal	1588 <dma_load_transaction.constprop.0.isra.0>
    1876:	449c                	lw	a5,8(s1)

    do{
        CSR_SET_BITS(CSR_REG_MSTATUS, 0x0);
    1878:	4701                	li	a4,0
        if ( dma_is_ready() == 0 ) {
            wait_for_interrupt();
        }
        CSR_SET_BITS(CSR_REG_MSTATUS, 0x8);
    187a:	46a1                	li	a3,8
    187c:	4b9c                	lw	a5,16(a5)
    187e:	8b85                	andi	a5,a5,1
        CSR_SET_BITS(CSR_REG_MSTATUS, 0x0);
    1880:	30072073          	csrs	mstatus,a4
        if ( dma_is_ready() == 0 ) {
    1884:	c39d                	beqz	a5,18aa <intt_driver+0x138>
        CSR_SET_BITS(CSR_REG_MSTATUS, 0x8);
    1886:	47a1                	li	a5,8
    1888:	3007a073          	csrs	mstatus,a5
    }
    while( ! dma_is_ready());

}
    188c:	50fa                	lw	ra,188(sp)
    188e:	54ea                	lw	s1,184(sp)
    1890:	595a                	lw	s2,180(sp)
    1892:	59ca                	lw	s3,176(sp)
    1894:	6129                	addi	sp,sp,192
    1896:	8082                	ret
    1898:	10500073          	wfi
    189c:	449c                	lw	a5,8(s1)
    189e:	4b9c                	lw	a5,16(a5)
        CSR_SET_BITS(CSR_REG_MSTATUS, 0x8);
    18a0:	3006a073          	csrs	mstatus,a3
    18a4:	8b85                	andi	a5,a5,1
    while ( ! dma_is_ready());
    18a6:	d7b1                	beqz	a5,17f2 <intt_driver+0x80>
    18a8:	bf99                	j	17fe <intt_driver+0x8c>
    18aa:	10500073          	wfi
    18ae:	449c                	lw	a5,8(s1)
    18b0:	4b9c                	lw	a5,16(a5)
        CSR_SET_BITS(CSR_REG_MSTATUS, 0x8);
    18b2:	3006a073          	csrs	mstatus,a3
    18b6:	8b85                	andi	a5,a5,1
    while( ! dma_is_ready());
    18b8:	d7e1                	beqz	a5,1880 <intt_driver+0x10e>
    18ba:	bfc9                	j	188c <intt_driver+0x11a>

000018bc <dma_load_transaction_keccak.isra.0>:
    dma_cb.trans = p_trans;
    18bc:	000806b7          	lui	a3,0x80
    18c0:	6bc68693          	addi	a3,a3,1724 # 806bc <dma_cb>
    dma_cb.peri->INTERRUPT_EN |= INTR_EN_TRANS_DONE;
    18c4:	469c                	lw	a5,8(a3)
    dma_cb.peri->SRC_PTR = dma_cb.trans->src->ptr;
    18c6:	410c                	lw	a1,0(a0)
    dma_cb.peri->DST_PTR = dma_cb.trans->dst->ptr;
    18c8:	4158                	lw	a4,4(a0)
    peri_ptr[index] |= (4 & DMA_PTR_INC_DST_PTR_INC_MASK) << 8;
    18ca:	0147a883          	lw	a7,20(a5)
    dma_cb.peri->SRC_PTR = dma_cb.trans->src->ptr;
    18ce:	0045a803          	lw	a6,4(a1)
    dma_cb.peri->INTERRUPT_EN |= INTR_EN_TRANS_DONE;
    18d2:	57d0                	lw	a2,44(a5)
    dma_cb.peri->DST_PTR = dma_cb.trans->dst->ptr;
    18d4:	434c                	lw	a1,4(a4)
    peri_ptr[index] |= (4 & DMA_PTR_INC_DST_PTR_INC_MASK) << 8;
    18d6:	7741                	lui	a4,0xffff0
    18d8:	01177733          	and	a4,a4,a7
    18dc:	40476713          	ori	a4,a4,1028
    dma_cb.peri->INTERRUPT_EN |= INTR_EN_TRANS_DONE;
    18e0:	00166613          	ori	a2,a2,1
    peri_ptr[index] |= (4 & DMA_PTR_INC_DST_PTR_INC_MASK) << 8;
    18e4:	cbd8                	sw	a4,20(a5)
    dma_cb.peri->SIZE = 200;
    18e6:	0c800713          	li	a4,200
    dma_cb.trans = p_trans;
    18ea:	c288                	sw	a0,0(a3)
    dma_cb.peri->INTERRUPT_EN |= INTR_EN_TRANS_DONE;
    18ec:	d7d0                	sw	a2,44(a5)
    dma_cb.peri->SRC_PTR = dma_cb.trans->src->ptr;
    18ee:	0107a023          	sw	a6,0(a5)
    dma_cb.peri->DST_PTR = dma_cb.trans->dst->ptr;
    18f2:	c3cc                	sw	a1,4(a5)
    dma_cb.peri->SIZE = 200;
    18f4:	c7d8                	sw	a4,12(a5)
}
    18f6:	8082                	ret

000018f8 <keccak_ip_driver>:
// To manage DMA
#include "dma.h"

 
void keccak_ip_driver(uint32_t* Din, uint32_t* Dout)
{
    18f8:	7159                	addi	sp,sp,-112
    18fa:	d2ca                	sw	s2,100(sp)
  uint32_t volatile *Din_reg_start = (uint32_t*)ATHOS_IP_DIN_START_ADDR;
  uint32_t volatile *ctrl_reg = (uint32_t*)ATHOS_IP_CTRL_START_ADDR;
  uint32_t volatile *Dout_reg_start = (uint32_t*)ATHOS_IP_DOUT_START_ADDR;


  plic_intr_flag = 0;
    18fc:	00080937          	lui	s2,0x80
    1900:	6a890913          	addi	s2,s2,1704 # 806a8 <plic_intr_flag>
{
    1904:	d4a6                	sw	s1,104(sp)
    1906:	d0ce                	sw	s3,96(sp)
    1908:	d686                	sw	ra,108(sp)
  plic_intr_flag = 0;
    190a:	00090023          	sb	zero,0(s2)


  uint32_t* ext_addr_4B_PTR = (uint32_t*)ATHOS_IP_DIN_START_ADDR;
  *ctrl_reg = (1 << ATHOS_IP_CTRL_CTRL_OPERATION_OFFSET);
    190e:	200807b7          	lui	a5,0x20080
    1912:	40000713          	li	a4,1024
    1916:	c398                	sw	a4,0(a5)
{
    1918:	872a                	mv	a4,a0
  //The DMA is initialized (i.e. Any current transaction is cleaned.)
  //dma_init(NULL);
  dma_config_flags_t res;
  //First DMA transaction consist on loading Din in ATHOS_IP register file
  dma_target_t tgt_src = {
    191a:	d23a                	sw	a4,36(sp)
                              .ptr        = Din,
                              .inc_du     = 1,
                              .trig       = DMA_TRIG_MEMORY,
                              .type       = DMA_DATA_TYPE_WORD,
                              };
  dma_target_t tgt_dst = {
    191c:	f0000737          	lui	a4,0xf0000
    1920:	c63a                	sw	a4,12(sp)
                              .ptr        = ext_addr_4B_PTR,
                              .inc_du     = 1,
                              .trig       = DMA_TRIG_MEMORY,
                              };
  dma_trans_t trans = {
    1922:	1018                	addi	a4,sp,32
  dma_target_t tgt_src = {
    1924:	4785                	li	a5,1
    1926:	d402                	sw	zero,40(sp)
  dma_target_t tgt_dst = {
    1928:	c802                	sw	zero,16(sp)
  dma_trans_t trans = {
    192a:	dc3a                	sw	a4,56(sp)
                              .dst        = &tgt_dst,
                              .mode       = DMA_TRANS_MODE_SINGLE,
                              .win_du     = 0,
                              .end        = DMA_TRANS_END_INTR,
                              };
  res = dma_load_transaction_keccak(&trans);
    192c:	1828                	addi	a0,sp,56
  dma_trans_t trans = {
    192e:	0038                	addi	a4,sp,8
    return (dma_cb.peri->STATUS & (1U << DMA_STATUS_READY_BIT));
    1930:	000804b7          	lui	s1,0x80
  dma_target_t tgt_src = {
    1934:	02f11423          	sh	a5,40(sp)
  dma_target_t tgt_dst = {
    1938:	00f11823          	sh	a5,16(sp)
  dma_trans_t trans = {
    193c:	de3a                	sw	a4,60(sp)
    193e:	ccbe                	sw	a5,88(sp)
{
    1940:	89ae                	mv	s3,a1
  dma_target_t tgt_src = {
    1942:	d002                	sw	zero,32(sp)
    1944:	d602                	sw	zero,44(sp)
    1946:	d802                	sw	zero,48(sp)
    1948:	da02                	sw	zero,52(sp)
  dma_target_t tgt_dst = {
    194a:	c402                	sw	zero,8(sp)
    194c:	ca02                	sw	zero,20(sp)
    194e:	cc02                	sw	zero,24(sp)
    1950:	ce02                	sw	zero,28(sp)
  dma_trans_t trans = {
    1952:	c082                	sw	zero,64(sp)
    1954:	c282                	sw	zero,68(sp)
    1956:	c482                	sw	zero,72(sp)
    1958:	c682                	sw	zero,76(sp)
    195a:	c882                	sw	zero,80(sp)
    195c:	ca82                	sw	zero,84(sp)
    195e:	ce82                	sw	zero,92(sp)
    1960:	6bc48493          	addi	s1,s1,1724 # 806bc <dma_cb>
  res = dma_load_transaction_keccak(&trans);
    1964:	3fa1                	jal	18bc <dma_load_transaction_keccak.isra.0>
    1966:	449c                	lw	a5,8(s1)
  
  do {
      CSR_SET_BITS(CSR_REG_MSTATUS, 0x0);
    1968:	4701                	li	a4,0
      if ( dma_is_ready() == 0 ) {
          wait_for_interrupt();
      }
      CSR_SET_BITS(CSR_REG_MSTATUS, 0x8);
    196a:	46a1                	li	a3,8
    196c:	4b9c                	lw	a5,16(a5)
    196e:	8b85                	andi	a5,a5,1
      CSR_SET_BITS(CSR_REG_MSTATUS, 0x0);
    1970:	30072073          	csrs	mstatus,a4
      if ( dma_is_ready() == 0 ) {
    1974:	c3ad                	beqz	a5,19d6 <keccak_ip_driver+0xde>
      CSR_SET_BITS(CSR_REG_MSTATUS, 0x8);
    1976:	47a1                	li	a5,8
    1978:	3007a073          	csrs	mstatus,a5
  while ( ! dma_is_ready());;

 

    asm volatile ("": : : "memory");
    *ctrl_reg = (1 << ATHOS_IP_CTRL_CTRL_C0_BIT) | (1 << ATHOS_IP_CTRL_CTRL_OPERATION_OFFSET);
    197c:	200807b7          	lui	a5,0x20080
    1980:	40100713          	li	a4,1025
    1984:	c398                	sw	a4,0(a5)
    //*ctrl_reg = to_write; 
    asm volatile ("": : : "memory");
    *ctrl_reg = (0 << ATHOS_IP_CTRL_CTRL_C0_BIT) | (1 << ATHOS_IP_CTRL_CTRL_OPERATION_OFFSET);
    1986:	40000713          	li	a4,1024
    198a:	c398                	sw	a4,0(a5)



  // Wait till ATHOS_IP is done
  while(plic_intr_flag==0) {
    198c:	00094783          	lbu	a5,0(s2)
    1990:	e791                	bnez	a5,199c <keccak_ip_driver+0xa4>
    1992:	10500073          	wfi
    1996:	00094783          	lbu	a5,0(s2)
    199a:	dfe5                	beqz	a5,1992 <keccak_ip_driver+0x9a>
      wait_for_interrupt();
  }

  ext_addr_4B_PTR = (uint32_t*)ATHOS_IP_DOUT_START_ADDR;
  tgt_src.ptr = ext_addr_4B_PTR;
    199c:	f00007b7          	lui	a5,0xf0000
    19a0:	0c878793          	addi	a5,a5,200 # f00000c8 <_sp+0xeff1f818>
  tgt_dst.ptr = Dout;


  res = dma_load_transaction_keccak(&trans);
    19a4:	1828                	addi	a0,sp,56
  tgt_src.ptr = ext_addr_4B_PTR;
    19a6:	d23e                	sw	a5,36(sp)
  tgt_dst.ptr = Dout;
    19a8:	c64e                	sw	s3,12(sp)
  res = dma_load_transaction_keccak(&trans);
    19aa:	3f09                	jal	18bc <dma_load_transaction_keccak.isra.0>
    19ac:	449c                	lw	a5,8(s1)


   do{
      CSR_SET_BITS(CSR_REG_MSTATUS, 0x0);
    19ae:	4701                	li	a4,0
      if ( dma_is_ready() == 0 ) {
          wait_for_interrupt();
      }
      CSR_SET_BITS(CSR_REG_MSTATUS, 0x8);
    19b0:	46a1                	li	a3,8
    19b2:	4b9c                	lw	a5,16(a5)
    19b4:	8b85                	andi	a5,a5,1
      CSR_SET_BITS(CSR_REG_MSTATUS, 0x0);
    19b6:	30072073          	csrs	mstatus,a4
      if ( dma_is_ready() == 0 ) {
    19ba:	c79d                	beqz	a5,19e8 <keccak_ip_driver+0xf0>
      CSR_SET_BITS(CSR_REG_MSTATUS, 0x8);
    19bc:	47a1                	li	a5,8
    19be:	3007a073          	csrs	mstatus,a5
  *ctrl_reg = 0;




}
    19c2:	50b6                	lw	ra,108(sp)
  *ctrl_reg = 0;
    19c4:	200807b7          	lui	a5,0x20080
    19c8:	0007a023          	sw	zero,0(a5) # 20080000 <_sp+0x1ff9f750>
}
    19cc:	54a6                	lw	s1,104(sp)
    19ce:	5916                	lw	s2,100(sp)
    19d0:	5986                	lw	s3,96(sp)
    19d2:	6165                	addi	sp,sp,112
    19d4:	8082                	ret
    19d6:	10500073          	wfi
    19da:	449c                	lw	a5,8(s1)
    19dc:	4b9c                	lw	a5,16(a5)
      CSR_SET_BITS(CSR_REG_MSTATUS, 0x8);
    19de:	3006a073          	csrs	mstatus,a3
    19e2:	8b85                	andi	a5,a5,1
  while ( ! dma_is_ready());;
    19e4:	d7d1                	beqz	a5,1970 <keccak_ip_driver+0x78>
    19e6:	bf59                	j	197c <keccak_ip_driver+0x84>
    19e8:	10500073          	wfi
    19ec:	449c                	lw	a5,8(s1)
    19ee:	4b9c                	lw	a5,16(a5)
      CSR_SET_BITS(CSR_REG_MSTATUS, 0x8);
    19f0:	3006a073          	csrs	mstatus,a3
    19f4:	8b85                	andi	a5,a5,1
  while( ! dma_is_ready());
    19f6:	d3e1                	beqz	a5,19b6 <keccak_ip_driver+0xbe>
}
    19f8:	50b6                	lw	ra,108(sp)
  *ctrl_reg = 0;
    19fa:	200807b7          	lui	a5,0x20080
    19fe:	0007a023          	sw	zero,0(a5) # 20080000 <_sp+0x1ff9f750>
}
    1a02:	54a6                	lw	s1,104(sp)
    1a04:	5916                	lw	s2,100(sp)
    1a06:	5986                	lw	s3,96(sp)
    1a08:	6165                	addi	sp,sp,112
    1a0a:	8082                	ret

00001a0c <keccak_squeezeblocks>:
    while (nblocks > 0) {
    1a0c:	c5d1                	beqz	a1,1a98 <keccak_squeezeblocks+0x8c>
                                 uint64_t *s, uint32_t r) {
    1a0e:	1101                	addi	sp,sp,-32
    1a10:	cc26                	sw	s1,24(sp)
    1a12:	ca4a                	sw	s2,20(sp)
    1a14:	c84e                	sw	s3,16(sp)
    1a16:	c652                	sw	s4,12(sp)
    1a18:	c456                	sw	s5,8(sp)
    1a1a:	c25a                	sw	s6,4(sp)
    1a1c:	c05e                	sw	s7,0(sp)
    1a1e:	ce06                	sw	ra,28(sp)
    1a20:	8bae                	mv	s7,a1
    1a22:	8a2a                	mv	s4,a0
    1a24:	8ab2                	mv	s5,a2
    1a26:	8936                	mv	s2,a3
    1a28:	ff86fb13          	andi	s6,a3,-8
        x[i] = (uint8_t) (u >> 8 * i);
    1a2c:	49fd                	li	s3,31
    for (size_t i = 0; i < 8; ++i) {
    1a2e:	04000493          	li	s1,64
        keccak_ip_driver(s,s);
    1a32:	85d6                	mv	a1,s5
    1a34:	8556                	mv	a0,s5
    1a36:	35c9                	jal	18f8 <keccak_ip_driver>
    1a38:	4e81                	li	t4,0
            store64(h + 8 * i, s[i]);
    1a3a:	01da87b3          	add	a5,s5,t4
    1a3e:	0047ae03          	lw	t3,4(a5)
    1a42:	0007a303          	lw	t1,0(a5)
    for (size_t i = 0; i < 8; ++i) {
    1a46:	01da0633          	add	a2,s4,t4
            store64(h + 8 * i, s[i]);
    1a4a:	4781                	li	a5,0
        x[i] = (uint8_t) (u >> 8 * i);
    1a4c:	001e1893          	slli	a7,t3,0x1
    1a50:	40f98733          	sub	a4,s3,a5
    1a54:	00f356b3          	srl	a3,t1,a5
    1a58:	00e89733          	sll	a4,a7,a4
    1a5c:	fe078813          	addi	a6,a5,-32
    1a60:	8ed9                	or	a3,a3,a4
    1a62:	00084463          	bltz	a6,1a6a <keccak_squeezeblocks+0x5e>
    1a66:	010e56b3          	srl	a3,t3,a6
    1a6a:	00d60023          	sb	a3,0(a2) # 10000 <randombytes.c.5b81a8f2+0x981>
    for (size_t i = 0; i < 8; ++i) {
    1a6e:	07a1                	addi	a5,a5,8
    1a70:	0605                	addi	a2,a2,1
    1a72:	fc979fe3          	bne	a5,s1,1a50 <keccak_squeezeblocks+0x44>
        for (size_t i = 0; i < (r >> 3); i++) {
    1a76:	0ea1                	addi	t4,t4,8
    1a78:	fd6e91e3          	bne	t4,s6,1a3a <keccak_squeezeblocks+0x2e>
        nblocks--;
    1a7c:	1bfd                	addi	s7,s7,-1
        h += r;
    1a7e:	9a4a                	add	s4,s4,s2
    while (nblocks > 0) {
    1a80:	fa0b99e3          	bnez	s7,1a32 <keccak_squeezeblocks+0x26>
}
    1a84:	40f2                	lw	ra,28(sp)
    1a86:	44e2                	lw	s1,24(sp)
    1a88:	4952                	lw	s2,20(sp)
    1a8a:	49c2                	lw	s3,16(sp)
    1a8c:	4a32                	lw	s4,12(sp)
    1a8e:	4aa2                	lw	s5,8(sp)
    1a90:	4b12                	lw	s6,4(sp)
    1a92:	4b82                	lw	s7,0(sp)
    1a94:	6105                	addi	sp,sp,32
    1a96:	8082                	ret
    1a98:	8082                	ret

00001a9a <keccak_absorb>:
                          size_t mlen, uint8_t p) {
    1a9a:	7111                	addi	sp,sp,-256
    1a9c:	d3da                	sw	s6,228(sp)
    1a9e:	d1de                	sw	s7,224(sp)
    1aa0:	cfe2                	sw	s8,220(sp)
    1aa2:	8b2e                	mv	s6,a1
    1aa4:	8c32                	mv	s8,a2
    1aa6:	8bb6                	mv	s7,a3
        s[i] = 0;
    1aa8:	0c800613          	li	a2,200
    1aac:	4581                	li	a1,0
                          size_t mlen, uint8_t p) {
    1aae:	dda6                	sw	s1,248(sp)
    1ab0:	dbca                	sw	s2,244(sp)
    1ab2:	d9ce                	sw	s3,240(sp)
    1ab4:	d7d2                	sw	s4,236(sp)
    1ab6:	d5d6                	sw	s5,232(sp)
    1ab8:	df86                	sw	ra,252(sp)
    1aba:	8aaa                	mv	s5,a0
    1abc:	893a                	mv	s2,a4
    for (i = 0; i < r / 8; ++i) {
    1abe:	003b5a13          	srli	s4,s6,0x3
        s[i] = 0;
    1ac2:	4ca010ef          	jal	ra,2f8c <memset>
    while (mlen >= r) {
    1ac6:	49fd                	li	s3,31
    1ac8:	04000493          	li	s1,64
    1acc:	096be063          	bltu	s7,s6,1b4c <keccak_absorb+0xb2>
        for (i = 0; i < r / 8; ++i) {
    1ad0:	8356                	mv	t1,s5
    1ad2:	8ee2                	mv	t4,s8
    1ad4:	4e01                	li	t3,0
    1ad6:	86f6                	mv	a3,t4
    1ad8:	4781                	li	a5,0
    uint64_t r = 0;
    1ada:	4501                	li	a0,0
    1adc:	4581                	li	a1,0
    1ade:	a819                	j	1af4 <keccak_absorb+0x5a>
        r |= (uint64_t)x[i] << 8 * i;
    1ae0:	4801                	li	a6,0
    1ae2:	00c71733          	sll	a4,a4,a2
    for (size_t i = 0; i < 8; ++i) {
    1ae6:	07a1                	addi	a5,a5,8
        r |= (uint64_t)x[i] << 8 * i;
    1ae8:	01056533          	or	a0,a0,a6
    1aec:	8dd9                	or	a1,a1,a4
    for (size_t i = 0; i < 8; ++i) {
    1aee:	0685                	addi	a3,a3,1
    1af0:	02978763          	beq	a5,s1,1b1e <keccak_absorb+0x84>
        r |= (uint64_t)x[i] << 8 * i;
    1af4:	fe078613          	addi	a2,a5,-32
    1af8:	0006c703          	lbu	a4,0(a3)
    1afc:	40f988b3          	sub	a7,s3,a5
    1b00:	fe0650e3          	bgez	a2,1ae0 <keccak_absorb+0x46>
    1b04:	00175613          	srli	a2,a4,0x1
    1b08:	00f71833          	sll	a6,a4,a5
    1b0c:	01165733          	srl	a4,a2,a7
    for (size_t i = 0; i < 8; ++i) {
    1b10:	07a1                	addi	a5,a5,8
        r |= (uint64_t)x[i] << 8 * i;
    1b12:	01056533          	or	a0,a0,a6
    1b16:	8dd9                	or	a1,a1,a4
    for (size_t i = 0; i < 8; ++i) {
    1b18:	0685                	addi	a3,a3,1
    1b1a:	fc979de3          	bne	a5,s1,1af4 <keccak_absorb+0x5a>
            s[i] ^= load64(m + 8 * i);
    1b1e:	00032703          	lw	a4,0(t1)
    1b22:	00432783          	lw	a5,4(t1)
        for (i = 0; i < r / 8; ++i) {
    1b26:	0e05                	addi	t3,t3,1
            s[i] ^= load64(m + 8 * i);
    1b28:	8f29                	xor	a4,a4,a0
    1b2a:	8fad                	xor	a5,a5,a1
    1b2c:	00e32023          	sw	a4,0(t1)
    1b30:	00f32223          	sw	a5,4(t1)
        for (i = 0; i < r / 8; ++i) {
    1b34:	0ea1                	addi	t4,t4,8
    1b36:	0321                	addi	t1,t1,8
    1b38:	f94e6fe3          	bltu	t3,s4,1ad6 <keccak_absorb+0x3c>
        keccak_ip_driver(s, s);
    1b3c:	85d6                	mv	a1,s5
    1b3e:	8556                	mv	a0,s5
        mlen -= r;
    1b40:	416b8bb3          	sub	s7,s7,s6
        keccak_ip_driver(s, s);
    1b44:	3b55                	jal	18f8 <keccak_ip_driver>
        m += r;
    1b46:	9c5a                	add	s8,s8,s6
    while (mlen >= r) {
    1b48:	f96bf4e3          	bgeu	s7,s6,1ad0 <keccak_absorb+0x36>
        t[i] = 0;
    1b4c:	865a                	mv	a2,s6
    1b4e:	4581                	li	a1,0
    1b50:	0028                	addi	a0,sp,8
    1b52:	43a010ef          	jal	ra,2f8c <memset>
    for (i = 0; i < mlen; ++i) {
    1b56:	000b8763          	beqz	s7,1b64 <keccak_absorb+0xca>
        t[i] = m[i];
    1b5a:	865e                	mv	a2,s7
    1b5c:	85e2                	mv	a1,s8
    1b5e:	0028                	addi	a0,sp,8
    1b60:	276020ef          	jal	ra,3dd6 <memcpy>
    t[i] = p;
    1b64:	0d0b8793          	addi	a5,s7,208
    1b68:	00278bb3          	add	s7,a5,sp
    t[r - 1] |= 128;
    1b6c:	0cfb0793          	addi	a5,s6,207
    t[i] = p;
    1b70:	f32b8c23          	sb	s2,-200(s7)
    t[r - 1] |= 128;
    1b74:	978a                	add	a5,a5,sp
    1b76:	f387c703          	lbu	a4,-200(a5)
    1b7a:	00810e93          	addi	t4,sp,8
    for (i = 0; i < r / 8; ++i) {
    1b7e:	4f01                	li	t5,0
    t[r - 1] |= 128;
    1b80:	f8076713          	ori	a4,a4,-128
    1b84:	f2e78c23          	sb	a4,-200(a5)
        r |= (uint64_t)x[i] << 8 * i;
    1b88:	4e7d                	li	t3,31
    for (size_t i = 0; i < 8; ++i) {
    1b8a:	04000313          	li	t1,64
    for (i = 0; i < r / 8; ++i) {
    1b8e:	86f6                	mv	a3,t4
    1b90:	4781                	li	a5,0
    uint64_t r = 0;
    1b92:	4501                	li	a0,0
    1b94:	4581                	li	a1,0
    1b96:	a819                	j	1bac <keccak_absorb+0x112>
        r |= (uint64_t)x[i] << 8 * i;
    1b98:	4801                	li	a6,0
    1b9a:	00c71733          	sll	a4,a4,a2
    for (size_t i = 0; i < 8; ++i) {
    1b9e:	07a1                	addi	a5,a5,8
        r |= (uint64_t)x[i] << 8 * i;
    1ba0:	01056533          	or	a0,a0,a6
    1ba4:	8dd9                	or	a1,a1,a4
    for (size_t i = 0; i < 8; ++i) {
    1ba6:	0685                	addi	a3,a3,1
    1ba8:	02678763          	beq	a5,t1,1bd6 <keccak_absorb+0x13c>
        r |= (uint64_t)x[i] << 8 * i;
    1bac:	fe078613          	addi	a2,a5,-32
    1bb0:	0006c703          	lbu	a4,0(a3)
    1bb4:	40fe08b3          	sub	a7,t3,a5
    1bb8:	fe0650e3          	bgez	a2,1b98 <keccak_absorb+0xfe>
    1bbc:	00175613          	srli	a2,a4,0x1
    1bc0:	00f71833          	sll	a6,a4,a5
    1bc4:	01165733          	srl	a4,a2,a7
    for (size_t i = 0; i < 8; ++i) {
    1bc8:	07a1                	addi	a5,a5,8
        r |= (uint64_t)x[i] << 8 * i;
    1bca:	01056533          	or	a0,a0,a6
    1bce:	8dd9                	or	a1,a1,a4
    for (size_t i = 0; i < 8; ++i) {
    1bd0:	0685                	addi	a3,a3,1
    1bd2:	fc679de3          	bne	a5,t1,1bac <keccak_absorb+0x112>
        s[i] ^= load64(t + 8 * i);
    1bd6:	000aa703          	lw	a4,0(s5)
    1bda:	004aa783          	lw	a5,4(s5)
    for (i = 0; i < r / 8; ++i) {
    1bde:	0f05                	addi	t5,t5,1
        s[i] ^= load64(t + 8 * i);
    1be0:	8f29                	xor	a4,a4,a0
    1be2:	8fad                	xor	a5,a5,a1
    1be4:	00eaa023          	sw	a4,0(s5)
    1be8:	00faa223          	sw	a5,4(s5)
    for (i = 0; i < r / 8; ++i) {
    1bec:	0ea1                	addi	t4,t4,8
    1bee:	0aa1                	addi	s5,s5,8
    1bf0:	f94f6fe3          	bltu	t5,s4,1b8e <keccak_absorb+0xf4>
}
    1bf4:	50fe                	lw	ra,252(sp)
    1bf6:	54ee                	lw	s1,248(sp)
    1bf8:	595e                	lw	s2,244(sp)
    1bfa:	59ce                	lw	s3,240(sp)
    1bfc:	5a3e                	lw	s4,236(sp)
    1bfe:	5aae                	lw	s5,232(sp)
    1c00:	5b1e                	lw	s6,228(sp)
    1c02:	5b8e                	lw	s7,224(sp)
    1c04:	4c7e                	lw	s8,220(sp)
    1c06:	6111                	addi	sp,sp,256
    1c08:	8082                	ret

00001c0a <sha3_512>:
 *
 * Arguments:   - uint8_t *output:      pointer to output
 *              - const uint8_t *input: pointer to input
 *              - size_t inlen:   length of input in bytes
 **************************************************/
void sha3_512(uint8_t *output, const uint8_t *input, size_t inlen) {
    1c0a:	712d                	addi	sp,sp,-288
    1c0c:	10912c23          	sw	s1,280(sp)
    1c10:	86b2                	mv	a3,a2
    1c12:	84aa                	mv	s1,a0
    uint64_t s[25];
    uint8_t t[SHA3_512_RATE];

    /* Absorb input */
    keccak_absorb(s, SHA3_512_RATE, input, inlen, 0x06);
    1c14:	4719                	li	a4,6
    1c16:	862e                	mv	a2,a1
    1c18:	00a8                	addi	a0,sp,72
    1c1a:	04800593          	li	a1,72
void sha3_512(uint8_t *output, const uint8_t *input, size_t inlen) {
    1c1e:	10112e23          	sw	ra,284(sp)
    keccak_absorb(s, SHA3_512_RATE, input, inlen, 0x06);
    1c22:	3da5                	jal	1a9a <keccak_absorb>

    /* Squeeze output */
    keccak_squeezeblocks(t, 1, s, SHA3_512_RATE);
    1c24:	00b0                	addi	a2,sp,72
    1c26:	850a                	mv	a0,sp
    1c28:	4585                	li	a1,1
    1c2a:	04800693          	li	a3,72
    1c2e:	3bf9                	jal	1a0c <keccak_squeezeblocks>

    for (size_t i = 0; i < 64; i++) {
        output[i] = t[i];
    1c30:	858a                	mv	a1,sp
    1c32:	8526                	mv	a0,s1
    1c34:	04000613          	li	a2,64
    1c38:	19e020ef          	jal	ra,3dd6 <memcpy>
    }
    1c3c:	11c12083          	lw	ra,284(sp)
    1c40:	11812483          	lw	s1,280(sp)
    1c44:	6115                	addi	sp,sp,288
    1c46:	8082                	ret

00001c48 <sha3_256.constprop.0>:
void sha3_256(uint8_t *output, const uint8_t *input, size_t inlen) {
    1c48:	710d                	addi	sp,sp,-352
    1c4a:	14912c23          	sw	s1,344(sp)
    1c4e:	862e                	mv	a2,a1
    1c50:	84aa                	mv	s1,a0
    keccak_absorb(s, SHA3_256_RATE, input, inlen, 0x06);
    1c52:	4719                	li	a4,6
    1c54:	0128                	addi	a0,sp,136
    1c56:	32000693          	li	a3,800
    1c5a:	08800593          	li	a1,136
void sha3_256(uint8_t *output, const uint8_t *input, size_t inlen) {
    1c5e:	14112e23          	sw	ra,348(sp)
    keccak_absorb(s, SHA3_256_RATE, input, inlen, 0x06);
    1c62:	3d25                	jal	1a9a <keccak_absorb>
    keccak_squeezeblocks(t, 1, s, SHA3_256_RATE);
    1c64:	0130                	addi	a2,sp,136
    1c66:	850a                	mv	a0,sp
    1c68:	4585                	li	a1,1
    1c6a:	08800693          	li	a3,136
    1c6e:	3b79                	jal	1a0c <keccak_squeezeblocks>
        output[i] = t[i];
    1c70:	858a                	mv	a1,sp
    1c72:	8526                	mv	a0,s1
    1c74:	02000613          	li	a2,32
    1c78:	15e020ef          	jal	ra,3dd6 <memcpy>
}
    1c7c:	15c12083          	lw	ra,348(sp)
    1c80:	15812483          	lw	s1,344(sp)
    1c84:	6135                	addi	sp,sp,352
    1c86:	8082                	ret

00001c88 <keccak_inc_absorb.constprop.0>:
    while (mlen + s_inc[25] >= r) {
    1c88:	0c852783          	lw	a5,200(a0)
static void keccak_inc_absorb(uint64_t *s_inc, uint32_t r, const uint8_t *m,
    1c8c:	1101                	addi	sp,sp,-32
    1c8e:	c652                	sw	s4,12(sp)
    1c90:	8a32                	mv	s4,a2
    while (mlen + s_inc[25] >= r) {
    1c92:	0cc52603          	lw	a2,204(a0)
    1c96:	00fa06b3          	add	a3,s4,a5
    1c9a:	0146b733          	sltu	a4,a3,s4
static void keccak_inc_absorb(uint64_t *s_inc, uint32_t r, const uint8_t *m,
    1c9e:	ca4a                	sw	s2,20(sp)
    1ca0:	c84e                	sw	s3,16(sp)
    1ca2:	ce06                	sw	ra,28(sp)
    1ca4:	cc26                	sw	s1,24(sp)
    1ca6:	c456                	sw	s5,8(sp)
    1ca8:	c25a                	sw	s6,4(sp)
    while (mlen + s_inc[25] >= r) {
    1caa:	9732                	add	a4,a4,a2
static void keccak_inc_absorb(uint64_t *s_inc, uint32_t r, const uint8_t *m,
    1cac:	892a                	mv	s2,a0
    1cae:	89ae                	mv	s3,a1
    while (mlen + s_inc[25] >= r) {
    1cb0:	12070663          	beqz	a4,1ddc <keccak_inc_absorb.constprop.0+0x154>
        for (i = 0; i < r - (uint32_t)s_inc[25]; i++) {
    1cb4:	08800a93          	li	s5,136
            s_inc[(s_inc[25] + i) >> 3] ^= (uint64_t)m[i] << (8 * ((s_inc[25] + i) & 0x07));
    1cb8:	4b7d                	li	s6,31
    while (mlen + s_inc[25] >= r) {
    1cba:	08700493          	li	s1,135
        for (i = 0; i < r - (uint32_t)s_inc[25]; i++) {
    1cbe:	4701                	li	a4,0
    1cc0:	03579663          	bne	a5,s5,1cec <keccak_inc_absorb.constprop.0+0x64>
    1cc4:	a8b9                	j	1d22 <keccak_inc_absorb.constprop.0+0x9a>
            s_inc[(s_inc[25] + i) >> 3] ^= (uint64_t)m[i] << (8 * ((s_inc[25] + i) & 0x07));
    1cc6:	01089833          	sll	a6,a7,a6
    1cca:	4881                	li	a7,0
    1ccc:	4390                	lw	a2,0(a5)
    1cce:	43d4                	lw	a3,4(a5)
        for (i = 0; i < r - (uint32_t)s_inc[25]; i++) {
    1cd0:	0705                	addi	a4,a4,1
            s_inc[(s_inc[25] + i) >> 3] ^= (uint64_t)m[i] << (8 * ((s_inc[25] + i) & 0x07));
    1cd2:	011648b3          	xor	a7,a2,a7
    1cd6:	0106c6b3          	xor	a3,a3,a6
    1cda:	c3d4                	sw	a3,4(a5)
    1cdc:	0117a023          	sw	a7,0(a5)
        for (i = 0; i < r - (uint32_t)s_inc[25]; i++) {
    1ce0:	0c892783          	lw	a5,200(s2)
    1ce4:	40fa86b3          	sub	a3,s5,a5
    1ce8:	02d77963          	bgeu	a4,a3,1d1a <keccak_inc_absorb.constprop.0+0x92>
            s_inc[(s_inc[25] + i) >> 3] ^= (uint64_t)m[i] << (8 * ((s_inc[25] + i) & 0x07));
    1cec:	97ba                	add	a5,a5,a4
    1cee:	0077f693          	andi	a3,a5,7
    1cf2:	068e                	slli	a3,a3,0x3
    1cf4:	00e98633          	add	a2,s3,a4
    1cf8:	9be1                	andi	a5,a5,-8
    1cfa:	fe068813          	addi	a6,a3,-32
    1cfe:	00064883          	lbu	a7,0(a2)
    1d02:	40db05b3          	sub	a1,s6,a3
    1d06:	97ca                	add	a5,a5,s2
    1d08:	fa085fe3          	bgez	a6,1cc6 <keccak_inc_absorb.constprop.0+0x3e>
    1d0c:	0018d813          	srli	a6,a7,0x1
    1d10:	00b85833          	srl	a6,a6,a1
    1d14:	00d898b3          	sll	a7,a7,a3
    1d18:	bf55                	j	1ccc <keccak_inc_absorb.constprop.0+0x44>
        mlen -= (size_t)(r - s_inc[25]);
    1d1a:	f7878793          	addi	a5,a5,-136
    1d1e:	9a3e                	add	s4,s4,a5
        m += r - s_inc[25];
    1d20:	99b6                	add	s3,s3,a3
        s_inc[25] = 0;
    1d22:	4781                	li	a5,0
    1d24:	4801                	li	a6,0
    1d26:	0cf92423          	sw	a5,200(s2)
        keccak_ip_driver(s_inc, s_inc);
    1d2a:	85ca                	mv	a1,s2
        s_inc[25] = 0;
    1d2c:	0d092623          	sw	a6,204(s2)
        keccak_ip_driver(s_inc, s_inc);
    1d30:	854a                	mv	a0,s2
    1d32:	36d9                	jal	18f8 <keccak_ip_driver>
    while (mlen + s_inc[25] >= r) {
    1d34:	0c892683          	lw	a3,200(s2)
    1d38:	0cc92603          	lw	a2,204(s2)
    1d3c:	00da05b3          	add	a1,s4,a3
    1d40:	0145b733          	sltu	a4,a1,s4
    1d44:	9732                	add	a4,a4,a2
    1d46:	87b6                	mv	a5,a3
    1d48:	fb3d                	bnez	a4,1cbe <keccak_inc_absorb.constprop.0+0x36>
    1d4a:	f6b4eae3          	bltu	s1,a1,1cbe <keccak_inc_absorb.constprop.0+0x36>
    for (i = 0; i < mlen; i++) {
    1d4e:	060a0663          	beqz	s4,1dba <keccak_inc_absorb.constprop.0+0x132>
        for (i = 0; i < r - (uint32_t)s_inc[25]; i++) {
    1d52:	4701                	li	a4,0
        s_inc[(s_inc[25] + i) >> 3] ^= (uint64_t)m[i] << (8 * ((s_inc[25] + i) & 0x07));
    1d54:	487d                	li	a6,31
    1d56:	a839                	j	1d74 <keccak_inc_absorb.constprop.0+0xec>
    1d58:	4388                	lw	a0,0(a5)
    1d5a:	43d4                	lw	a3,4(a5)
    1d5c:	00c59633          	sll	a2,a1,a2
    1d60:	4581                	li	a1,0
    1d62:	8da9                	xor	a1,a1,a0
    1d64:	8eb1                	xor	a3,a3,a2
    for (i = 0; i < mlen; i++) {
    1d66:	0705                	addi	a4,a4,1
        s_inc[(s_inc[25] + i) >> 3] ^= (uint64_t)m[i] << (8 * ((s_inc[25] + i) & 0x07));
    1d68:	c38c                	sw	a1,0(a5)
    1d6a:	c3d4                	sw	a3,4(a5)
    for (i = 0; i < mlen; i++) {
    1d6c:	05477363          	bgeu	a4,s4,1db2 <keccak_inc_absorb.constprop.0+0x12a>
    s_inc[25] += mlen;
    1d70:	0c892783          	lw	a5,200(s2)
        s_inc[(s_inc[25] + i) >> 3] ^= (uint64_t)m[i] << (8 * ((s_inc[25] + i) & 0x07));
    1d74:	97ba                	add	a5,a5,a4
    1d76:	0077f693          	andi	a3,a5,7
    1d7a:	068e                	slli	a3,a3,0x3
    1d7c:	00e985b3          	add	a1,s3,a4
    1d80:	9be1                	andi	a5,a5,-8
    1d82:	fe068613          	addi	a2,a3,-32
    1d86:	0005c583          	lbu	a1,0(a1)
    1d8a:	40d80533          	sub	a0,a6,a3
    1d8e:	97ca                	add	a5,a5,s2
    1d90:	fc0654e3          	bgez	a2,1d58 <keccak_inc_absorb.constprop.0+0xd0>
    1d94:	0015d613          	srli	a2,a1,0x1
    1d98:	00a65633          	srl	a2,a2,a0
    1d9c:	00d595b3          	sll	a1,a1,a3
    1da0:	4388                	lw	a0,0(a5)
    1da2:	43d4                	lw	a3,4(a5)
    for (i = 0; i < mlen; i++) {
    1da4:	0705                	addi	a4,a4,1
        s_inc[(s_inc[25] + i) >> 3] ^= (uint64_t)m[i] << (8 * ((s_inc[25] + i) & 0x07));
    1da6:	8da9                	xor	a1,a1,a0
    1da8:	8eb1                	xor	a3,a3,a2
    1daa:	c38c                	sw	a1,0(a5)
    1dac:	c3d4                	sw	a3,4(a5)
    for (i = 0; i < mlen; i++) {
    1dae:	fd4761e3          	bltu	a4,s4,1d70 <keccak_inc_absorb.constprop.0+0xe8>
    1db2:	0c892683          	lw	a3,200(s2)
    1db6:	0cc92603          	lw	a2,204(s2)
    s_inc[25] += mlen;
    1dba:	9a36                	add	s4,s4,a3
}
    1dbc:	40f2                	lw	ra,28(sp)
    s_inc[25] += mlen;
    1dbe:	00da37b3          	sltu	a5,s4,a3
    1dc2:	97b2                	add	a5,a5,a2
    1dc4:	0d492423          	sw	s4,200(s2)
    1dc8:	0cf92623          	sw	a5,204(s2)
}
    1dcc:	44e2                	lw	s1,24(sp)
    1dce:	4952                	lw	s2,20(sp)
    1dd0:	49c2                	lw	s3,16(sp)
    1dd2:	4a32                	lw	s4,12(sp)
    1dd4:	4aa2                	lw	s5,8(sp)
    1dd6:	4b12                	lw	s6,4(sp)
    1dd8:	6105                	addi	sp,sp,32
    1dda:	8082                	ret
    while (mlen + s_inc[25] >= r) {
    1ddc:	08700713          	li	a4,135
    1de0:	ecd76ae3          	bltu	a4,a3,1cb4 <keccak_inc_absorb.constprop.0+0x2c>
    1de4:	b7bd                	j	1d52 <keccak_inc_absorb.constprop.0+0xca>

00001de6 <print_exc_msg>:
/**
 * Default Error Handling
 * @param msg error message supplied by caller
 * TODO - this will be soon by a real print formatting
 */
static void print_exc_msg(const char *msg) {
    1de6:	85aa                	mv	a1,a0
  printf("%s", msg);
    1de8:	00080537          	lui	a0,0x80
static void print_exc_msg(const char *msg) {
    1dec:	1141                	addi	sp,sp,-16
  printf("%s", msg);
    1dee:	0b850513          	addi	a0,a0,184 # 800b8 <no_exception_handler_msg+0x23>
static void print_exc_msg(const char *msg) {
    1df2:	c606                	sw	ra,12(sp)
  printf("%s", msg);
    1df4:	030020ef          	jal	ra,3e24 <iprintf>
  CSR_READ(CSR_REG_MTVAL, &mtval);
    1df8:	343025f3          	csrr	a1,mtval
  printf("MTVAL value is 0x%x\n", get_mtval());
    1dfc:	00080537          	lui	a0,0x80
    1e00:	0bc50513          	addi	a0,a0,188 # 800bc <no_exception_handler_msg+0x27>
    1e04:	020020ef          	jal	ra,3e24 <iprintf>
  while (1) {
    1e08:	a001                	j	1e08 <print_exc_msg+0x22>

00001e0a <PQCLEAN_KYBER512_CLEAN_gen_matrix>:
void PQCLEAN_KYBER512_CLEAN_gen_matrix(polyvec *a, const uint8_t seed[KYBER_SYMBYTES], int transposed) {
    1e0a:	da010113          	addi	sp,sp,-608
    1e0e:	25412623          	sw	s4,588(sp)
    1e12:	25512423          	sw	s5,584(sp)
    1e16:	8a32                	mv	s4,a2
    1e18:	8aaa                	mv	s5,a0
    memcpy(extseed, seed, KYBER_SYMBYTES);
    1e1a:	02000613          	li	a2,32
    1e1e:	0808                	addi	a0,sp,16
void PQCLEAN_KYBER512_CLEAN_gen_matrix(polyvec *a, const uint8_t seed[KYBER_SYMBYTES], int transposed) {
    1e20:	25212a23          	sw	s2,596(sp)
    1e24:	23b12823          	sw	s11,560(sp)
    1e28:	24112e23          	sw	ra,604(sp)
    1e2c:	24912c23          	sw	s1,600(sp)
    1e30:	25312823          	sw	s3,592(sp)
    1e34:	25612223          	sw	s6,580(sp)
    1e38:	25712023          	sw	s7,576(sp)
    1e3c:	23812e23          	sw	s8,572(sp)
    1e40:	23912c23          	sw	s9,568(sp)
    1e44:	23a12a23          	sw	s10,564(sp)
    1e48:	c456                	sw	s5,8(sp)
    1e4a:	c652                	sw	s4,12(sp)
    for (i = 0; i < KYBER_K; i++) {
    1e4c:	4901                	li	s2,0
    memcpy(extseed, seed, KYBER_SYMBYTES);
    1e4e:	789010ef          	jal	ra,3dd6 <memcpy>
    keccak_absorb(state->ctx, SHAKE128_RATE, input, inlen, 0x1F);
    1e52:	4dfd                	li	s11,31
        for (j = 0; j < KYBER_K; j++) {
    1e54:	47a2                	lw	a5,8(sp)
            if (transposed) {
    1e56:	4732                	lw	a4,12(sp)
    1e58:	00a91b13          	slli	s6,s2,0xa
        for (j = 0; j < KYBER_K; j++) {
    1e5c:	4481                	li	s1,0
    1e5e:	9b3e                	add	s6,s6,a5
    1e60:	0ff97c13          	zext.b	s8,s2
            while (ctr < KYBER_N) {
    1e64:	0ff00b93          	li	s7,255
            if (transposed) {
    1e68:	0ff4f793          	zext.b	a5,s1
    state->ctx = malloc(PQC_SHAKECTX_BYTES);
    1e6c:	0c800513          	li	a0,200
    1e70:	12070f63          	beqz	a4,1fae <PQCLEAN_KYBER512_CLEAN_gen_matrix+0x1a4>
                extseed[KYBER_SYMBYTES + 0] = (uint8_t)i;
    1e74:	03810823          	sb	s8,48(sp)
                extseed[KYBER_SYMBYTES + 1] = (uint8_t)j;
    1e78:	02f108a3          	sb	a5,49(sp)
    1e7c:	743010ef          	jal	ra,3dbe <malloc>
    1e80:	8aaa                	mv	s5,a0
    if (state->ctx == NULL) {
    1e82:	12050f63          	beqz	a0,1fc0 <PQCLEAN_KYBER512_CLEAN_gen_matrix+0x1b6>
    keccak_absorb(state->ctx, SHAKE128_RATE, input, inlen, 0x1F);
    1e86:	477d                	li	a4,31
    1e88:	02200693          	li	a3,34
    1e8c:	0810                	addi	a2,sp,16
    1e8e:	0a800593          	li	a1,168
    1e92:	3121                	jal	1a9a <keccak_absorb>
        for (j = 0; j < KYBER_K; j++) {
    1e94:	03410d13          	addi	s10,sp,52
    for (size_t i = 0; i < 8; ++i) {
    1e98:	04000993          	li	s3,64
        for (size_t i = 0; i < (r >> 3); i++) {
    1e9c:	0a800a13          	li	s4,168
        keccak_ip_driver(s,s);
    1ea0:	8556                	mv	a0,s5
    1ea2:	85d6                	mv	a1,s5
    1ea4:	3c91                	jal	18f8 <keccak_ip_driver>
    1ea6:	4501                	li	a0,0
            store64(h + 8 * i, s[i]);
    1ea8:	00aa87b3          	add	a5,s5,a0
    1eac:	43cc                	lw	a1,4(a5)
    1eae:	0007a303          	lw	t1,0(a5)
    1eb2:	00ad06b3          	add	a3,s10,a0
    1eb6:	4701                	li	a4,0
        x[i] = (uint8_t) (u >> 8 * i);
    1eb8:	00159893          	slli	a7,a1,0x1
    1ebc:	a809                	j	1ece <PQCLEAN_KYBER512_CLEAN_gen_matrix+0xc4>
    1ebe:	00f5d7b3          	srl	a5,a1,a5
    1ec2:	00f68023          	sb	a5,0(a3)
    for (size_t i = 0; i < 8; ++i) {
    1ec6:	0721                	addi	a4,a4,8
    1ec8:	0685                	addi	a3,a3,1
    1eca:	03370363          	beq	a4,s3,1ef0 <PQCLEAN_KYBER512_CLEAN_gen_matrix+0xe6>
        x[i] = (uint8_t) (u >> 8 * i);
    1ece:	fe070793          	addi	a5,a4,-32 # efffffe0 <_sp+0xeff1f730>
    1ed2:	fe07d6e3          	bgez	a5,1ebe <PQCLEAN_KYBER512_CLEAN_gen_matrix+0xb4>
    1ed6:	40ed8633          	sub	a2,s11,a4
    1eda:	00e357b3          	srl	a5,t1,a4
    1ede:	00c89633          	sll	a2,a7,a2
    1ee2:	8fd1                	or	a5,a5,a2
    1ee4:	00f68023          	sb	a5,0(a3)
    for (size_t i = 0; i < 8; ++i) {
    1ee8:	0721                	addi	a4,a4,8
    1eea:	0685                	addi	a3,a3,1
    1eec:	ff3711e3          	bne	a4,s3,1ece <PQCLEAN_KYBER512_CLEAN_gen_matrix+0xc4>
        for (size_t i = 0; i < (r >> 3); i++) {
    1ef0:	0521                	addi	a0,a0,8
    1ef2:	fb451be3          	bne	a0,s4,1ea8 <PQCLEAN_KYBER512_CLEAN_gen_matrix+0x9e>
        h += r;
    1ef6:	0a8d0d13          	addi	s10,s10,168
    while (nblocks > 0) {
    1efa:	147c                	addi	a5,sp,556
    1efc:	fafd12e3          	bne	s10,a5,1ea0 <PQCLEAN_KYBER512_CLEAN_gen_matrix+0x96>
            ctr = rej_uniform(a[i].vec[j].coeffs, KYBER_N, buf, buflen);
    1f00:	00949993          	slli	s3,s1,0x9
    1f04:	99da                	add	s3,s3,s6
    1f06:	1f800693          	li	a3,504
    1f0a:	1850                	addi	a2,sp,52
    1f0c:	10000593          	li	a1,256
    1f10:	854e                	mv	a0,s3
    1f12:	b4eff0ef          	jal	ra,1260 <rej_uniform>
    1f16:	8caa                	mv	s9,a0
    for (size_t i = 0; i < 8; ++i) {
    1f18:	04000a13          	li	s4,64
        for (size_t i = 0; i < (r >> 3); i++) {
    1f1c:	0a800d13          	li	s10,168
            while (ctr < KYBER_N) {
    1f20:	06abee63          	bltu	s7,a0,1f9c <PQCLEAN_KYBER512_CLEAN_gen_matrix+0x192>
        keccak_ip_driver(s,s);
    1f24:	85d6                	mv	a1,s5
    1f26:	8556                	mv	a0,s5
    1f28:	3ac1                	jal	18f8 <keccak_ip_driver>
    1f2a:	03410f93          	addi	t6,sp,52
    1f2e:	4f01                	li	t5,0
            store64(h + 8 * i, s[i]);
    1f30:	01ea87b3          	add	a5,s5,t5
    1f34:	43cc                	lw	a1,4(a5)
    1f36:	0007ae83          	lw	t4,0(a5)
    1f3a:	86fe                	mv	a3,t6
    1f3c:	4701                	li	a4,0
        x[i] = (uint8_t) (u >> 8 * i);
    1f3e:	00159513          	slli	a0,a1,0x1
    1f42:	a809                	j	1f54 <PQCLEAN_KYBER512_CLEAN_gen_matrix+0x14a>
    1f44:	00f5d7b3          	srl	a5,a1,a5
    1f48:	00f68023          	sb	a5,0(a3)
    for (size_t i = 0; i < 8; ++i) {
    1f4c:	0721                	addi	a4,a4,8
    1f4e:	0685                	addi	a3,a3,1
    1f50:	03470363          	beq	a4,s4,1f76 <PQCLEAN_KYBER512_CLEAN_gen_matrix+0x16c>
        x[i] = (uint8_t) (u >> 8 * i);
    1f54:	fe070793          	addi	a5,a4,-32
    1f58:	fe07d6e3          	bgez	a5,1f44 <PQCLEAN_KYBER512_CLEAN_gen_matrix+0x13a>
    1f5c:	40ed8633          	sub	a2,s11,a4
    1f60:	00eed7b3          	srl	a5,t4,a4
    1f64:	00c51633          	sll	a2,a0,a2
    1f68:	8fd1                	or	a5,a5,a2
    1f6a:	00f68023          	sb	a5,0(a3)
    for (size_t i = 0; i < 8; ++i) {
    1f6e:	0721                	addi	a4,a4,8
    1f70:	0685                	addi	a3,a3,1
    1f72:	ff4711e3          	bne	a4,s4,1f54 <PQCLEAN_KYBER512_CLEAN_gen_matrix+0x14a>
        for (size_t i = 0; i < (r >> 3); i++) {
    1f76:	0f21                	addi	t5,t5,8
    1f78:	0fa1                	addi	t6,t6,8
    1f7a:	fbaf1be3          	bne	t5,s10,1f30 <PQCLEAN_KYBER512_CLEAN_gen_matrix+0x126>
                ctr += rej_uniform(a[i].vec[j].coeffs + ctr, KYBER_N - ctr, buf, buflen);
    1f7e:	001c9513          	slli	a0,s9,0x1
    1f82:	10000793          	li	a5,256
    1f86:	419785b3          	sub	a1,a5,s9
    1f8a:	0a800693          	li	a3,168
    1f8e:	1850                	addi	a2,sp,52
    1f90:	954e                	add	a0,a0,s3
    1f92:	aceff0ef          	jal	ra,1260 <rej_uniform>
    1f96:	9caa                	add	s9,s9,a0
            while (ctr < KYBER_N) {
    1f98:	f99bf6e3          	bgeu	s7,s9,1f24 <PQCLEAN_KYBER512_CLEAN_gen_matrix+0x11a>
        for (j = 0; j < KYBER_K; j++) {
    1f9c:	e495                	bnez	s1,1fc8 <PQCLEAN_KYBER512_CLEAN_gen_matrix+0x1be>
            if (transposed) {
    1f9e:	4732                	lw	a4,12(sp)
    1fa0:	4485                	li	s1,1
    1fa2:	0ff4f793          	zext.b	a5,s1
    state->ctx = malloc(PQC_SHAKECTX_BYTES);
    1fa6:	0c800513          	li	a0,200
    1faa:	ec0715e3          	bnez	a4,1e74 <PQCLEAN_KYBER512_CLEAN_gen_matrix+0x6a>
                extseed[KYBER_SYMBYTES + 0] = (uint8_t)j;
    1fae:	02f10823          	sb	a5,48(sp)
                extseed[KYBER_SYMBYTES + 1] = (uint8_t)i;
    1fb2:	038108a3          	sb	s8,49(sp)
    1fb6:	609010ef          	jal	ra,3dbe <malloc>
    1fba:	8aaa                	mv	s5,a0
    if (state->ctx == NULL) {
    1fbc:	ec0515e3          	bnez	a0,1e86 <PQCLEAN_KYBER512_CLEAN_gen_matrix+0x7c>
        exit(111);
    1fc0:	06f00513          	li	a0,111
    1fc4:	a28fe0ef          	jal	ra,1ec <exit>
    for (i = 0; i < KYBER_K; i++) {
    1fc8:	00990463          	beq	s2,s1,1fd0 <PQCLEAN_KYBER512_CLEAN_gen_matrix+0x1c6>
    1fcc:	4905                	li	s2,1
    1fce:	b559                	j	1e54 <PQCLEAN_KYBER512_CLEAN_gen_matrix+0x4a>
}
    1fd0:	25c12083          	lw	ra,604(sp)
    1fd4:	25812483          	lw	s1,600(sp)
    1fd8:	25412903          	lw	s2,596(sp)
    1fdc:	25012983          	lw	s3,592(sp)
    1fe0:	24c12a03          	lw	s4,588(sp)
    1fe4:	24812a83          	lw	s5,584(sp)
    1fe8:	24412b03          	lw	s6,580(sp)
    1fec:	24012b83          	lw	s7,576(sp)
    1ff0:	23c12c03          	lw	s8,572(sp)
    1ff4:	23812c83          	lw	s9,568(sp)
    1ff8:	23412d03          	lw	s10,564(sp)
    1ffc:	23012d83          	lw	s11,560(sp)
    2000:	26010113          	addi	sp,sp,608
    2004:	8082                	ret

00002006 <shake256>:
              const uint8_t *input, size_t inlen) {
    2006:	7171                	addi	sp,sp,-176
    2008:	d14e                	sw	s3,160(sp)
    200a:	89aa                	mv	s3,a0
    state->ctx = malloc(PQC_SHAKECTX_BYTES);
    200c:	0c800513          	li	a0,200
              const uint8_t *input, size_t inlen) {
    2010:	d526                	sw	s1,168(sp)
    2012:	cf52                	sw	s4,156(sp)
    2014:	cd56                	sw	s5,152(sp)
    2016:	d706                	sw	ra,172(sp)
    2018:	d34a                	sw	s2,164(sp)
    201a:	84ae                	mv	s1,a1
    201c:	8a32                	mv	s4,a2
    201e:	8ab6                	mv	s5,a3
    state->ctx = malloc(PQC_SHAKECTX_BYTES);
    2020:	59f010ef          	jal	ra,3dbe <malloc>
    if (state->ctx == NULL) {
    2024:	10050963          	beqz	a0,2136 <shake256+0x130>
    keccak_absorb(state->ctx, SHAKE256_RATE, input, inlen, 0x1F);
    2028:	477d                	li	a4,31
    202a:	86d6                	mv	a3,s5
    202c:	8652                	mv	a2,s4
    202e:	08800593          	li	a1,136
    2032:	892a                	mv	s2,a0
    2034:	349d                	jal	1a9a <keccak_absorb>
    while (nblocks > 0) {
    2036:	08700793          	li	a5,135
    203a:	0497fe63          	bgeu	a5,s1,2096 <shake256+0x90>
        keccak_ip_driver(s,s);
    203e:	854a                	mv	a0,s2
    2040:	85ca                	mv	a1,s2
    2042:	8b7ff0ef          	jal	ra,18f8 <keccak_ip_driver>
    2046:	4501                	li	a0,0
        x[i] = (uint8_t) (u >> 8 * i);
    2048:	437d                	li	t1,31
    for (size_t i = 0; i < 8; ++i) {
    204a:	04000e13          	li	t3,64
        for (size_t i = 0; i < (r >> 3); i++) {
    204e:	08800e93          	li	t4,136
    2052:	a821                	j	206a <shake256+0x64>
        x[i] = (uint8_t) (u >> 8 * i);
    2054:	00f5d7b3          	srl	a5,a1,a5
    2058:	00f60023          	sb	a5,0(a2)
    for (size_t i = 0; i < 8; ++i) {
    205c:	0721                	addi	a4,a4,8
    205e:	0605                	addi	a2,a2,1
    2060:	01c71f63          	bne	a4,t3,207e <shake256+0x78>
        for (size_t i = 0; i < (r >> 3); i++) {
    2064:	0521                	addi	a0,a0,8
    2066:	03d50863          	beq	a0,t4,2096 <shake256+0x90>
            store64(h + 8 * i, s[i]);
    206a:	00a907b3          	add	a5,s2,a0
    206e:	43cc                	lw	a1,4(a5)
    2070:	0007a883          	lw	a7,0(a5)
    2074:	00a98633          	add	a2,s3,a0
    2078:	4701                	li	a4,0
        x[i] = (uint8_t) (u >> 8 * i);
    207a:	00159813          	slli	a6,a1,0x1
    207e:	fe070793          	addi	a5,a4,-32
    2082:	fc07d9e3          	bgez	a5,2054 <shake256+0x4e>
    2086:	40e306b3          	sub	a3,t1,a4
    208a:	00d816b3          	sll	a3,a6,a3
    208e:	00e8d7b3          	srl	a5,a7,a4
    2092:	8fd5                	or	a5,a5,a3
    2094:	b7d1                	j	2058 <shake256+0x52>
    outlen -= nblocks * SHAKE256_RATE;
    2096:	08800613          	li	a2,136
    209a:	02c4fa33          	remu	s4,s1,a2
    if (outlen) {
    209e:	000a1c63          	bnez	s4,20b6 <shake256+0xb0>
}
    20a2:	50ba                	lw	ra,172(sp)
    20a4:	54aa                	lw	s1,168(sp)
    20a6:	598a                	lw	s3,160(sp)
    20a8:	4a7a                	lw	s4,156(sp)
    20aa:	4aea                	lw	s5,152(sp)
    free(state->ctx);
    20ac:	854a                	mv	a0,s2
}
    20ae:	591a                	lw	s2,164(sp)
    20b0:	614d                	addi	sp,sp,176
    free(state->ctx);
    20b2:	5190106f          	j	3dca <free>
        keccak_ip_driver(s,s);
    20b6:	854a                	mv	a0,s2
    20b8:	85ca                	mv	a1,s2
    20ba:	83fff0ef          	jal	ra,18f8 <keccak_ip_driver>
    20be:	00810f13          	addi	t5,sp,8
    20c2:	4881                	li	a7,0
        x[i] = (uint8_t) (u >> 8 * i);
    20c4:	4efd                	li	t4,31
    for (size_t i = 0; i < 8; ++i) {
    20c6:	04000513          	li	a0,64
        for (size_t i = 0; i < (r >> 3); i++) {
    20ca:	08800f93          	li	t6,136
            store64(h + 8 * i, s[i]);
    20ce:	011907b3          	add	a5,s2,a7
    20d2:	0047a803          	lw	a6,4(a5)
    20d6:	0007ae03          	lw	t3,0(a5)
    20da:	86fa                	mv	a3,t5
    20dc:	4701                	li	a4,0
        x[i] = (uint8_t) (u >> 8 * i);
    20de:	00181313          	slli	t1,a6,0x1
    20e2:	a809                	j	20f4 <shake256+0xee>
    20e4:	00f857b3          	srl	a5,a6,a5
    20e8:	00f68023          	sb	a5,0(a3)
    for (size_t i = 0; i < 8; ++i) {
    20ec:	0721                	addi	a4,a4,8
    20ee:	0685                	addi	a3,a3,1
    20f0:	02a70363          	beq	a4,a0,2116 <shake256+0x110>
        x[i] = (uint8_t) (u >> 8 * i);
    20f4:	fe070793          	addi	a5,a4,-32
    20f8:	fe07d6e3          	bgez	a5,20e4 <shake256+0xde>
    20fc:	40ee85b3          	sub	a1,t4,a4
    2100:	00ee57b3          	srl	a5,t3,a4
    2104:	00b315b3          	sll	a1,t1,a1
    2108:	8fcd                	or	a5,a5,a1
    210a:	00f68023          	sb	a5,0(a3)
    for (size_t i = 0; i < 8; ++i) {
    210e:	0721                	addi	a4,a4,8
    2110:	0685                	addi	a3,a3,1
    2112:	fea711e3          	bne	a4,a0,20f4 <shake256+0xee>
        for (size_t i = 0; i < (r >> 3); i++) {
    2116:	08a1                	addi	a7,a7,8
    2118:	0f21                	addi	t5,t5,8
    211a:	fbf89ae3          	bne	a7,t6,20ce <shake256+0xc8>
    size_t nblocks = outlen / SHAKE256_RATE;
    211e:	0314d4b3          	divu	s1,s1,a7
            output[i] = t[i];
    2122:	8652                	mv	a2,s4
    2124:	002c                	addi	a1,sp,8
    output += nblocks * SHAKE256_RATE;
    2126:	00449513          	slli	a0,s1,0x4
    212a:	9526                	add	a0,a0,s1
    212c:	050e                	slli	a0,a0,0x3
            output[i] = t[i];
    212e:	954e                	add	a0,a0,s3
    2130:	4a7010ef          	jal	ra,3dd6 <memcpy>
    2134:	b7bd                	j	20a2 <shake256+0x9c>
        exit(111);
    2136:	06f00513          	li	a0,111
    213a:	8b2fe0ef          	jal	ra,1ec <exit>

0000213e <PQCLEAN_KYBER512_CLEAN_poly_getnoise_eta1>:
void PQCLEAN_KYBER512_CLEAN_poly_getnoise_eta1(poly *r, const uint8_t seed[KYBER_SYMBYTES], uint8_t nonce) {
    213e:	7155                	addi	sp,sp,-208
    2140:	c5a6                	sw	s1,200(sp)
    2142:	86b2                	mv	a3,a2
    2144:	84aa                	mv	s1,a0
    shake256(buf, sizeof(buf), seed, nonce);
    2146:	862e                	mv	a2,a1
    2148:	850a                	mv	a0,sp
    214a:	0c000593          	li	a1,192
void PQCLEAN_KYBER512_CLEAN_poly_getnoise_eta1(poly *r, const uint8_t seed[KYBER_SYMBYTES], uint8_t nonce) {
    214e:	c786                	sw	ra,204(sp)
    shake256(buf, sizeof(buf), seed, nonce);
    2150:	3d5d                	jal	2006 <shake256>
static void cbd3(poly *r, const uint8_t buf[3 * KYBER_N / 4]) {
    unsigned int i, j;
    uint32_t t, d;
    int16_t a, b;

    for (i = 0; i < KYBER_N / 4; i++) {
    2152:	860a                	mv	a2,sp
    2154:	0c010e13          	addi	t3,sp,192
    2158:	4701                	li	a4,0
            a = (d >> (6 * j + 0)) & 0x7;
            b = (d >> (6 * j + 3)) & 0x7;
            r->coeffs[4 * i + j] = a - b;
        }*/
        asm volatile (".insn i 0x2b, 1, %[dst], %[src], 0\r\n" : [dst] "=r" (d) : [src] "r" (buf + 3 * i) : );
        asm volatile (".insn r 0x0b, 0x5, 0x5, %[dst], %[src], %[x]\r\n" : [dst] "=r" (r->coeffs[4 * i])     : [src] "r" (d), [x] "r" (0) : );
    215a:	4301                	li	t1,0
        asm volatile (".insn r 0x0b, 0x5, 0x6, %[dst], %[src], %[x]\r\n" : [dst] "=r" (r->coeffs[4 * i + 1]) : [src] "r" (d), [x] "r" (1) : );
    215c:	4885                	li	a7,1
        asm volatile (".insn r 0x0b, 0x5, 0x7, %[dst], %[src], %[x]\r\n" : [dst] "=r" (r->coeffs[4 * i + 2]) : [src] "r" (d), [x] "r" (2) : );
    215e:	4809                	li	a6,2
        asm volatile (".insn r 0x0b, 0x5, 0x8, %[dst], %[src], %[x]\r\n" : [dst] "=r" (r->coeffs[4 * i + 3]) : [src] "r" (d), [x] "r" (3) : );
    2160:	450d                	li	a0,3
        asm volatile (".insn i 0x2b, 1, %[dst], %[src], 0\r\n" : [dst] "=r" (d) : [src] "r" (buf + 3 * i) : );
    2162:	000617ab          	0x617ab
        asm volatile (".insn r 0x0b, 0x5, 0x5, %[dst], %[src], %[x]\r\n" : [dst] "=r" (r->coeffs[4 * i])     : [src] "r" (d), [x] "r" (0) : );
    2166:	0a67d58b          	0xa67d58b
    216a:	00171693          	slli	a3,a4,0x1
    216e:	96a6                	add	a3,a3,s1
    2170:	00b69023          	sh	a1,0(a3)
        asm volatile (".insn r 0x0b, 0x5, 0x6, %[dst], %[src], %[x]\r\n" : [dst] "=r" (r->coeffs[4 * i + 1]) : [src] "r" (d), [x] "r" (1) : );
    2174:	0d17d58b          	0xd17d58b
    2178:	00170693          	addi	a3,a4,1
    217c:	0686                	slli	a3,a3,0x1
    217e:	96a6                	add	a3,a3,s1
    2180:	00b69023          	sh	a1,0(a3)
        asm volatile (".insn r 0x0b, 0x5, 0x7, %[dst], %[src], %[x]\r\n" : [dst] "=r" (r->coeffs[4 * i + 2]) : [src] "r" (d), [x] "r" (2) : );
    2184:	0f07d58b          	0xf07d58b
    2188:	00270693          	addi	a3,a4,2
    218c:	0686                	slli	a3,a3,0x1
    218e:	96a6                	add	a3,a3,s1
    2190:	00b69023          	sh	a1,0(a3)
        asm volatile (".insn r 0x0b, 0x5, 0x8, %[dst], %[src], %[x]\r\n" : [dst] "=r" (r->coeffs[4 * i + 3]) : [src] "r" (d), [x] "r" (3) : );
    2194:	10a7d78b          	0x10a7d78b
    2198:	00370693          	addi	a3,a4,3
    219c:	0686                	slli	a3,a3,0x1
    219e:	96a6                	add	a3,a3,s1
    21a0:	00f69023          	sh	a5,0(a3)
    for (i = 0; i < KYBER_N / 4; i++) {
    21a4:	060d                	addi	a2,a2,3
    21a6:	0711                	addi	a4,a4,4
    21a8:	fbc61de3          	bne	a2,t3,2162 <PQCLEAN_KYBER512_CLEAN_poly_getnoise_eta1+0x24>
}
    21ac:	40be                	lw	ra,204(sp)
    21ae:	44ae                	lw	s1,200(sp)
    21b0:	6169                	addi	sp,sp,208
    21b2:	8082                	ret

000021b4 <PQCLEAN_KYBER512_CLEAN_indcpa_enc>:
                                       const uint8_t coins[KYBER_SYMBYTES]) {
    21b4:	7139                	addi	sp,sp,-64
    21b6:	72f9                	lui	t0,0xffffe
    21b8:	1e028293          	addi	t0,t0,480 # ffffe1e0 <_sp+0xfff1d930>
    21bc:	d652                	sw	s4,44(sp)
    PQCLEAN_KYBER512_CLEAN_polyvec_frombytes(pk, packedpk);
    21be:	6a09                	lui	s4,0x2
                                       const uint8_t coins[KYBER_SYMBYTES]) {
    21c0:	de06                	sw	ra,60(sp)
    21c2:	dc26                	sw	s1,56(sp)
    21c4:	da4a                	sw	s2,52(sp)
    21c6:	d84e                	sw	s3,48(sp)
    21c8:	d456                	sw	s5,40(sp)
    21ca:	d25a                	sw	s6,36(sp)
    21cc:	d05e                	sw	s7,32(sp)
    21ce:	ce62                	sw	s8,28(sp)
    21d0:	cc66                	sw	s9,24(sp)
    21d2:	ca6a                	sw	s10,20(sp)
    21d4:	c86e                	sw	s11,16(sp)
    PQCLEAN_KYBER512_CLEAN_polyvec_frombytes(pk, packedpk);
    21d6:	e20a0793          	addi	a5,s4,-480 # 1e20 <PQCLEAN_KYBER512_CLEAN_gen_matrix+0x16>
                                       const uint8_t coins[KYBER_SYMBYTES]) {
    21da:	9116                	add	sp,sp,t0
    21dc:	892a                	mv	s2,a0
    PQCLEAN_KYBER512_CLEAN_polyvec_frombytes(pk, packedpk);
    21de:	757d                	lui	a0,0xfffff
    21e0:	97aa                	add	a5,a5,a0
    21e2:	0818                	addi	a4,sp,16
    21e4:	00e78533          	add	a0,a5,a4
                                       const uint8_t coins[KYBER_SYMBYTES]) {
    21e8:	8c2e                	mv	s8,a1
    PQCLEAN_KYBER512_CLEAN_polyvec_frombytes(pk, packedpk);
    21ea:	85b2                	mv	a1,a2
                                       const uint8_t coins[KYBER_SYMBYTES]) {
    21ec:	84b2                	mv	s1,a2
    21ee:	89b6                	mv	s3,a3
    PQCLEAN_KYBER512_CLEAN_polyvec_frombytes(pk, packedpk);
    21f0:	ec7fe0ef          	jal	ra,10b6 <PQCLEAN_KYBER512_CLEAN_polyvec_frombytes>
    memcpy(seed, packedpk + KYBER_POLYVECBYTES, KYBER_SYMBYTES);
    21f4:	77f9                	lui	a5,0xffffe
    21f6:	e20a0713          	addi	a4,s4,-480
    21fa:	973e                	add	a4,a4,a5
    21fc:	081c                	addi	a5,sp,16
    21fe:	97ba                	add	a5,a5,a4
    2200:	02000613          	li	a2,32
    2204:	30048593          	addi	a1,s1,768
    2208:	1e078513          	addi	a0,a5,480 # ffffe1e0 <_sp+0xfff1d930>
    220c:	c63e                	sw	a5,12(sp)
    220e:	3c9010ef          	jal	ra,3dd6 <memcpy>
            asm volatile (".insn r 0x0b, 0x006, 27, %[dst], %[src], %[src2]\r\n" : [dst] "=r" (r->coeffs[8*i+0])  : [src] "r" (msg[i]), [src2] "r" (0) :   );
    2212:	7a79                	lui	s4,0xffffe
    2214:	4e85                	li	t4,1
    2216:	4b81                	li	s7,0
            asm volatile (".insn r 0x0b, 0x006, 27, %[dst], %[src], %[src2]\r\n" : [dst] "=r" (r->coeffs[8*i+1])  : [src] "r" (msg[i]), [src2] "r" (1) :   );
    2218:	4b05                	li	s6,1
            asm volatile (".insn r 0x0b, 0x006, 27, %[dst], %[src], %[src2]\r\n" : [dst] "=r" (r->coeffs[8*i+2])  : [src] "r" (msg[i]), [src2] "r" (2) :   );
    221a:	4a89                	li	s5,2
            asm volatile (".insn r 0x0b, 0x006, 27, %[dst], %[src], %[src2]\r\n" : [dst] "=r" (r->coeffs[8*i+3])  : [src] "r" (msg[i]), [src2] "r" (3) :   );
    221c:	408d                	li	ra,3
            asm volatile (".insn r 0x0b, 0x006, 27, %[dst], %[src], %[src2]\r\n" : [dst] "=r" (r->coeffs[8*i+4])  : [src] "r" (msg[i]), [src2] "r" (4) :   );
    221e:	4391                	li	t2,4
            asm volatile (".insn r 0x0b, 0x006, 27, %[dst], %[src], %[src2]\r\n" : [dst] "=r" (r->coeffs[8*i+5])  : [src] "r" (msg[i]), [src2] "r" (5) :   );
    2220:	4295                	li	t0,5
            asm volatile (".insn r 0x0b, 0x006, 27, %[dst], %[src], %[src2]\r\n" : [dst] "=r" (r->coeffs[8*i+6])  : [src] "r" (msg[i]), [src2] "r" (6) :   );
    2222:	4f99                	li	t6,6
            asm volatile (".insn r 0x0b, 0x006, 27, %[dst], %[src], %[src2]\r\n" : [dst] "=r" (r->coeffs[8*i+7])  : [src] "r" (msg[i]), [src2] "r" (7) :   );
    2224:	4f1d                	li	t5,7
    for (i = 0; i < KYBER_N / 8; i++) {
    2226:	10100c93          	li	s9,257
            asm volatile (".insn r 0x0b, 0x006, 27, %[dst], %[src], %[src2]\r\n" : [dst] "=r" (r->coeffs[8*i+0])  : [src] "r" (msg[i]), [src2] "r" (0) :   );
    222a:	4732                	lw	a4,12(sp)
    222c:	fffe8313          	addi	t1,t4,-1
            asm volatile (".insn r 0x0b, 0x006, 27, %[dst], %[src], %[src2]\r\n" : [dst] "=r" (r->coeffs[8*i+2])  : [src] "r" (msg[i]), [src2] "r" (2) :   );
    2230:	001e8893          	addi	a7,t4,1
            asm volatile (".insn r 0x0b, 0x006, 27, %[dst], %[src], %[src2]\r\n" : [dst] "=r" (r->coeffs[8*i+3])  : [src] "r" (msg[i]), [src2] "r" (3) :   );
    2234:	002e8693          	addi	a3,t4,2
            asm volatile (".insn r 0x0b, 0x006, 27, %[dst], %[src], %[src2]\r\n" : [dst] "=r" (r->coeffs[8*i+4])  : [src] "r" (msg[i]), [src2] "r" (4) :   );
    2238:	003e8813          	addi	a6,t4,3
            asm volatile (".insn r 0x0b, 0x006, 27, %[dst], %[src], %[src2]\r\n" : [dst] "=r" (r->coeffs[8*i+5])  : [src] "r" (msg[i]), [src2] "r" (5) :   );
    223c:	004e8513          	addi	a0,t4,4
            asm volatile (".insn r 0x0b, 0x006, 27, %[dst], %[src], %[src2]\r\n" : [dst] "=r" (r->coeffs[8*i+6])  : [src] "r" (msg[i]), [src2] "r" (6) :   );
    2240:	005e8593          	addi	a1,t4,5
            asm volatile (".insn r 0x0b, 0x006, 27, %[dst], %[src], %[src2]\r\n" : [dst] "=r" (r->coeffs[8*i+7])  : [src] "r" (msg[i]), [src2] "r" (7) :   );
    2244:	006e8613          	addi	a2,t4,6
    2248:	000c4783          	lbu	a5,0(s8)
    224c:	0306                	slli	t1,t1,0x1
    224e:	001e9e13          	slli	t3,t4,0x1
    2252:	0886                	slli	a7,a7,0x1
    2254:	0686                	slli	a3,a3,0x1
    2256:	0806                	slli	a6,a6,0x1
    2258:	0506                	slli	a0,a0,0x1
    225a:	0586                	slli	a1,a1,0x1
    225c:	0606                	slli	a2,a2,0x1
    225e:	44a1                	li	s1,8
            asm volatile (".insn r 0x0b, 0x006, 27, %[dst], %[src], %[src2]\r\n" : [dst] "=r" (r->coeffs[8*i+0])  : [src] "r" (msg[i]), [src2] "r" (0) :   );
    2260:	933a                	add	t1,t1,a4
            asm volatile (".insn r 0x0b, 0x006, 27, %[dst], %[src], %[src2]\r\n" : [dst] "=r" (r->coeffs[8*i+1])  : [src] "r" (msg[i]), [src2] "r" (1) :   );
    2262:	9e3a                	add	t3,t3,a4
            asm volatile (".insn r 0x0b, 0x006, 27, %[dst], %[src], %[src2]\r\n" : [dst] "=r" (r->coeffs[8*i+2])  : [src] "r" (msg[i]), [src2] "r" (2) :   );
    2264:	98ba                	add	a7,a7,a4
            asm volatile (".insn r 0x0b, 0x006, 27, %[dst], %[src], %[src2]\r\n" : [dst] "=r" (r->coeffs[8*i+3])  : [src] "r" (msg[i]), [src2] "r" (3) :   );
    2266:	96ba                	add	a3,a3,a4
            asm volatile (".insn r 0x0b, 0x006, 27, %[dst], %[src], %[src2]\r\n" : [dst] "=r" (r->coeffs[8*i+4])  : [src] "r" (msg[i]), [src2] "r" (4) :   );
    2268:	983a                	add	a6,a6,a4
            asm volatile (".insn r 0x0b, 0x006, 27, %[dst], %[src], %[src2]\r\n" : [dst] "=r" (r->coeffs[8*i+5])  : [src] "r" (msg[i]), [src2] "r" (5) :   );
    226a:	953a                	add	a0,a0,a4
            asm volatile (".insn r 0x0b, 0x006, 27, %[dst], %[src], %[src2]\r\n" : [dst] "=r" (r->coeffs[8*i+6])  : [src] "r" (msg[i]), [src2] "r" (6) :   );
    226c:	95ba                	add	a1,a1,a4
            asm volatile (".insn r 0x0b, 0x006, 27, %[dst], %[src], %[src2]\r\n" : [dst] "=r" (r->coeffs[8*i+7])  : [src] "r" (msg[i]), [src2] "r" (7) :   );
    226e:	963a                	add	a2,a2,a4
            asm volatile (".insn r 0x0b, 0x006, 27, %[dst], %[src], %[src2]\r\n" : [dst] "=r" (r->coeffs[8*i+0])  : [src] "r" (msg[i]), [src2] "r" (0) :   );
    2270:	3777e70b          	0x3777e70b
    2274:	40e31023          	sh	a4,1024(t1)
            asm volatile (".insn r 0x0b, 0x006, 27, %[dst], %[src], %[src2]\r\n" : [dst] "=r" (r->coeffs[8*i+1])  : [src] "r" (msg[i]), [src2] "r" (1) :   );
    2278:	3767e70b          	0x3767e70b
    227c:	40ee1023          	sh	a4,1024(t3)
            asm volatile (".insn r 0x0b, 0x006, 27, %[dst], %[src], %[src2]\r\n" : [dst] "=r" (r->coeffs[8*i+2])  : [src] "r" (msg[i]), [src2] "r" (2) :   );
    2280:	3757e70b          	0x3757e70b
    2284:	40e89023          	sh	a4,1024(a7)
            asm volatile (".insn r 0x0b, 0x006, 27, %[dst], %[src], %[src2]\r\n" : [dst] "=r" (r->coeffs[8*i+3])  : [src] "r" (msg[i]), [src2] "r" (3) :   );
    2288:	3617e70b          	0x3617e70b
    228c:	40e69023          	sh	a4,1024(a3)
            asm volatile (".insn r 0x0b, 0x006, 27, %[dst], %[src], %[src2]\r\n" : [dst] "=r" (r->coeffs[8*i+4])  : [src] "r" (msg[i]), [src2] "r" (4) :   );
    2290:	3677e70b          	0x3677e70b
    2294:	40e81023          	sh	a4,1024(a6)
            asm volatile (".insn r 0x0b, 0x006, 27, %[dst], %[src], %[src2]\r\n" : [dst] "=r" (r->coeffs[8*i+5])  : [src] "r" (msg[i]), [src2] "r" (5) :   );
    2298:	3657e70b          	0x3657e70b
    229c:	40e51023          	sh	a4,1024(a0) # fffff400 <_sp+0xfff1eb50>
            asm volatile (".insn r 0x0b, 0x006, 27, %[dst], %[src], %[src2]\r\n" : [dst] "=r" (r->coeffs[8*i+6])  : [src] "r" (msg[i]), [src2] "r" (6) :   );
    22a0:	37f7e70b          	0x37f7e70b
    22a4:	40e59023          	sh	a4,1024(a1)
            asm volatile (".insn r 0x0b, 0x006, 27, %[dst], %[src], %[src2]\r\n" : [dst] "=r" (r->coeffs[8*i+7])  : [src] "r" (msg[i]), [src2] "r" (7) :   );
    22a8:	37e7e70b          	0x37e7e70b
    22ac:	40e61023          	sh	a4,1024(a2)
        for (j = 0; j < 8; j++) {
    22b0:	14fd                	addi	s1,s1,-1
    22b2:	fcdd                	bnez	s1,2270 <PQCLEAN_KYBER512_CLEAN_indcpa_enc+0xbc>
    for (i = 0; i < KYBER_N / 8; i++) {
    22b4:	0ea1                	addi	t4,t4,8
    22b6:	0c05                	addi	s8,s8,1
    22b8:	f79e99e3          	bne	t4,s9,222a <PQCLEAN_KYBER512_CLEAN_indcpa_enc+0x76>
    PQCLEAN_KYBER512_CLEAN_gen_matrix(at, seed, 1);
    22bc:	6a89                	lui	s5,0x2
    22be:	1e0a0593          	addi	a1,s4,480 # ffffe1e0 <_sp+0xfff1d930>
    22c2:	e20a8793          	addi	a5,s5,-480 # 1e20 <PQCLEAN_KYBER512_CLEAN_gen_matrix+0x16>
    22c6:	6d85                	lui	s11,0x1
    22c8:	0818                	addi	a4,sp,16
    22ca:	97ae                	add	a5,a5,a1
    22cc:	620d8513          	addi	a0,s11,1568 # 1620 <ntt_driver+0x14>
    22d0:	00e785b3          	add	a1,a5,a4
    22d4:	953a                	add	a0,a0,a4
    22d6:	4605                	li	a2,1
    22d8:	3e0d                	jal	1e0a <PQCLEAN_KYBER512_CLEAN_gen_matrix>
        PQCLEAN_KYBER512_CLEAN_poly_getnoise_eta1(sp.vec + i, coins, nonce++);
    22da:	7c7d                	lui	s8,0xfffff
    22dc:	400c0b93          	addi	s7,s8,1024 # fffff400 <_sp+0xfff1eb50>
    22e0:	e20a8793          	addi	a5,s5,-480
    22e4:	97de                	add	a5,a5,s7
    22e6:	0818                	addi	a4,sp,16
    22e8:	00e78bb3          	add	s7,a5,a4
    22ec:	85ce                	mv	a1,s3
    22ee:	4601                	li	a2,0
    22f0:	855e                	mv	a0,s7
    22f2:	35b1                	jal	213e <PQCLEAN_KYBER512_CLEAN_poly_getnoise_eta1>
    22f4:	200b8c93          	addi	s9,s7,512
    22f8:	85ce                	mv	a1,s3
    22fa:	4605                	li	a2,1
    22fc:	8566                	mv	a0,s9
    22fe:	3581                	jal	213e <PQCLEAN_KYBER512_CLEAN_poly_getnoise_eta1>
    shake256(buf, sizeof(buf), seed, nonce);
    2300:	800c0613          	addi	a2,s8,-2048
    2304:	e20a8793          	addi	a5,s5,-480
    2308:	97b2                	add	a5,a5,a2
    230a:	0818                	addi	a4,sp,16
    230c:	8d56                	mv	s10,s5
    230e:	00e78ab3          	add	s5,a5,a4
    2312:	864e                	mv	a2,s3
    2314:	4689                	li	a3,2
    2316:	08000593          	li	a1,128
    231a:	8556                	mv	a0,s5
    231c:	31ed                	jal	2006 <shake256>
void PQCLEAN_KYBER512_CLEAN_poly_cbd_eta1(poly *r, const uint8_t buf[KYBER_ETA1 * KYBER_N / 4]) {
    cbd3(r, buf);
}

void PQCLEAN_KYBER512_CLEAN_poly_cbd_eta2(poly *r, const uint8_t buf[KYBER_ETA2 * KYBER_N / 4]) {
    cbd2(r, buf);
    231e:	c00c0693          	addi	a3,s8,-1024
    2322:	e20d0793          	addi	a5,s10,-480
    2326:	97b6                	add	a5,a5,a3
    2328:	0818                	addi	a4,sp,16
    232a:	00e78b33          	add	s6,a5,a4
    232e:	85d6                	mv	a1,s5
    2330:	855a                	mv	a0,s6
    2332:	c7bfe0ef          	jal	ra,fac <cbd2>
    2336:	864e                	mv	a2,s3
    2338:	468d                	li	a3,3
    233a:	8556                	mv	a0,s5
    233c:	08000593          	li	a1,128
    2340:	31d9                	jal	2006 <shake256>
    2342:	85d6                	mv	a1,s5
    2344:	200b0513          	addi	a0,s6,512
    2348:	c65fe0ef          	jal	ra,fac <cbd2>
    234c:	4691                	li	a3,4
    234e:	864e                	mv	a2,s3
    2350:	08000593          	li	a1,128
    2354:	8556                	mv	a0,s5
    2356:	3945                	jal	2006 <shake256>
    2358:	200a0513          	addi	a0,s4,512
    235c:	e20d0793          	addi	a5,s10,-480
    2360:	0818                	addi	a4,sp,16
    2362:	97aa                	add	a5,a5,a0
    2364:	00e78533          	add	a0,a5,a4
    2368:	85d6                	mv	a1,s5
    236a:	c43fe0ef          	jal	ra,fac <cbd2>
    ntt_driver(sp.vec[0].coeffs, sp.vec[0].coeffs);
    236e:	85de                	mv	a1,s7
    2370:	855e                	mv	a0,s7
    2372:	a9aff0ef          	jal	ra,160c <ntt_driver>
    ntt_driver(sp.vec[1].coeffs, sp.vec[1].coeffs);
    2376:	85e6                	mv	a1,s9
    2378:	8566                	mv	a0,s9
    237a:	a92ff0ef          	jal	ra,160c <ntt_driver>
        PQCLEAN_KYBER512_CLEAN_polyvec_basemul_acc_montgomery(&b.vec[i], &at[i], &sp);
    237e:	081c                	addi	a5,sp,16
    2380:	620d8593          	addi	a1,s11,1568
    2384:	95be                	add	a1,a1,a5
    2386:	865e                	mv	a2,s7
    2388:	8556                	mv	a0,s5
    238a:	e5bfe0ef          	jal	ra,11e4 <PQCLEAN_KYBER512_CLEAN_polyvec_basemul_acc_montgomery>
    238e:	200a8993          	addi	s3,s5,512
    2392:	a30d0793          	addi	a5,s10,-1488
    2396:	002785b3          	add	a1,a5,sp
    239a:	865e                	mv	a2,s7
    239c:	854e                	mv	a0,s3
    239e:	e47fe0ef          	jal	ra,11e4 <PQCLEAN_KYBER512_CLEAN_polyvec_basemul_acc_montgomery>
    PQCLEAN_KYBER512_CLEAN_polyvec_basemul_acc_montgomery(&v, &pkpv, &sp);
    23a2:	600a0a13          	addi	s4,s4,1536
    23a6:	e20d0793          	addi	a5,s10,-480
    23aa:	0818                	addi	a4,sp,16
    23ac:	97d2                	add	a5,a5,s4
    23ae:	00e78a33          	add	s4,a5,a4
    23b2:	e20d0793          	addi	a5,s10,-480
    23b6:	97e2                	add	a5,a5,s8
    23b8:	00e785b3          	add	a1,a5,a4
    23bc:	865e                	mv	a2,s7
    23be:	8552                	mv	a0,s4
    23c0:	e25fe0ef          	jal	ra,11e4 <PQCLEAN_KYBER512_CLEAN_polyvec_basemul_acc_montgomery>
    intt_driver(b.vec[0].coeffs, b.vec[0].coeffs);
    23c4:	85d6                	mv	a1,s5
    23c6:	8556                	mv	a0,s5
    23c8:	baaff0ef          	jal	ra,1772 <intt_driver>
    intt_driver(b.vec[1].coeffs, b.vec[1].coeffs);
    23cc:	85ce                	mv	a1,s3
    23ce:	854e                	mv	a0,s3
    23d0:	ba2ff0ef          	jal	ra,1772 <intt_driver>
    intt_driver(v.coeffs, v.coeffs);
    23d4:	85d2                	mv	a1,s4
    23d6:	8552                	mv	a0,s4
    23d8:	b9aff0ef          	jal	ra,1772 <intt_driver>
    for (i = 0; i < KYBER_N; i++) {
    23dc:	8f56                	mv	t5,s5
    23de:	86da                	mv	a3,s6
    23e0:	87d6                	mv	a5,s5
        r->coeffs[i] = a->coeffs[i] + b->coeffs[i];
    23e2:	0007d703          	lhu	a4,0(a5)
    23e6:	0006d603          	lhu	a2,0(a3)
    for (i = 0; i < KYBER_N; i++) {
    23ea:	0789                	addi	a5,a5,2
    23ec:	0689                	addi	a3,a3,2
        r->coeffs[i] = a->coeffs[i] + b->coeffs[i];
    23ee:	9732                	add	a4,a4,a2
    23f0:	fee79f23          	sh	a4,-2(a5)
    for (i = 0; i < KYBER_N; i++) {
    23f4:	ff3797e3          	bne	a5,s3,23e2 <PQCLEAN_KYBER512_CLEAN_indcpa_enc+0x22e>
    23f8:	6689                	lui	a3,0x2
    23fa:	77fd                	lui	a5,0xfffff
    23fc:	e2068713          	addi	a4,a3,-480 # 1e20 <PQCLEAN_KYBER512_CLEAN_gen_matrix+0x16>
    2400:	973e                	add	a4,a4,a5
    2402:	0810                	addi	a2,sp,16
    2404:	00c705b3          	add	a1,a4,a2
    2408:	e2068713          	addi	a4,a3,-480
    240c:	973e                	add	a4,a4,a5
    240e:	00c707b3          	add	a5,a4,a2
    2412:	a0058593          	addi	a1,a1,-1536
    2416:	e0078693          	addi	a3,a5,-512 # ffffee00 <_sp+0xfff1e550>
    241a:	400a8513          	addi	a0,s5,1024
    241e:	87ae                	mv	a5,a1
        r->coeffs[i] = a->coeffs[i] + b->coeffs[i];
    2420:	0007d703          	lhu	a4,0(a5)
    2424:	0006d603          	lhu	a2,0(a3)
    for (i = 0; i < KYBER_N; i++) {
    2428:	0789                	addi	a5,a5,2
    242a:	0689                	addi	a3,a3,2
        r->coeffs[i] = a->coeffs[i] + b->coeffs[i];
    242c:	9732                	add	a4,a4,a2
    242e:	fee79f23          	sh	a4,-2(a5)
    for (i = 0; i < KYBER_N; i++) {
    2432:	fea797e3          	bne	a5,a0,2420 <PQCLEAN_KYBER512_CLEAN_indcpa_enc+0x26c>
    2436:	6689                	lui	a3,0x2
    2438:	77f9                	lui	a5,0xffffe
    243a:	60078513          	addi	a0,a5,1536 # ffffe600 <_sp+0xfff1dd50>
    243e:	e2068713          	addi	a4,a3,-480 # 1e20 <PQCLEAN_KYBER512_CLEAN_gen_matrix+0x16>
    2442:	972a                	add	a4,a4,a0
    2444:	0810                	addi	a2,sp,16
    2446:	00c70533          	add	a0,a4,a2
    244a:	20078793          	addi	a5,a5,512
    244e:	e2068713          	addi	a4,a3,-480
    2452:	973e                	add	a4,a4,a5
    2454:	00c706b3          	add	a3,a4,a2
    2458:	20050e13          	addi	t3,a0,512
    245c:	87aa                	mv	a5,a0
        r->coeffs[i] = a->coeffs[i] + b->coeffs[i];
    245e:	0007d703          	lhu	a4,0(a5)
    2462:	0006d603          	lhu	a2,0(a3)
    for (i = 0; i < KYBER_N; i++) {
    2466:	0789                	addi	a5,a5,2
    2468:	0689                	addi	a3,a3,2
        r->coeffs[i] = a->coeffs[i] + b->coeffs[i];
    246a:	9732                	add	a4,a4,a2
    246c:	fee79f23          	sh	a4,-2(a5)
    for (i = 0; i < KYBER_N; i++) {
    2470:	fefe17e3          	bne	t3,a5,245e <PQCLEAN_KYBER512_CLEAN_indcpa_enc+0x2aa>
    2474:	76f9                	lui	a3,0xffffe
    2476:	6789                	lui	a5,0x2
    2478:	40068693          	addi	a3,a3,1024 # ffffe400 <_sp+0xfff1db50>
    247c:	e2078793          	addi	a5,a5,-480 # 1e20 <PQCLEAN_KYBER512_CLEAN_gen_matrix+0x16>
    2480:	97b6                	add	a5,a5,a3
    2482:	0818                	addi	a4,sp,16
    2484:	00e786b3          	add	a3,a5,a4
    2488:	87aa                	mv	a5,a0
        r->coeffs[i] = a->coeffs[i] + b->coeffs[i];
    248a:	0007d703          	lhu	a4,0(a5)
    248e:	0006d603          	lhu	a2,0(a3)
    for (i = 0; i < KYBER_N; i++) {
    2492:	0789                	addi	a5,a5,2
    2494:	0689                	addi	a3,a3,2
        r->coeffs[i] = a->coeffs[i] + b->coeffs[i];
    2496:	9732                	add	a4,a4,a2
    2498:	fee79f23          	sh	a4,-2(a5)
    for (i = 0; i < KYBER_N; i++) {
    249c:	fefe17e3          	bne	t3,a5,248a <PQCLEAN_KYBER512_CLEAN_indcpa_enc+0x2d6>
        asm volatile (".insn r 0x0b, 0x004, 0, %[dst], %[src], x0\r\n" : [dst] "=r" (r->coeffs[i]) : [src] "r" (r->coeffs[i]) : );
    24a0:	6689                	lui	a3,0x2
    24a2:	777d                	lui	a4,0xfffff
    24a4:	e2068693          	addi	a3,a3,-480 # 1e20 <PQCLEAN_KYBER512_CLEAN_gen_matrix+0x16>
    24a8:	96ba                	add	a3,a3,a4
    24aa:	0818                	addi	a4,sp,16
    24ac:	9736                	add	a4,a4,a3
    24ae:	8656                	mv	a2,s5
    for (i = 0; i < KYBER_N; i++) {
    24b0:	4781                	li	a5,0
        asm volatile (".insn r 0x0b, 0x004, 0, %[dst], %[src], x0\r\n" : [dst] "=r" (r->coeffs[i]) : [src] "r" (r->coeffs[i]) : );
    24b2:	c63a                	sw	a4,12(sp)
    for (i = 0; i < KYBER_N; i++) {
    24b4:	10000813          	li	a6,256
        asm volatile (".insn r 0x0b, 0x004, 0, %[dst], %[src], x0\r\n" : [dst] "=r" (r->coeffs[i]) : [src] "r" (r->coeffs[i]) : );
    24b8:	00065683          	lhu	a3,0(a2)
    24bc:	0006c68b          	0x6c68b
    24c0:	48b2                	lw	a7,12(sp)
    24c2:	00179713          	slli	a4,a5,0x1
    for (i = 0; i < KYBER_N; i++) {
    24c6:	0785                	addi	a5,a5,1
        asm volatile (".insn r 0x0b, 0x004, 0, %[dst], %[src], x0\r\n" : [dst] "=r" (r->coeffs[i]) : [src] "r" (r->coeffs[i]) : );
    24c8:	9746                	add	a4,a4,a7
    24ca:	80d71023          	sh	a3,-2048(a4) # ffffe800 <_sp+0xfff1df50>
    for (i = 0; i < KYBER_N; i++) {
    24ce:	0609                	addi	a2,a2,2
    24d0:	ff0794e3          	bne	a5,a6,24b8 <PQCLEAN_KYBER512_CLEAN_indcpa_enc+0x304>
        asm volatile (".insn r 0x0b, 0x004, 0, %[dst], %[src], x0\r\n" : [dst] "=r" (r->coeffs[i]) : [src] "r" (r->coeffs[i]) : );
    24d4:	6689                	lui	a3,0x2
    24d6:	777d                	lui	a4,0xfffff
    24d8:	e2068693          	addi	a3,a3,-480 # 1e20 <PQCLEAN_KYBER512_CLEAN_gen_matrix+0x16>
    24dc:	96ba                	add	a3,a3,a4
    24de:	0818                	addi	a4,sp,16
    24e0:	9736                	add	a4,a4,a3
    for (i = 0; i < KYBER_N; i++) {
    24e2:	4781                	li	a5,0
        asm volatile (".insn r 0x0b, 0x004, 0, %[dst], %[src], x0\r\n" : [dst] "=r" (r->coeffs[i]) : [src] "r" (r->coeffs[i]) : );
    24e4:	c63a                	sw	a4,12(sp)
    for (i = 0; i < KYBER_N; i++) {
    24e6:	10000613          	li	a2,256
        asm volatile (".insn r 0x0b, 0x004, 0, %[dst], %[src], x0\r\n" : [dst] "=r" (r->coeffs[i]) : [src] "r" (r->coeffs[i]) : );
    24ea:	0005d683          	lhu	a3,0(a1)
    24ee:	0006c68b          	0x6c68b
    24f2:	4832                	lw	a6,12(sp)
    24f4:	00179713          	slli	a4,a5,0x1
    for (i = 0; i < KYBER_N; i++) {
    24f8:	0785                	addi	a5,a5,1
        asm volatile (".insn r 0x0b, 0x004, 0, %[dst], %[src], x0\r\n" : [dst] "=r" (r->coeffs[i]) : [src] "r" (r->coeffs[i]) : );
    24fa:	9742                	add	a4,a4,a6
    24fc:	a0d71023          	sh	a3,-1536(a4) # ffffea00 <_sp+0xfff1e150>
    for (i = 0; i < KYBER_N; i++) {
    2500:	0589                	addi	a1,a1,2
    2502:	fec794e3          	bne	a5,a2,24ea <PQCLEAN_KYBER512_CLEAN_indcpa_enc+0x336>
        asm volatile (".insn r 0x0b, 0x004, 0, %[dst], %[src], x0\r\n" : [dst] "=r" (r->coeffs[i]) : [src] "r" (r->coeffs[i]) : );
    2506:	6709                	lui	a4,0x2
    2508:	77f9                	lui	a5,0xffffe
    250a:	e2070713          	addi	a4,a4,-480 # 1e20 <PQCLEAN_KYBER512_CLEAN_gen_matrix+0x16>
    250e:	973e                	add	a4,a4,a5
    2510:	081c                	addi	a5,sp,16
    2512:	97ba                	add	a5,a5,a4
    for (i = 0; i < KYBER_N; i++) {
    2514:	86aa                	mv	a3,a0
        asm volatile (".insn r 0x0b, 0x004, 0, %[dst], %[src], x0\r\n" : [dst] "=r" (r->coeffs[i]) : [src] "r" (r->coeffs[i]) : );
    2516:	c63e                	sw	a5,12(sp)
    for (i = 0; i < KYBER_N; i++) {
    2518:	10000613          	li	a2,256
        asm volatile (".insn r 0x0b, 0x004, 0, %[dst], %[src], x0\r\n" : [dst] "=r" (r->coeffs[i]) : [src] "r" (r->coeffs[i]) : );
    251c:	0006d703          	lhu	a4,0(a3)
    2520:	0007470b          	0x7470b
    2524:	45b2                	lw	a1,12(sp)
    2526:	00149793          	slli	a5,s1,0x1
    for (i = 0; i < KYBER_N; i++) {
    252a:	0485                	addi	s1,s1,1
        asm volatile (".insn r 0x0b, 0x004, 0, %[dst], %[src], x0\r\n" : [dst] "=r" (r->coeffs[i]) : [src] "r" (r->coeffs[i]) : );
    252c:	97ae                	add	a5,a5,a1
    252e:	60e79023          	sh	a4,1536(a5) # ffffe600 <_sp+0xfff1dd50>
    for (i = 0; i < KYBER_N; i++) {
    2532:	0689                	addi	a3,a3,2
    2534:	fec494e3          	bne	s1,a2,251c <PQCLEAN_KYBER512_CLEAN_indcpa_enc+0x368>
    2538:	14090e93          	addi	t4,s2,320
    253c:	3c090f93          	addi	t6,s2,960
            asm volatile (".insn r 0x0b, 0x6, 36, %[dst], %[src], %[x]\r\n" : [dst] "=r" (t[0])  : [src] "r" (a->vec[i].coeffs[4 * j ]), [x] "r" (0) :  );
    2540:	4881                	li	a7,0
    2542:	ec0e8613          	addi	a2,t4,-320
    2546:	887a                	mv	a6,t5
    2548:	00085583          	lhu	a1,0(a6)
    254c:	4915e58b          	0x4915e58b
    2550:	05c2                	slli	a1,a1,0x10
            asm volatile (".insn r 0x0b, 0x6, 36, %[dst], %[src], %[x]\r\n" : [dst] "=r" (t[1])  : [src] "r" (a->vec[i].coeffs[4 * j + 1]), [x] "r" (0) :  );
    2552:	00285703          	lhu	a4,2(a6)
            asm volatile (".insn r 0x0b, 0x6, 36, %[dst], %[src], %[x]\r\n" : [dst] "=r" (t[0])  : [src] "r" (a->vec[i].coeffs[4 * j ]), [x] "r" (0) :  );
    2556:	81c1                	srli	a1,a1,0x10
            asm volatile (".insn r 0x0b, 0x6, 36, %[dst], %[src], %[x]\r\n" : [dst] "=r" (t[1])  : [src] "r" (a->vec[i].coeffs[4 * j + 1]), [x] "r" (0) :  );
    2558:	4917670b          	0x4917670b
    255c:	0742                	slli	a4,a4,0x10
            asm volatile (".insn r 0x0b, 0x6, 36, %[dst], %[src], %[x]\r\n" : [dst] "=r" (t[2])  : [src] "r" (a->vec[i].coeffs[4 * j + 2]), [x] "r" (0) :  );
    255e:	00485783          	lhu	a5,4(a6)
            asm volatile (".insn r 0x0b, 0x6, 36, %[dst], %[src], %[x]\r\n" : [dst] "=r" (t[1])  : [src] "r" (a->vec[i].coeffs[4 * j + 1]), [x] "r" (0) :  );
    2562:	8341                	srli	a4,a4,0x10
            asm volatile (".insn r 0x0b, 0x6, 36, %[dst], %[src], %[x]\r\n" : [dst] "=r" (t[2])  : [src] "r" (a->vec[i].coeffs[4 * j + 2]), [x] "r" (0) :  );
    2564:	4917e78b          	0x4917e78b
    2568:	07c2                	slli	a5,a5,0x10
            asm volatile (".insn r 0x0b, 0x6, 36, %[dst], %[src], %[x]\r\n" : [dst] "=r" (t[3])  : [src] "r" (a->vec[i].coeffs[4 * j + 3]), [x] "r" (0) :  );
    256a:	00685683          	lhu	a3,6(a6)
            asm volatile (".insn r 0x0b, 0x6, 36, %[dst], %[src], %[x]\r\n" : [dst] "=r" (t[2])  : [src] "r" (a->vec[i].coeffs[4 * j + 2]), [x] "r" (0) :  );
    256e:	83c1                	srli	a5,a5,0x10
            asm volatile (".insn r 0x0b, 0x6, 36, %[dst], %[src], %[x]\r\n" : [dst] "=r" (t[3])  : [src] "r" (a->vec[i].coeffs[4 * j + 3]), [x] "r" (0) :  );
    2570:	4916e68b          	0x4916e68b
    2574:	06c2                	slli	a3,a3,0x10
    2576:	82c1                	srli	a3,a3,0x10
            r[1] = (uint8_t)((t[0] >> 8) | (t[1] << 2));
    2578:	00271493          	slli	s1,a4,0x2
            r[2] = (uint8_t)((t[1] >> 6) | (t[2] << 4));
    257c:	00479393          	slli	t2,a5,0x4
            r[3] = (uint8_t)((t[2] >> 4) | (t[3] << 6));
    2580:	00669293          	slli	t0,a3,0x6
            r[1] = (uint8_t)((t[0] >> 8) | (t[1] << 2));
    2584:	0085d313          	srli	t1,a1,0x8
            r[2] = (uint8_t)((t[1] >> 6) | (t[2] << 4));
    2588:	8319                	srli	a4,a4,0x6
            r[3] = (uint8_t)((t[2] >> 4) | (t[3] << 6));
    258a:	8391                	srli	a5,a5,0x4
            r[1] = (uint8_t)((t[0] >> 8) | (t[1] << 2));
    258c:	00936333          	or	t1,t1,s1
            r[2] = (uint8_t)((t[1] >> 6) | (t[2] << 4));
    2590:	00776733          	or	a4,a4,t2
            r[3] = (uint8_t)((t[2] >> 4) | (t[3] << 6));
    2594:	0057e7b3          	or	a5,a5,t0
            r[4] = (uint8_t)(t[3] >> 2);
    2598:	8289                	srli	a3,a3,0x2
            r[0] = (uint8_t)(t[0] >> 0);
    259a:	00b60023          	sb	a1,0(a2)
            r[1] = (uint8_t)((t[0] >> 8) | (t[1] << 2));
    259e:	006600a3          	sb	t1,1(a2)
            r[2] = (uint8_t)((t[1] >> 6) | (t[2] << 4));
    25a2:	00e60123          	sb	a4,2(a2)
            r[3] = (uint8_t)((t[2] >> 4) | (t[3] << 6));
    25a6:	00f601a3          	sb	a5,3(a2)
            r[4] = (uint8_t)(t[3] >> 2);
    25aa:	00d60223          	sb	a3,4(a2)
            r += 5;
    25ae:	0615                	addi	a2,a2,5
        for (j = 0; j < KYBER_N / 4; j++) {
    25b0:	0821                	addi	a6,a6,8
    25b2:	f9d61be3          	bne	a2,t4,2548 <PQCLEAN_KYBER512_CLEAN_indcpa_enc+0x394>
    for (i = 0; i < KYBER_K; i++) {
    25b6:	14060e93          	addi	t4,a2,320
    25ba:	200f0f13          	addi	t5,t5,512
    25be:	f9fe92e3          	bne	t4,t6,2542 <PQCLEAN_KYBER512_CLEAN_indcpa_enc+0x38e>
    PQCLEAN_KYBER512_CLEAN_poly_compress(r + KYBER_POLYVECCOMPRESSEDBYTES, v);
    25c2:	28090913          	addi	s2,s2,640
        asm volatile (".insn r 0x0b, 0x6, 17, %[dst], %[src], %[x]\r\n" : [dst] "=r" (t[0])  : [src] "r" (a->coeffs[8 * i]), [x] "r" (0) :  );
    25c6:	4781                	li	a5,0
    25c8:	00055603          	lhu	a2,0(a0)
    25cc:	22f6660b          	0x22f6660b
        asm volatile (".insn r 0x0b, 0x6, 17, %[dst], %[src], %[x]\r\n" : [dst] "=r" (t[1])  : [src] "r" (a->coeffs[8 * i + 1]), [x] "r" (0) :  );
    25d0:	00255303          	lhu	t1,2(a0)
        asm volatile (".insn r 0x0b, 0x6, 17, %[dst], %[src], %[x]\r\n" : [dst] "=r" (t[0])  : [src] "r" (a->coeffs[8 * i]), [x] "r" (0) :  );
    25d4:	0ff67613          	zext.b	a2,a2
        asm volatile (".insn r 0x0b, 0x6, 17, %[dst], %[src], %[x]\r\n" : [dst] "=r" (t[1])  : [src] "r" (a->coeffs[8 * i + 1]), [x] "r" (0) :  );
    25d8:	22f3630b          	0x22f3630b
        asm volatile (".insn r 0x0b, 0x6, 17, %[dst], %[src], %[x]\r\n" : [dst] "=r" (t[2])  : [src] "r" (a->coeffs[8 * i + 2]), [x] "r" (0) :  );
    25dc:	00455e83          	lhu	t4,4(a0)
        asm volatile (".insn r 0x0b, 0x6, 17, %[dst], %[src], %[x]\r\n" : [dst] "=r" (t[1])  : [src] "r" (a->coeffs[8 * i + 1]), [x] "r" (0) :  );
    25e0:	0ff37313          	zext.b	t1,t1
        asm volatile (".insn r 0x0b, 0x6, 17, %[dst], %[src], %[x]\r\n" : [dst] "=r" (t[2])  : [src] "r" (a->coeffs[8 * i + 2]), [x] "r" (0) :  );
    25e4:	22feee8b          	0x22feee8b
        asm volatile (".insn r 0x0b, 0x6, 17, %[dst], %[src], %[x]\r\n" : [dst] "=r" (t[3])  : [src] "r" (a->coeffs[8 * i + 3]), [x] "r" (0) :  );
    25e8:	00655883          	lhu	a7,6(a0)
        asm volatile (".insn r 0x0b, 0x6, 17, %[dst], %[src], %[x]\r\n" : [dst] "=r" (t[2])  : [src] "r" (a->coeffs[8 * i + 2]), [x] "r" (0) :  );
    25ec:	0ffefe93          	zext.b	t4,t4
        asm volatile (".insn r 0x0b, 0x6, 17, %[dst], %[src], %[x]\r\n" : [dst] "=r" (t[3])  : [src] "r" (a->coeffs[8 * i + 3]), [x] "r" (0) :  );
    25f0:	22f8e88b          	0x22f8e88b
        asm volatile (".insn r 0x0b, 0x6, 17, %[dst], %[src], %[x]\r\n" : [dst] "=r" (t[4])  : [src] "r" (a->coeffs[8 * i + 4]), [x] "r" (0) :  );
    25f4:	00855683          	lhu	a3,8(a0)
        asm volatile (".insn r 0x0b, 0x6, 17, %[dst], %[src], %[x]\r\n" : [dst] "=r" (t[3])  : [src] "r" (a->coeffs[8 * i + 3]), [x] "r" (0) :  );
    25f8:	0ff8f893          	zext.b	a7,a7
        asm volatile (".insn r 0x0b, 0x6, 17, %[dst], %[src], %[x]\r\n" : [dst] "=r" (t[4])  : [src] "r" (a->coeffs[8 * i + 4]), [x] "r" (0) :  );
    25fc:	22f6e68b          	0x22f6e68b
        asm volatile (".insn r 0x0b, 0x6, 17, %[dst], %[src], %[x]\r\n" : [dst] "=r" (t[5])  : [src] "r" (a->coeffs[8 * i + 5]), [x] "r" (0) :  );
    2600:	00a55803          	lhu	a6,10(a0)
        asm volatile (".insn r 0x0b, 0x6, 17, %[dst], %[src], %[x]\r\n" : [dst] "=r" (t[4])  : [src] "r" (a->coeffs[8 * i + 4]), [x] "r" (0) :  );
    2604:	0ff6f693          	zext.b	a3,a3
        asm volatile (".insn r 0x0b, 0x6, 17, %[dst], %[src], %[x]\r\n" : [dst] "=r" (t[5])  : [src] "r" (a->coeffs[8 * i + 5]), [x] "r" (0) :  );
    2608:	22f8680b          	0x22f8680b
        asm volatile (".insn r 0x0b, 0x6, 17, %[dst], %[src], %[x]\r\n" : [dst] "=r" (t[6])  : [src] "r" (a->coeffs[8 * i + 6]), [x] "r" (0) :  );
    260c:	00c55703          	lhu	a4,12(a0)
        asm volatile (".insn r 0x0b, 0x6, 17, %[dst], %[src], %[x]\r\n" : [dst] "=r" (t[5])  : [src] "r" (a->coeffs[8 * i + 5]), [x] "r" (0) :  );
    2610:	0ff87813          	zext.b	a6,a6
        asm volatile (".insn r 0x0b, 0x6, 17, %[dst], %[src], %[x]\r\n" : [dst] "=r" (t[6])  : [src] "r" (a->coeffs[8 * i + 6]), [x] "r" (0) :  );
    2614:	22f7670b          	0x22f7670b
        asm volatile (".insn r 0x0b, 0x6, 17, %[dst], %[src], %[x]\r\n" : [dst] "=r" (t[7])  : [src] "r" (a->coeffs[8 * i + 7]), [x] "r" (0) :  );
    2618:	00e55583          	lhu	a1,14(a0)
        asm volatile (".insn r 0x0b, 0x6, 17, %[dst], %[src], %[x]\r\n" : [dst] "=r" (t[6])  : [src] "r" (a->coeffs[8 * i + 6]), [x] "r" (0) :  );
    261c:	0ff77713          	zext.b	a4,a4
        asm volatile (".insn r 0x0b, 0x6, 17, %[dst], %[src], %[x]\r\n" : [dst] "=r" (t[7])  : [src] "r" (a->coeffs[8 * i + 7]), [x] "r" (0) :  );
    2620:	22f5e58b          	0x22f5e58b
    2624:	0ff5f593          	zext.b	a1,a1
        r[0] = t[0] | (t[1] << 4);
    2628:	0312                	slli	t1,t1,0x4
        r[1] = t[2] | (t[3] << 4);
    262a:	0892                	slli	a7,a7,0x4
        r[2] = t[4] | (t[5] << 4);
    262c:	0812                	slli	a6,a6,0x4
        r[3] = t[6] | (t[7] << 4);
    262e:	0592                	slli	a1,a1,0x4
        r[0] = t[0] | (t[1] << 4);
    2630:	00666633          	or	a2,a2,t1
        r[1] = t[2] | (t[3] << 4);
    2634:	011ee8b3          	or	a7,t4,a7
        r[2] = t[4] | (t[5] << 4);
    2638:	0106e6b3          	or	a3,a3,a6
        r[3] = t[6] | (t[7] << 4);
    263c:	8f4d                	or	a4,a4,a1
        r[0] = t[0] | (t[1] << 4);
    263e:	00c90023          	sb	a2,0(s2)
        r[1] = t[2] | (t[3] << 4);
    2642:	011900a3          	sb	a7,1(s2)
        r[2] = t[4] | (t[5] << 4);
    2646:	00d90123          	sb	a3,2(s2)
        r[3] = t[6] | (t[7] << 4);
    264a:	00e901a3          	sb	a4,3(s2)
    for (i = 0; i < KYBER_N / 8; i++) {
    264e:	0541                	addi	a0,a0,16
        r += 4;
    2650:	0911                	addi	s2,s2,4
    for (i = 0; i < KYBER_N / 8; i++) {
    2652:	f6ae1be3          	bne	t3,a0,25c8 <PQCLEAN_KYBER512_CLEAN_indcpa_enc+0x414>
}
    2656:	6289                	lui	t0,0x2
    2658:	e2028293          	addi	t0,t0,-480 # 1e20 <PQCLEAN_KYBER512_CLEAN_gen_matrix+0x16>
    265c:	9116                	add	sp,sp,t0
    265e:	50f2                	lw	ra,60(sp)
    2660:	54e2                	lw	s1,56(sp)
    2662:	5952                	lw	s2,52(sp)
    2664:	59c2                	lw	s3,48(sp)
    2666:	5a32                	lw	s4,44(sp)
    2668:	5aa2                	lw	s5,40(sp)
    266a:	5b12                	lw	s6,36(sp)
    266c:	5b82                	lw	s7,32(sp)
    266e:	4c72                	lw	s8,28(sp)
    2670:	4ce2                	lw	s9,24(sp)
    2672:	4d52                	lw	s10,20(sp)
    2674:	4dc2                	lw	s11,16(sp)
    2676:	6121                	addi	sp,sp,64
    2678:	8082                	ret

0000267a <printbytes.constprop.0>:
static void printbytes(const uint8_t *x, size_t xlen) {
    267a:	1141                	addi	sp,sp,-16
    267c:	c426                	sw	s1,8(sp)
    267e:	c24a                	sw	s2,4(sp)
    2680:	c04e                	sw	s3,0(sp)
    2682:	c606                	sw	ra,12(sp)
    2684:	84aa                	mv	s1,a0
    2686:	00850993          	addi	s3,a0,8
    268a:	00080937          	lui	s2,0x80
        printf("%02x", x[i]);
    268e:	0004c583          	lbu	a1,0(s1)
    2692:	0d490513          	addi	a0,s2,212 # 800d4 <no_exception_handler_msg+0x3f>
    for (i = 0; i < xlen/4; i++) {
    2696:	0485                	addi	s1,s1,1
        printf("%02x", x[i]);
    2698:	78c010ef          	jal	ra,3e24 <iprintf>
    for (i = 0; i < xlen/4; i++) {
    269c:	ff3499e3          	bne	s1,s3,268e <printbytes.constprop.0+0x14>
}
    26a0:	40b2                	lw	ra,12(sp)
    26a2:	44a2                	lw	s1,8(sp)
    26a4:	4912                	lw	s2,4(sp)
    26a6:	4982                	lw	s3,0(sp)
    printf("\n");
    26a8:	4529                	li	a0,10
}
    26aa:	0141                	addi	sp,sp,16
    printf("\n");
    26ac:	7d80106f          	j	3e84 <putchar>

000026b0 <init>:
// Solderpad Hardware License, Version 2.1, see LICENSE.md for details.
// SPDX-License-Identifier: Apache-2.0 WITH SHL-2.1
int init()
{
    return 0;
    26b0:	4501                	li	a0,0
    26b2:	8082                	ret

000026b4 <_close>:
}

int _close(int file)
{
    return -1;
}
    26b4:	557d                	li	a0,-1
    26b6:	8082                	ret

000026b8 <_exit>:
 * @param offset the offset to write at, in bytes.
 * @param value the value to write.
 */
inline void mmio_region_write32(mmio_region_t base, ptrdiff_t offset,
                                uint32_t value) {
  ((volatile uint32_t *)base.base)[offset / sizeof(uint32_t)] = value;
    26b8:	200007b7          	lui	a5,0x20000
    26bc:	c3c8                	sw	a0,4(a5)
  ((volatile uint8_t *)base.base)[offset / sizeof(uint8_t)] = value;
    26be:	4705                	li	a4,1
    26c0:	00e78023          	sb	a4,0(a5) # 20000000 <_sp+0x1ff1f750>
    soc_ctrl_t soc_ctrl;
    soc_ctrl.base_addr = mmio_region_from_addr((uintptr_t)SOC_CTRL_START_ADDRESS);
    soc_ctrl_set_exit_value(&soc_ctrl, exit_status);
    soc_ctrl_set_valid(&soc_ctrl, (uint8_t)1);

    asm volatile("wfi");
    26c4:	10500073          	wfi

000026c8 <_fstat>:
    return -1;
}

int _fstat(int file, struct stat *st)
{
    st->st_mode = S_IFCHR;
    26c8:	6789                	lui	a5,0x2
    26ca:	c1dc                	sw	a5,4(a1)
    return 0;
    // errno = -ENOSYS;
    // return -1;
}
    26cc:	4501                	li	a0,0
    26ce:	8082                	ret

000026d0 <_isatty>:
    return -1;
}

int _isatty(int file)
{
    return (file == STDOUT_FILENO);
    26d0:	157d                	addi	a0,a0,-1
}
    26d2:	00153513          	seqz	a0,a0
    26d6:	8082                	ret

000026d8 <_lseek>:
}

off_t _lseek(int file, off_t ptr, int dir)
{
    return 0;
}
    26d8:	4501                	li	a0,0
    26da:	8082                	ret

000026dc <_read>:
}

ssize_t _read(int file, void *ptr, size_t len)
{
    return 0;
}
    26dc:	4501                	li	a0,0
    26de:	8082                	ret

000026e0 <_write>:
    return -1;
}

ssize_t _write(int file, const void *ptr, size_t len)
{
    if (file != STDOUT_FILENO) {
    26e0:	4785                	li	a5,1
    26e2:	08f51d63          	bne	a0,a5,277c <_write+0x9c>
{
    26e6:	1141                	addi	sp,sp,-16
  return ((volatile uint32_t *)base.base)[offset / sizeof(uint32_t)];
    26e8:	200007b7          	lui	a5,0x20000
    26ec:	c24a                	sw	s2,4(sp)
    26ee:	8932                	mv	s2,a2
    26f0:	4fd0                	lw	a2,28(a5)
    26f2:	c606                	sw	ra,12(sp)
    26f4:	c426                	sw	s1,8(sp)
  if (uart->baudrate == 0 || uart->clk_freq_hz == 0) {
    26f6:	ce11                	beqz	a2,2712 <_write+0x32>
  uint64_t nco =
    26f8:	84ae                	mv	s1,a1
    26fa:	4681                	li	a3,0
    26fc:	80000537          	lui	a0,0x80000
    2700:	03e00593          	li	a1,62
    2704:	62a020ef          	jal	ra,4d2e <__udivdi3>
  uint32_t nco_masked = nco & UART_CTRL_NCO_MASK;
    2708:	01051793          	slli	a5,a0,0x10
    270c:	83c1                	srli	a5,a5,0x10
  if (nco != nco_masked) {
    270e:	00a78a63          	beq	a5,a0,2722 <_write+0x42>
        errno = ENOSYS;
    2712:	000807b7          	lui	a5,0x80
    2716:	05800713          	li	a4,88
    271a:	6ae7a623          	sw	a4,1708(a5) # 806ac <errno>
        return -1;
    271e:	557d                	li	a0,-1
    2720:	a889                	j	2772 <_write+0x92>
    2722:	f9e5                	bnez	a1,2712 <_write+0x32>
  ((volatile uint32_t *)base.base)[offset / sizeof(uint32_t)] = value;
    2724:	200b0737          	lui	a4,0x200b0
    2728:	00072623          	sw	zero,12(a4) # 200b000c <_sp+0x1ffcf75c>
    272c:	478d                	li	a5,3
    272e:	cf5c                	sw	a5,28(a4)
    2730:	02072223          	sw	zero,36(a4)
    2734:	02072623          	sw	zero,44(a4)
    2738:	00072223          	sw	zero,4(a4)
  bitfield |= (value & field.mask) << field.index;
    273c:	01051793          	slli	a5,a0,0x10
    2740:	56fd                	li	a3,-1
    2742:	c314                	sw	a3,0(a4)
    2744:	0037e793          	ori	a5,a5,3
    2748:	c75c                	sw	a5,12(a4)
    274a:	00072223          	sw	zero,4(a4)
  while (len) {
    274e:	02090163          	beqz	s2,2770 <_write+0x90>
    2752:	012485b3          	add	a1,s1,s2
    uart_putchar(uart, *data);
    2756:	0004c683          	lbu	a3,0(s1)
  return ((volatile uint32_t *)base.base)[offset / sizeof(uint32_t)];
    275a:	4b1c                	lw	a5,16(a4)
  while (uart_tx_full(uart)) {
    275c:	8b85                	andi	a5,a5,1
    275e:	fff5                	bnez	a5,275a <_write+0x7a>
  ((volatile uint32_t *)base.base)[offset / sizeof(uint32_t)] = value;
    2760:	cf14                	sw	a3,24(a4)
  return ((volatile uint32_t *)base.base)[offset / sizeof(uint32_t)];
    2762:	4b1c                	lw	a5,16(a4)
  return (bitfield >> field.index) & field.mask;
    2764:	838d                	srli	a5,a5,0x3
  while (!uart_tx_idle(uart)) {
    2766:	8b85                	andi	a5,a5,1
    2768:	dfed                	beqz	a5,2762 <_write+0x82>
    data++;
    276a:	0485                	addi	s1,s1,1
  while (len) {
    276c:	fe9595e3          	bne	a1,s1,2756 <_write+0x76>
    if (uart_init(&uart) != kErrorOk) {
        errno = ENOSYS;
        return -1;
    }

    return uart_write(&uart,(uint8_t *)ptr,len);
    2770:	854a                	mv	a0,s2

}
    2772:	40b2                	lw	ra,12(sp)
    2774:	44a2                	lw	s1,8(sp)
    2776:	4912                	lw	s2,4(sp)
    2778:	0141                	addi	sp,sp,16
    277a:	8082                	ret
        errno = ENOSYS;
    277c:	000807b7          	lui	a5,0x80
    2780:	05800713          	li	a4,88
    2784:	6ae7a623          	sw	a4,1708(a5) # 806ac <errno>
        return -1;
    2788:	557d                	li	a0,-1
}
    278a:	8082                	ret

0000278c <_sbrk>:
    return 0;
}

void *_sbrk(ptrdiff_t incr)
{
    char *old_brk = brk;
    278c:	00080737          	lui	a4,0x80

    if (__heap_start == __heap_end) {
    2790:	00081637          	lui	a2,0x81
    2794:	000b17b7          	lui	a5,0xb1
    char *old_brk = brk;
    2798:	69870713          	addi	a4,a4,1688 # 80698 <brk>
    if (__heap_start == __heap_end) {
    279c:	8a460613          	addi	a2,a2,-1884 # 808a4 <__BSS_END__>
    27a0:	8a478793          	addi	a5,a5,-1884 # b08a4 <__heap_end>
{
    27a4:	86aa                	mv	a3,a0
    char *old_brk = brk;
    27a6:	4308                	lw	a0,0(a4)
    if (__heap_start == __heap_end) {
    27a8:	00f60b63          	beq	a2,a5,27be <_sbrk+0x32>
        return NULL;
    }

    if ((brk += incr) < __heap_end) {
    27ac:	00d50633          	add	a2,a0,a3
    27b0:	00f67563          	bgeu	a2,a5,27ba <_sbrk+0x2e>
        brk += incr;
    27b4:	9636                	add	a2,a2,a3
    27b6:	c310                	sw	a2,0(a4)
    27b8:	8082                	ret
    } else {
        brk = __heap_end;
    27ba:	c31c                	sw	a5,0(a4)
    27bc:	8082                	ret
        return NULL;
    27be:	4501                	li	a0,0
    }
    return old_brk;
}
    27c0:	8082                	ret
	...

000027c4 <handler_exception>:
  };
}

// Below functions are default weak exception handlers meant to be overriden
__attribute__((weak)) void handler_exception(void) {
    27c4:	7119                	addi	sp,sp,-128
    27c6:	de86                	sw	ra,124(sp)
    27c8:	dc96                	sw	t0,120(sp)
    27ca:	da9a                	sw	t1,116(sp)
    27cc:	d89e                	sw	t2,112(sp)
    27ce:	d6aa                	sw	a0,108(sp)
    27d0:	d4ae                	sw	a1,104(sp)
    27d2:	d2b2                	sw	a2,100(sp)
    27d4:	d0b6                	sw	a3,96(sp)
    27d6:	ceba                	sw	a4,92(sp)
    27d8:	ccbe                	sw	a5,88(sp)
    27da:	cac2                	sw	a6,84(sp)
    27dc:	c8c6                	sw	a7,80(sp)
    27de:	c6f2                	sw	t3,76(sp)
    27e0:	c4f6                	sw	t4,72(sp)
    27e2:	c2fa                	sw	t5,68(sp)
    27e4:	c0fe                	sw	t6,64(sp)
  uint32_t mcause;
  exc_id_t exc_cause;

  CSR_READ(CSR_REG_MCAUSE, &mcause);
    27e6:	342027f3          	csrr	a5,mcause
  exc_cause = (exc_id_t)(mcause & kIdMax);

  switch (exc_cause) {
    27ea:	472d                	li	a4,11
  exc_cause = (exc_id_t)(mcause & kIdMax);
    27ec:	8bfd                	andi	a5,a5,31
  switch (exc_cause) {
    27ee:	00f76a63          	bltu	a4,a5,2802 <handler_exception+0x3e>
    27f2:	00080737          	lui	a4,0x80
    27f6:	078a                	slli	a5,a5,0x2
    27f8:	26070713          	addi	a4,a4,608 # 80260 <no_exception_handler_msg+0x1cb>
    27fc:	97ba                	add	a5,a5,a4
    27fe:	439c                	lw	a5,0(a5)
    2800:	8782                	jr	a5
      break;
    case kECall:
      handler_ecall();
      break;
    default:
      while (1) {
    2802:	a001                	j	2802 <handler_exception+0x3e>
  const char exc_msg[] = "Load/Store fault, mtval shows the fault address\n";
  print_exc_msg(exc_msg);
}

__attribute__((weak)) void handler_ecall(void) {
  printf("Environment call encountered\n");
    2804:	00080537          	lui	a0,0x80
    2808:	15c50513          	addi	a0,a0,348 # 8015c <no_exception_handler_msg+0xc7>
    280c:	06f000ef          	jal	ra,307a <puts>
  while (1) {
    2810:	a001                	j	2810 <handler_exception+0x4c>
  const char fault_msg[] =
    2812:	000807b7          	lui	a5,0x80
    2816:	17c78793          	addi	a5,a5,380 # 8017c <no_exception_handler_msg+0xe7>
    281a:	0048                	addi	a0,sp,4
    281c:	872a                	mv	a4,a0
    281e:	03078893          	addi	a7,a5,48
    2822:	0007a803          	lw	a6,0(a5)
    2826:	43cc                	lw	a1,4(a5)
    2828:	4790                	lw	a2,8(a5)
    282a:	47d4                	lw	a3,12(a5)
    282c:	01072023          	sw	a6,0(a4)
    2830:	c34c                	sw	a1,4(a4)
    2832:	c710                	sw	a2,8(a4)
    2834:	c754                	sw	a3,12(a4)
    2836:	07c1                	addi	a5,a5,16
    2838:	0741                	addi	a4,a4,16
    283a:	ff1794e3          	bne	a5,a7,2822 <handler_exception+0x5e>
    283e:	4394                	lw	a3,0(a5)
    2840:	0047c783          	lbu	a5,4(a5)
    2844:	c314                	sw	a3,0(a4)
    2846:	00f70223          	sb	a5,4(a4)
  print_exc_msg(fault_msg);
    284a:	d9cff0ef          	jal	ra,1de6 <print_exc_msg>
  const char fault_msg[] =
    284e:	000807b7          	lui	a5,0x80
    2852:	17c78793          	addi	a5,a5,380 # 8017c <no_exception_handler_msg+0xe7>
    2856:	0048                	addi	a0,sp,4
    2858:	872a                	mv	a4,a0
    285a:	03078893          	addi	a7,a5,48
    285e:	0007a803          	lw	a6,0(a5)
    2862:	43cc                	lw	a1,4(a5)
    2864:	4790                	lw	a2,8(a5)
    2866:	47d4                	lw	a3,12(a5)
    2868:	01072023          	sw	a6,0(a4)
    286c:	c34c                	sw	a1,4(a4)
    286e:	c710                	sw	a2,8(a4)
    2870:	c754                	sw	a3,12(a4)
    2872:	07c1                	addi	a5,a5,16
    2874:	0741                	addi	a4,a4,16
    2876:	ff1794e3          	bne	a5,a7,285e <handler_exception+0x9a>
    287a:	b7d1                	j	283e <handler_exception+0x7a>
  const char fault_msg[] =
    287c:	000807b7          	lui	a5,0x80
    2880:	1b478793          	addi	a5,a5,436 # 801b4 <no_exception_handler_msg+0x11f>
    2884:	0048                	addi	a0,sp,4
    2886:	872a                	mv	a4,a0
    2888:	03c78313          	addi	t1,a5,60
    288c:	0007a883          	lw	a7,0(a5)
    2890:	0047a803          	lw	a6,4(a5)
    2894:	478c                	lw	a1,8(a5)
    2896:	47d0                	lw	a2,12(a5)
    2898:	4b94                	lw	a3,16(a5)
    289a:	01172023          	sw	a7,0(a4)
    289e:	01072223          	sw	a6,4(a4)
    28a2:	c70c                	sw	a1,8(a4)
    28a4:	c750                	sw	a2,12(a4)
    28a6:	cb14                	sw	a3,16(a4)
    28a8:	07d1                	addi	a5,a5,20
    28aa:	0751                	addi	a4,a4,20
    28ac:	fe6790e3          	bne	a5,t1,288c <handler_exception+0xc8>
  print_exc_msg(exc_msg);
    28b0:	d36ff0ef          	jal	ra,1de6 <print_exc_msg>
  const char exc_msg[] =
    28b4:	000807b7          	lui	a5,0x80
    28b8:	1f078793          	addi	a5,a5,496 # 801f0 <no_exception_handler_msg+0x15b>
    28bc:	0048                	addi	a0,sp,4
    28be:	872a                	mv	a4,a0
    28c0:	03078893          	addi	a7,a5,48
    28c4:	0007a803          	lw	a6,0(a5)
    28c8:	43cc                	lw	a1,4(a5)
    28ca:	4790                	lw	a2,8(a5)
    28cc:	47d4                	lw	a3,12(a5)
    28ce:	01072023          	sw	a6,0(a4)
    28d2:	c34c                	sw	a1,4(a4)
    28d4:	c710                	sw	a2,8(a4)
    28d6:	c754                	sw	a3,12(a4)
    28d8:	07c1                	addi	a5,a5,16
    28da:	0741                	addi	a4,a4,16
    28dc:	ff1794e3          	bne	a5,a7,28c4 <handler_exception+0x100>
    28e0:	4390                	lw	a2,0(a5)
    28e2:	43d4                	lw	a3,4(a5)
    28e4:	0087c783          	lbu	a5,8(a5)
    28e8:	c310                	sw	a2,0(a4)
    28ea:	c354                	sw	a3,4(a4)
    28ec:	00f70423          	sb	a5,8(a4)
  print_exc_msg(exc_msg);
    28f0:	cf6ff0ef          	jal	ra,1de6 <print_exc_msg>
  const char exc_msg[] = "Load/Store fault, mtval shows the fault address\n";
    28f4:	000807b7          	lui	a5,0x80
